
build/debug/firmware.elf:     file format elf32-littlearm


Disassembly of section .isr_vector:

08000000 <vector_table>:
 * ========================================================================= */
typedef void (*const IRQHandler_t)(void); /**< Function-pointer type for handlers */

/** @cond — suppress Doxygen for the raw table */
__attribute__((section(".isr_vector"), used))
IRQHandler_t vector_table[] =
 8000000:	20000c08 			@ <UNDEFINED> instruction: 20000c08
 8000004:	0800083d 			@ <UNDEFINED> instruction: 0800083d
 8000008:	080008c1 			@ <UNDEFINED> instruction: 080008c1
 800000c:	080008c1 			@ <UNDEFINED> instruction: 080008c1
 8000010:	080008c1 			@ <UNDEFINED> instruction: 080008c1
 8000014:	080008c1 			@ <UNDEFINED> instruction: 080008c1
 8000018:	080008c1 			@ <UNDEFINED> instruction: 080008c1
	...
 800002c:	080008c1 			@ <UNDEFINED> instruction: 080008c1
 8000030:	080008c1 			@ <UNDEFINED> instruction: 080008c1
 8000034:	00000000 			@ <UNDEFINED> instruction: 00000000
 8000038:	080008c1 			@ <UNDEFINED> instruction: 080008c1
 800003c:	0800051d 			@ <UNDEFINED> instruction: 0800051d
 8000040:	080008c1 			@ <UNDEFINED> instruction: 080008c1
 8000044:	080008c1 			@ <UNDEFINED> instruction: 080008c1
 8000048:	080008c1 			@ <UNDEFINED> instruction: 080008c1
 800004c:	080008c1 			@ <UNDEFINED> instruction: 080008c1
 8000050:	080008c1 			@ <UNDEFINED> instruction: 080008c1
 8000054:	080008c1 			@ <UNDEFINED> instruction: 080008c1
 8000058:	080008c1 			@ <UNDEFINED> instruction: 080008c1
 800005c:	080008c1 			@ <UNDEFINED> instruction: 080008c1
 8000060:	080008c1 			@ <UNDEFINED> instruction: 080008c1
 8000064:	080008c1 			@ <UNDEFINED> instruction: 080008c1
 8000068:	080008c1 			@ <UNDEFINED> instruction: 080008c1
 800006c:	080008c1 			@ <UNDEFINED> instruction: 080008c1
 8000070:	080008c1 			@ <UNDEFINED> instruction: 080008c1
 8000074:	080008c1 			@ <UNDEFINED> instruction: 080008c1
 8000078:	080008c1 			@ <UNDEFINED> instruction: 080008c1
 800007c:	080008c1 			@ <UNDEFINED> instruction: 080008c1
 8000080:	080008c1 			@ <UNDEFINED> instruction: 080008c1
 8000084:	080008c1 			@ <UNDEFINED> instruction: 080008c1
 8000088:	080008c1 			@ <UNDEFINED> instruction: 080008c1
 800008c:	080008c1 			@ <UNDEFINED> instruction: 080008c1
 8000090:	080008c1 			@ <UNDEFINED> instruction: 080008c1
 8000094:	080008c1 			@ <UNDEFINED> instruction: 080008c1
 8000098:	080008c1 			@ <UNDEFINED> instruction: 080008c1
 800009c:	080008c1 			@ <UNDEFINED> instruction: 080008c1
 80000a0:	080008c1 			@ <UNDEFINED> instruction: 080008c1
 80000a4:	080008c1 			@ <UNDEFINED> instruction: 080008c1
 80000a8:	080008c1 			@ <UNDEFINED> instruction: 080008c1
 80000ac:	080008c1 			@ <UNDEFINED> instruction: 080008c1
 80000b0:	080008c1 			@ <UNDEFINED> instruction: 080008c1
 80000b4:	080008c1 			@ <UNDEFINED> instruction: 080008c1
 80000b8:	080008c1 			@ <UNDEFINED> instruction: 080008c1
 80000bc:	080008c1 			@ <UNDEFINED> instruction: 080008c1
 80000c0:	080008c1 			@ <UNDEFINED> instruction: 080008c1
 80000c4:	080008c1 			@ <UNDEFINED> instruction: 080008c1
 80000c8:	080008c1 			@ <UNDEFINED> instruction: 080008c1
 80000cc:	080008c1 			@ <UNDEFINED> instruction: 080008c1
 80000d0:	080008c1 			@ <UNDEFINED> instruction: 080008c1
 80000d4:	080008c1 			@ <UNDEFINED> instruction: 080008c1
 80000d8:	080008c1 			@ <UNDEFINED> instruction: 080008c1
 80000dc:	080008c1 			@ <UNDEFINED> instruction: 080008c1
 80000e0:	080008c1 			@ <UNDEFINED> instruction: 080008c1
 80000e4:	080008c1 			@ <UNDEFINED> instruction: 080008c1
 80000e8:	080008c1 			@ <UNDEFINED> instruction: 080008c1
 80000ec:	080008c1 			@ <UNDEFINED> instruction: 080008c1
 80000f0:	080008c1 			@ <UNDEFINED> instruction: 080008c1
 80000f4:	080008c1 			@ <UNDEFINED> instruction: 080008c1
 80000f8:	080008c1 			@ <UNDEFINED> instruction: 080008c1
 80000fc:	080008c1 			@ <UNDEFINED> instruction: 080008c1
 8000100:	080008c1 			@ <UNDEFINED> instruction: 080008c1
 8000104:	080008c1 			@ <UNDEFINED> instruction: 080008c1
 8000108:	080008c1 			@ <UNDEFINED> instruction: 080008c1
 800010c:	080008c1 			@ <UNDEFINED> instruction: 080008c1
 8000110:	080008c1 			@ <UNDEFINED> instruction: 080008c1
 8000114:	080008c1 			@ <UNDEFINED> instruction: 080008c1
 8000118:	080008c1 			@ <UNDEFINED> instruction: 080008c1
 800011c:	080008c1 			@ <UNDEFINED> instruction: 080008c1
 8000120:	080008c1 			@ <UNDEFINED> instruction: 080008c1
 8000124:	080008c1 			@ <UNDEFINED> instruction: 080008c1
 8000128:	080008c1 			@ <UNDEFINED> instruction: 080008c1
 800012c:	080008c1 			@ <UNDEFINED> instruction: 080008c1
 8000130:	080008c1 			@ <UNDEFINED> instruction: 080008c1
	...
 800013c:	080008c1 			@ <UNDEFINED> instruction: 080008c1
 8000140:	080008c1 			@ <UNDEFINED> instruction: 080008c1
 8000144:	080008c1 			@ <UNDEFINED> instruction: 080008c1
 8000148:	080008c1 			@ <UNDEFINED> instruction: 080008c1
 800014c:	080008c1 			@ <UNDEFINED> instruction: 080008c1
 8000150:	080008c1 			@ <UNDEFINED> instruction: 080008c1
 8000154:	080008c1 			@ <UNDEFINED> instruction: 080008c1
 8000158:	080008c1 			@ <UNDEFINED> instruction: 080008c1
 800015c:	080008c1 			@ <UNDEFINED> instruction: 080008c1
 8000160:	080008c1 			@ <UNDEFINED> instruction: 080008c1
 8000164:	080008c1 			@ <UNDEFINED> instruction: 080008c1
 8000168:	080008c1 			@ <UNDEFINED> instruction: 080008c1
 800016c:	080008c1 			@ <UNDEFINED> instruction: 080008c1
 8000170:	080008c1 			@ <UNDEFINED> instruction: 080008c1
 8000174:	080008c1 			@ <UNDEFINED> instruction: 080008c1
 8000178:	080008c1 			@ <UNDEFINED> instruction: 080008c1
	...
 8000184:	080008c1 			@ <UNDEFINED> instruction: 080008c1
	...
 8000190:	080008c1 			@ <UNDEFINED> instruction: 080008c1
	...
 800019c:	080008c1 			@ <UNDEFINED> instruction: 080008c1
	...
 80001ac:	080008c1 			@ <UNDEFINED> instruction: 080008c1
 80001b0:	080008c1 			@ <UNDEFINED> instruction: 080008c1
 80001b4:	080008c1 			@ <UNDEFINED> instruction: 080008c1
 80001b8:	080008c1 			@ <UNDEFINED> instruction: 080008c1
 80001bc:	080008c1 			@ <UNDEFINED> instruction: 080008c1
 80001c0:	080008c1 			@ <UNDEFINED> instruction: 080008c1

Disassembly of section .text:

080001c4 <Error_Handler>:

/* -----------------------------------------------------------------------
 * Error handler
 * --------------------------------------------------------------------- */
static void Error_Handler(void)
{
 80001c4:	b480      	push	{r7}
 80001c6:	af00      	add	r7, sp, #0
    while (1) { /* Trap — replace with watchdog or fault log in production */ }
 80001c8:	bf00      	nop
 80001ca:	e7fd      	b.n	80001c8 <Error_Handler+0x4>

080001cc <main>:

/* -----------------------------------------------------------------------
 * STEP 5 — Main function
 * --------------------------------------------------------------------- */
int main(void)
{
 80001cc:	b580      	push	{r7, lr}
 80001ce:	af00      	add	r7, sp, #0
    /* ---- STEP 4: SysTick init — 1 ms tick at 16 MHz HSI ---- */
    SysTick_Init(HSI_FREQ_HZ);
 80001d0:	481c      	ldr	r0, [pc, #112]	@ (8000244 <main+0x78>)
 80001d2:	f000 f961 	bl	8000498 <SysTick_Init>
     * STK_VAL   ← 0  (reset current count)
     * STK_CTRL  ← CLKSOURCE=1 | TICKINT=1 | ENABLE=1
     */

    /* ---- STEP 2: Configure PA0 (TX) and PA1 (RX) to AF8 ---- */
    if (GPIO_Init(&UART4_TX_PA0) != GPIO_OK) {
 80001d6:	481c      	ldr	r0, [pc, #112]	@ (8000248 <main+0x7c>)
 80001d8:	f000 f8d4 	bl	8000384 <GPIO_Init>
 80001dc:	4603      	mov	r3, r0
 80001de:	2b00      	cmp	r3, #0
 80001e0:	d001      	beq.n	80001e6 <main+0x1a>
        Error_Handler();
 80001e2:	f7ff ffef 	bl	80001c4 <Error_Handler>
     * OSPEEDR  : PA0[1:0]  = 00   — Low Speed
     * PUPDR    : PA0[1:0]  = 01   — Pull-Up
     * AFRL     : PA0[3:0]  = 1000 — AF8
     */

    if (GPIO_Init(&UART4_RX_PA1) != GPIO_OK) {
 80001e6:	4819      	ldr	r0, [pc, #100]	@ (800024c <main+0x80>)
 80001e8:	f000 f8cc 	bl	8000384 <GPIO_Init>
 80001ec:	4603      	mov	r3, r0
 80001ee:	2b00      	cmp	r3, #0
 80001f0:	d001      	beq.n	80001f6 <main+0x2a>
        Error_Handler();
 80001f2:	f7ff ffe7 	bl	80001c4 <Error_Handler>
     * PUPDR    : PA1[3:2]  = 01   — Pull-Up
     * AFRL     : PA1[7:4]  = 1000 — AF8
     */

    /* ---- STEP 3: Init UART4 peripheral ---- */
    if (UART_Init(&UART4_Cfg) != UART_OK) {
 80001f6:	4816      	ldr	r0, [pc, #88]	@ (8000250 <main+0x84>)
 80001f8:	f000 f9e8 	bl	80005cc <UART_Init>
 80001fc:	4603      	mov	r3, r0
 80001fe:	2b00      	cmp	r3, #0
 8000200:	d001      	beq.n	8000206 <main+0x3a>
        Error_Handler();
 8000202:	f7ff ffdf 	bl	80001c4 <Error_Handler>
     * CR1       : M=0 (8-bit), PCE=0 (no parity), TE=1, RE=1
     * CR1       : UE=1            — UART4 enabled (set last)
     */

    /* ---- STEP 5: Transmit message + 1 second repeat loop ---- */
    UART_TransmitString(&UART4_Cfg, "\r\n");
 8000206:	4913      	ldr	r1, [pc, #76]	@ (8000254 <main+0x88>)
 8000208:	4811      	ldr	r0, [pc, #68]	@ (8000250 <main+0x84>)
 800020a:	f000 fae9 	bl	80007e0 <UART_TransmitString>
    UART_TransmitString(&UART4_Cfg, "====================================\r\n");
 800020e:	4912      	ldr	r1, [pc, #72]	@ (8000258 <main+0x8c>)
 8000210:	480f      	ldr	r0, [pc, #60]	@ (8000250 <main+0x84>)
 8000212:	f000 fae5 	bl	80007e0 <UART_TransmitString>
    UART_TransmitString(&UART4_Cfg, "  STM32F4xx UART4 Demo\r\n");
 8000216:	4911      	ldr	r1, [pc, #68]	@ (800025c <main+0x90>)
 8000218:	480d      	ldr	r0, [pc, #52]	@ (8000250 <main+0x84>)
 800021a:	f000 fae1 	bl	80007e0 <UART_TransmitString>
    UART_TransmitString(&UART4_Cfg, "  TX:PA0  RX:PA1  AF8  115200 8N1\r\n");
 800021e:	4910      	ldr	r1, [pc, #64]	@ (8000260 <main+0x94>)
 8000220:	480b      	ldr	r0, [pc, #44]	@ (8000250 <main+0x84>)
 8000222:	f000 fadd 	bl	80007e0 <UART_TransmitString>
    UART_TransmitString(&UART4_Cfg, "====================================\r\n");
 8000226:	490c      	ldr	r1, [pc, #48]	@ (8000258 <main+0x8c>)
 8000228:	4809      	ldr	r0, [pc, #36]	@ (8000250 <main+0x84>)
 800022a:	f000 fad9 	bl	80007e0 <UART_TransmitString>

    for (;;) {
        /* Transmit UART message */
        UART_TransmitString(&UART4_Cfg, "Hello from UART4!\r\n");
 800022e:	490d      	ldr	r1, [pc, #52]	@ (8000264 <main+0x98>)
 8000230:	4807      	ldr	r0, [pc, #28]	@ (8000250 <main+0x84>)
 8000232:	f000 fad5 	bl	80007e0 <UART_TransmitString>

        /* 1 second delay */
        SysTick_DelayMs(1000U);
 8000236:	f44f 707a 	mov.w	r0, #1000	@ 0x3e8
 800023a:	f000 f955 	bl	80004e8 <SysTick_DelayMs>
        UART_TransmitString(&UART4_Cfg, "Hello from UART4!\r\n");
 800023e:	bf00      	nop
 8000240:	e7f5      	b.n	800022e <main+0x62>
 8000242:	bf00      	nop
 8000244:	00f42400 			@ <UNDEFINED> instruction: 00f42400
 8000248:	08000948 			@ <UNDEFINED> instruction: 08000948
 800024c:	08000958 			@ <UNDEFINED> instruction: 08000958
 8000250:	08000968 			@ <UNDEFINED> instruction: 08000968
 8000254:	080008c8 			@ <UNDEFINED> instruction: 080008c8
 8000258:	080008cc 			@ <UNDEFINED> instruction: 080008cc
 800025c:	080008f4 			@ <UNDEFINED> instruction: 080008f4
 8000260:	08000910 			@ <UNDEFINED> instruction: 08000910
 8000264:	08000934 			@ <UNDEFINED> instruction: 08000934

08000268 <gpio_validate_config>:
/**
 * @brief  Validate all fields in a GPIO_Config_t.
 * @return GPIO_OK or an appropriate error code.
 */
static GPIO_Status_t gpio_validate_config(const GPIO_Config_t *cfg)
{
 8000268:	b480      	push	{r7}
 800026a:	b083      	sub	sp, #12
 800026c:	af00      	add	r7, sp, #0
 800026e:	6078      	str	r0, [r7, #4]
    if (cfg == NULL || cfg->port_base == NULL) {
 8000270:	687b      	ldr	r3, [r7, #4]
 8000272:	2b00      	cmp	r3, #0
 8000274:	d003      	beq.n	800027e <gpio_validate_config+0x16>
 8000276:	687b      	ldr	r3, [r7, #4]
 8000278:	681b      	ldr	r3, [r3, #0]
 800027a:	2b00      	cmp	r3, #0
 800027c:	d102      	bne.n	8000284 <gpio_validate_config+0x1c>
        return GPIO_ERR_NULL_PTR;
 800027e:	f04f 33ff 	mov.w	r3, #4294967295
 8000282:	e025      	b.n	80002d0 <gpio_validate_config+0x68>
    }
    if (cfg->pin > GPIO_PIN_MAX) {
 8000284:	687b      	ldr	r3, [r7, #4]
 8000286:	7a1b      	ldrb	r3, [r3, #8]
 8000288:	2b0f      	cmp	r3, #15
 800028a:	d902      	bls.n	8000292 <gpio_validate_config+0x2a>
        return GPIO_ERR_INVALID_PIN;
 800028c:	f06f 0301 	mvn.w	r3, #1
 8000290:	e01e      	b.n	80002d0 <gpio_validate_config+0x68>
    }
    if (cfg->mode  > GPIO_MODER_ANALOG  ||
 8000292:	687b      	ldr	r3, [r7, #4]
 8000294:	7a5b      	ldrb	r3, [r3, #9]
 8000296:	2b03      	cmp	r3, #3
 8000298:	d80b      	bhi.n	80002b2 <gpio_validate_config+0x4a>
        cfg->otype > GPIO_OTYPER_OD     ||
 800029a:	687b      	ldr	r3, [r7, #4]
 800029c:	7a9b      	ldrb	r3, [r3, #10]
    if (cfg->mode  > GPIO_MODER_ANALOG  ||
 800029e:	2b01      	cmp	r3, #1
 80002a0:	d807      	bhi.n	80002b2 <gpio_validate_config+0x4a>
        cfg->speed > GPIO_OSPEEDR_VHIGH ||
 80002a2:	687b      	ldr	r3, [r7, #4]
 80002a4:	7adb      	ldrb	r3, [r3, #11]
        cfg->otype > GPIO_OTYPER_OD     ||
 80002a6:	2b03      	cmp	r3, #3
 80002a8:	d803      	bhi.n	80002b2 <gpio_validate_config+0x4a>
        cfg->pull  > GPIO_PUPDR_PULLDOWN) {
 80002aa:	687b      	ldr	r3, [r7, #4]
 80002ac:	7b1b      	ldrb	r3, [r3, #12]
        cfg->speed > GPIO_OSPEEDR_VHIGH ||
 80002ae:	2b02      	cmp	r3, #2
 80002b0:	d902      	bls.n	80002b8 <gpio_validate_config+0x50>
        return GPIO_ERR_INVALID_MODE;
 80002b2:	f06f 0302 	mvn.w	r3, #2
 80002b6:	e00b      	b.n	80002d0 <gpio_validate_config+0x68>
    }
    if (cfg->mode == GPIO_MODER_AF && cfg->af > GPIO_AF15) {
 80002b8:	687b      	ldr	r3, [r7, #4]
 80002ba:	7a5b      	ldrb	r3, [r3, #9]
 80002bc:	2b02      	cmp	r3, #2
 80002be:	d106      	bne.n	80002ce <gpio_validate_config+0x66>
 80002c0:	687b      	ldr	r3, [r7, #4]
 80002c2:	7b5b      	ldrb	r3, [r3, #13]
 80002c4:	2b0f      	cmp	r3, #15
 80002c6:	d902      	bls.n	80002ce <gpio_validate_config+0x66>
        return GPIO_ERR_INVALID_MODE;  /* AF value out of 0–15 range          */
 80002c8:	f06f 0302 	mvn.w	r3, #2
 80002cc:	e000      	b.n	80002d0 <gpio_validate_config+0x68>
    }
    return GPIO_OK;
 80002ce:	2300      	movs	r3, #0
}
 80002d0:	4618      	mov	r0, r3
 80002d2:	370c      	adds	r7, #12
 80002d4:	46bd      	mov	sp, r7
 80002d6:	f85d 7b04 	ldr.w	r7, [sp], #4
 80002da:	4770      	bx	lr

080002dc <gpio_set_2bit_field>:
 */
static void gpio_set_2bit_field(volatile uint32_t *reg,
                                uint8_t            pin,
                                uint32_t           mask,
                                uint32_t           value)
{
 80002dc:	b480      	push	{r7}
 80002de:	b087      	sub	sp, #28
 80002e0:	af00      	add	r7, sp, #0
 80002e2:	60f8      	str	r0, [r7, #12]
 80002e4:	607a      	str	r2, [r7, #4]
 80002e6:	603b      	str	r3, [r7, #0]
 80002e8:	460b      	mov	r3, r1
 80002ea:	72fb      	strb	r3, [r7, #11]
    uint32_t shift = (uint32_t)pin * 2U;
 80002ec:	7afb      	ldrb	r3, [r7, #11]
 80002ee:	005b      	lsls	r3, r3, #1
 80002f0:	617b      	str	r3, [r7, #20]
    *reg = (*reg & ~(mask << shift)) | ((value & mask) << shift);
 80002f2:	68fb      	ldr	r3, [r7, #12]
 80002f4:	681a      	ldr	r2, [r3, #0]
 80002f6:	6879      	ldr	r1, [r7, #4]
 80002f8:	697b      	ldr	r3, [r7, #20]
 80002fa:	fa01 f303 	lsl.w	r3, r1, r3
 80002fe:	43db      	mvns	r3, r3
 8000300:	401a      	ands	r2, r3
 8000302:	6839      	ldr	r1, [r7, #0]
 8000304:	687b      	ldr	r3, [r7, #4]
 8000306:	4019      	ands	r1, r3
 8000308:	697b      	ldr	r3, [r7, #20]
 800030a:	fa01 f303 	lsl.w	r3, r1, r3
 800030e:	431a      	orrs	r2, r3
 8000310:	68fb      	ldr	r3, [r7, #12]
 8000312:	601a      	str	r2, [r3, #0]
}
 8000314:	bf00      	nop
 8000316:	371c      	adds	r7, #28
 8000318:	46bd      	mov	sp, r7
 800031a:	f85d 7b04 	ldr.w	r7, [sp], #4
 800031e:	4770      	bx	lr

08000320 <gpio_set_af>:
 * @param  af         Alternate function number (GPIO_AF0–GPIO_AF15).
 */
static void gpio_set_af(volatile uint32_t *port_base,
                        uint8_t            pin,
                        uint8_t            af)
{
 8000320:	b480      	push	{r7}
 8000322:	b087      	sub	sp, #28
 8000324:	af00      	add	r7, sp, #0
 8000326:	6078      	str	r0, [r7, #4]
 8000328:	460b      	mov	r3, r1
 800032a:	70fb      	strb	r3, [r7, #3]
 800032c:	4613      	mov	r3, r2
 800032e:	70bb      	strb	r3, [r7, #2]
    uint32_t afr_offset = (pin < 8U) ? GPIO_AFRL_OFFSET : GPIO_AFRH_OFFSET;
 8000330:	78fb      	ldrb	r3, [r7, #3]
 8000332:	2b07      	cmp	r3, #7
 8000334:	d801      	bhi.n	800033a <gpio_set_af+0x1a>
 8000336:	2320      	movs	r3, #32
 8000338:	e000      	b.n	800033c <gpio_set_af+0x1c>
 800033a:	2324      	movs	r3, #36	@ 0x24
 800033c:	617b      	str	r3, [r7, #20]
    uint32_t local_pin  = (uint32_t)(pin % 8U);
 800033e:	78fb      	ldrb	r3, [r7, #3]
 8000340:	f003 0307 	and.w	r3, r3, #7
 8000344:	613b      	str	r3, [r7, #16]
    uint32_t shift      = local_pin * 4U;
 8000346:	693b      	ldr	r3, [r7, #16]
 8000348:	009b      	lsls	r3, r3, #2
 800034a:	60fb      	str	r3, [r7, #12]

    volatile uint32_t *afr =
        (volatile uint32_t *)((uintptr_t)port_base + afr_offset);
 800034c:	687a      	ldr	r2, [r7, #4]
 800034e:	697b      	ldr	r3, [r7, #20]
 8000350:	4413      	add	r3, r2
    volatile uint32_t *afr =
 8000352:	60bb      	str	r3, [r7, #8]

    *afr = (*afr & ~((uint32_t)GPIO_AFR_MASK << shift))
 8000354:	68bb      	ldr	r3, [r7, #8]
 8000356:	681a      	ldr	r2, [r3, #0]
 8000358:	210f      	movs	r1, #15
 800035a:	68fb      	ldr	r3, [r7, #12]
 800035c:	fa01 f303 	lsl.w	r3, r1, r3
 8000360:	43db      	mvns	r3, r3
 8000362:	401a      	ands	r2, r3
         | (((uint32_t)af & GPIO_AFR_MASK) << shift);
 8000364:	78bb      	ldrb	r3, [r7, #2]
 8000366:	f003 010f 	and.w	r1, r3, #15
 800036a:	68fb      	ldr	r3, [r7, #12]
 800036c:	fa01 f303 	lsl.w	r3, r1, r3
 8000370:	431a      	orrs	r2, r3
    *afr = (*afr & ~((uint32_t)GPIO_AFR_MASK << shift))
 8000372:	68bb      	ldr	r3, [r7, #8]
 8000374:	601a      	str	r2, [r3, #0]
}
 8000376:	bf00      	nop
 8000378:	371c      	adds	r7, #28
 800037a:	46bd      	mov	sp, r7
 800037c:	f85d 7b04 	ldr.w	r7, [sp], #4
 8000380:	4770      	bx	lr
	...

08000384 <GPIO_Init>:
 *   5. Configure PUPDR    (none / pull-up / pull-down).
 *   6. Configure AFR      (only when mode == GPIO_MODER_AF).
 *   7. Configure MODER    (input / output / AF / analog) — last.
 */
GPIO_Status_t GPIO_Init(const GPIO_Config_t *cfg)
{
 8000384:	b580      	push	{r7, lr}
 8000386:	b088      	sub	sp, #32
 8000388:	af00      	add	r7, sp, #0
 800038a:	6078      	str	r0, [r7, #4]
    GPIO_Status_t status = gpio_validate_config(cfg);
 800038c:	6878      	ldr	r0, [r7, #4]
 800038e:	f7ff ff6b 	bl	8000268 <gpio_validate_config>
 8000392:	4603      	mov	r3, r0
 8000394:	77fb      	strb	r3, [r7, #31]
    if (status != GPIO_OK) {
 8000396:	f997 301f 	ldrsb.w	r3, [r7, #31]
 800039a:	2b00      	cmp	r3, #0
 800039c:	d002      	beq.n	80003a4 <GPIO_Init+0x20>
        return status;
 800039e:	f997 301f 	ldrsb.w	r3, [r7, #31]
 80003a2:	e073      	b.n	800048c <GPIO_Init+0x108>
    }

    /* 1. Enable peripheral clock (idempotent OR-in) */
    RCC_AHB1ENR |= cfg->rcc_bit;
 80003a4:	4b3b      	ldr	r3, [pc, #236]	@ (8000494 <GPIO_Init+0x110>)
 80003a6:	681a      	ldr	r2, [r3, #0]
 80003a8:	687b      	ldr	r3, [r7, #4]
 80003aa:	685b      	ldr	r3, [r3, #4]
 80003ac:	4939      	ldr	r1, [pc, #228]	@ (8000494 <GPIO_Init+0x110>)
 80003ae:	4313      	orrs	r3, r2
 80003b0:	600b      	str	r3, [r1, #0]
    (void)RCC_AHB1ENR; /* read-back to flush the AHB bus pipeline */
 80003b2:	4b38      	ldr	r3, [pc, #224]	@ (8000494 <GPIO_Init+0x110>)
 80003b4:	681b      	ldr	r3, [r3, #0]

    /* 2. Pre-drive output level before enabling output mode
     *    Prevents a brief glitch as MODER transitions from reset (input)
     *    to output.  BSRR is atomic — no critical section needed.       */
    if (cfg->mode == GPIO_MODER_OUTPUT) {
 80003b6:	687b      	ldr	r3, [r7, #4]
 80003b8:	7a5b      	ldrb	r3, [r3, #9]
 80003ba:	2b01      	cmp	r3, #1
 80003bc:	d117      	bne.n	80003ee <GPIO_Init+0x6a>
        volatile uint32_t *bsrr =
            (volatile uint32_t *)((uintptr_t)cfg->port_base + GPIO_BSRR_OFFSET);
 80003be:	687b      	ldr	r3, [r7, #4]
 80003c0:	681b      	ldr	r3, [r3, #0]
 80003c2:	3318      	adds	r3, #24
        volatile uint32_t *bsrr =
 80003c4:	61bb      	str	r3, [r7, #24]

        if (cfg->init_state == GPIO_PIN_SET) {
 80003c6:	687b      	ldr	r3, [r7, #4]
 80003c8:	7b9b      	ldrb	r3, [r3, #14]
 80003ca:	2b01      	cmp	r3, #1
 80003cc:	d108      	bne.n	80003e0 <GPIO_Init+0x5c>
            *bsrr = (1UL << cfg->pin);                              /* Set   */
 80003ce:	687b      	ldr	r3, [r7, #4]
 80003d0:	7a1b      	ldrb	r3, [r3, #8]
 80003d2:	461a      	mov	r2, r3
 80003d4:	2301      	movs	r3, #1
 80003d6:	fa03 f202 	lsl.w	r2, r3, r2
 80003da:	69bb      	ldr	r3, [r7, #24]
 80003dc:	601a      	str	r2, [r3, #0]
 80003de:	e006      	b.n	80003ee <GPIO_Init+0x6a>
        } else {
            *bsrr = (1UL << (cfg->pin + GPIO_BSRR_RESET_OFFSET));  /* Reset */
 80003e0:	687b      	ldr	r3, [r7, #4]
 80003e2:	7a1b      	ldrb	r3, [r3, #8]
 80003e4:	3310      	adds	r3, #16
 80003e6:	2201      	movs	r2, #1
 80003e8:	409a      	lsls	r2, r3
 80003ea:	69bb      	ldr	r3, [r7, #24]
 80003ec:	601a      	str	r2, [r3, #0]
        }
    }

    /* 3. Output type: push-pull or open-drain (1 bit per pin) */
    volatile uint32_t *otyper =
        (volatile uint32_t *)((uintptr_t)cfg->port_base + GPIO_OTYPER_OFFSET);
 80003ee:	687b      	ldr	r3, [r7, #4]
 80003f0:	681b      	ldr	r3, [r3, #0]
 80003f2:	3304      	adds	r3, #4
    volatile uint32_t *otyper =
 80003f4:	617b      	str	r3, [r7, #20]
    if (cfg->otype == GPIO_OTYPER_OD) {
 80003f6:	687b      	ldr	r3, [r7, #4]
 80003f8:	7a9b      	ldrb	r3, [r3, #10]
 80003fa:	2b01      	cmp	r3, #1
 80003fc:	d10a      	bne.n	8000414 <GPIO_Init+0x90>
        *otyper |=  (1UL << cfg->pin);
 80003fe:	697b      	ldr	r3, [r7, #20]
 8000400:	681a      	ldr	r2, [r3, #0]
 8000402:	687b      	ldr	r3, [r7, #4]
 8000404:	7a1b      	ldrb	r3, [r3, #8]
 8000406:	4619      	mov	r1, r3
 8000408:	2301      	movs	r3, #1
 800040a:	408b      	lsls	r3, r1
 800040c:	431a      	orrs	r2, r3
 800040e:	697b      	ldr	r3, [r7, #20]
 8000410:	601a      	str	r2, [r3, #0]
 8000412:	e00a      	b.n	800042a <GPIO_Init+0xa6>
    } else {
        *otyper &= ~(1UL << cfg->pin);
 8000414:	697b      	ldr	r3, [r7, #20]
 8000416:	681a      	ldr	r2, [r3, #0]
 8000418:	687b      	ldr	r3, [r7, #4]
 800041a:	7a1b      	ldrb	r3, [r3, #8]
 800041c:	4619      	mov	r1, r3
 800041e:	2301      	movs	r3, #1
 8000420:	408b      	lsls	r3, r1
 8000422:	43db      	mvns	r3, r3
 8000424:	401a      	ands	r2, r3
 8000426:	697b      	ldr	r3, [r7, #20]
 8000428:	601a      	str	r2, [r3, #0]
    }

    /* 4. Output speed (2 bits per pin) */
    volatile uint32_t *ospeedr =
        (volatile uint32_t *)((uintptr_t)cfg->port_base + GPIO_OSPEEDR_OFFSET);
 800042a:	687b      	ldr	r3, [r7, #4]
 800042c:	681b      	ldr	r3, [r3, #0]
 800042e:	3308      	adds	r3, #8
    volatile uint32_t *ospeedr =
 8000430:	613b      	str	r3, [r7, #16]
    gpio_set_2bit_field(ospeedr, cfg->pin, GPIO_OSPEEDR_MASK, cfg->speed);
 8000432:	687b      	ldr	r3, [r7, #4]
 8000434:	7a19      	ldrb	r1, [r3, #8]
 8000436:	687b      	ldr	r3, [r7, #4]
 8000438:	7adb      	ldrb	r3, [r3, #11]
 800043a:	2203      	movs	r2, #3
 800043c:	6938      	ldr	r0, [r7, #16]
 800043e:	f7ff ff4d 	bl	80002dc <gpio_set_2bit_field>

    /* 5. Pull-up / pull-down (2 bits per pin) */
    volatile uint32_t *pupdr =
        (volatile uint32_t *)((uintptr_t)cfg->port_base + GPIO_PUPDR_OFFSET);
 8000442:	687b      	ldr	r3, [r7, #4]
 8000444:	681b      	ldr	r3, [r3, #0]
 8000446:	330c      	adds	r3, #12
    volatile uint32_t *pupdr =
 8000448:	60fb      	str	r3, [r7, #12]
    gpio_set_2bit_field(pupdr, cfg->pin, GPIO_PUPDR_MASK, cfg->pull);
 800044a:	687b      	ldr	r3, [r7, #4]
 800044c:	7a19      	ldrb	r1, [r3, #8]
 800044e:	687b      	ldr	r3, [r7, #4]
 8000450:	7b1b      	ldrb	r3, [r3, #12]
 8000452:	2203      	movs	r2, #3
 8000454:	68f8      	ldr	r0, [r7, #12]
 8000456:	f7ff ff41 	bl	80002dc <gpio_set_2bit_field>

    /* 6. Alternate function (4 bits per pin in AFRL / AFRH) */
    if (cfg->mode == GPIO_MODER_AF) {
 800045a:	687b      	ldr	r3, [r7, #4]
 800045c:	7a5b      	ldrb	r3, [r3, #9]
 800045e:	2b02      	cmp	r3, #2
 8000460:	d108      	bne.n	8000474 <GPIO_Init+0xf0>
        gpio_set_af(cfg->port_base, cfg->pin, cfg->af);
 8000462:	687b      	ldr	r3, [r7, #4]
 8000464:	6818      	ldr	r0, [r3, #0]
 8000466:	687b      	ldr	r3, [r7, #4]
 8000468:	7a19      	ldrb	r1, [r3, #8]
 800046a:	687b      	ldr	r3, [r7, #4]
 800046c:	7b5b      	ldrb	r3, [r3, #13]
 800046e:	461a      	mov	r2, r3
 8000470:	f7ff ff56 	bl	8000320 <gpio_set_af>
    }

    /* 7. Mode — last, to commit the pin to its final function */
    volatile uint32_t *moder =
 8000474:	687b      	ldr	r3, [r7, #4]
 8000476:	681b      	ldr	r3, [r3, #0]
 8000478:	60bb      	str	r3, [r7, #8]
        (volatile uint32_t *)((uintptr_t)cfg->port_base + GPIO_MODER_OFFSET);
    gpio_set_2bit_field(moder, cfg->pin, GPIO_MODER_MASK, cfg->mode);
 800047a:	687b      	ldr	r3, [r7, #4]
 800047c:	7a19      	ldrb	r1, [r3, #8]
 800047e:	687b      	ldr	r3, [r7, #4]
 8000480:	7a5b      	ldrb	r3, [r3, #9]
 8000482:	2203      	movs	r2, #3
 8000484:	68b8      	ldr	r0, [r7, #8]
 8000486:	f7ff ff29 	bl	80002dc <gpio_set_2bit_field>

    return GPIO_OK;
 800048a:	2300      	movs	r3, #0
}
 800048c:	4618      	mov	r0, r3
 800048e:	3720      	adds	r7, #32
 8000490:	46bd      	mov	sp, r7
 8000492:	bd80      	pop	{r7, pc}
 8000494:	40023830 			@ <UNDEFINED> instruction: 40023830

08000498 <SysTick_Init>:
 * exception so SysTick_Handler() increments s_tick_ms.
 *
 * @param  cpu_hz  Core clock frequency in Hz (e.g. 16000000UL for HSI).
 */
void SysTick_Init(uint32_t cpu_hz)
{
 8000498:	b480      	push	{r7}
 800049a:	b085      	sub	sp, #20
 800049c:	af00      	add	r7, sp, #0
 800049e:	6078      	str	r0, [r7, #4]
    uint32_t reload = (cpu_hz / 1000U) - 1U; /* Ticks per 1 ms */
 80004a0:	687b      	ldr	r3, [r7, #4]
 80004a2:	4a0d      	ldr	r2, [pc, #52]	@ (80004d8 <SysTick_Init+0x40>)
 80004a4:	fba2 2303 	umull	r2, r3, r2, r3
 80004a8:	099b      	lsrs	r3, r3, #6
 80004aa:	3b01      	subs	r3, #1
 80004ac:	60fb      	str	r3, [r7, #12]

    SYSTICK_CTRL  = 0U;              /* Disable while configuring            */
 80004ae:	4b0b      	ldr	r3, [pc, #44]	@ (80004dc <SysTick_Init+0x44>)
 80004b0:	2200      	movs	r2, #0
 80004b2:	601a      	str	r2, [r3, #0]
    SYSTICK_LOAD  = reload & SYSTICK_LOAD_RELOAD_MASK;
 80004b4:	4a0a      	ldr	r2, [pc, #40]	@ (80004e0 <SysTick_Init+0x48>)
 80004b6:	68fb      	ldr	r3, [r7, #12]
 80004b8:	f023 437f 	bic.w	r3, r3, #4278190080	@ 0xff000000
 80004bc:	6013      	str	r3, [r2, #0]
    SYSTICK_VAL   = 0U;              /* Clear current value                  */
 80004be:	4b09      	ldr	r3, [pc, #36]	@ (80004e4 <SysTick_Init+0x4c>)
 80004c0:	2200      	movs	r2, #0
 80004c2:	601a      	str	r2, [r3, #0]

    /* Processor clock | exception enabled | counter enabled */
    SYSTICK_CTRL  = SYSTICK_CTRL_CLKSOURCE
 80004c4:	4b05      	ldr	r3, [pc, #20]	@ (80004dc <SysTick_Init+0x44>)
 80004c6:	2207      	movs	r2, #7
 80004c8:	601a      	str	r2, [r3, #0]
                  | SYSTICK_CTRL_TICKINT
                  | SYSTICK_CTRL_ENABLE;
}
 80004ca:	bf00      	nop
 80004cc:	3714      	adds	r7, #20
 80004ce:	46bd      	mov	sp, r7
 80004d0:	f85d 7b04 	ldr.w	r7, [sp], #4
 80004d4:	4770      	bx	lr
 80004d6:	bf00      	nop
 80004d8:	10624dd3 	ldrdne	r4, [r2], #-211	@ 0xffffff2d	@ <UNPREDICTABLE>
 80004dc:	e000e010 			@ <UNDEFINED> instruction: e000e010
 80004e0:	e000e014 			@ <UNDEFINED> instruction: e000e014
 80004e4:	e000e018 			@ <UNDEFINED> instruction: e000e018

080004e8 <SysTick_DelayMs>:
 * Accurate to ±1 ms (may be 1 ms early if called just before a tick).
 *
 * @param  ms  Number of milliseconds to wait.
 */
void SysTick_DelayMs(uint32_t ms)
{
 80004e8:	b480      	push	{r7}
 80004ea:	b085      	sub	sp, #20
 80004ec:	af00      	add	r7, sp, #0
 80004ee:	6078      	str	r0, [r7, #4]
    /*
     * Take a single snapshot of the volatile tick counter so the compiler
     * cannot re-read it mid-expression and introduce a race condition.
     * The subtraction wraps safely with unsigned arithmetic.
     */
    uint32_t start = s_tick_ms;
 80004f0:	4b09      	ldr	r3, [pc, #36]	@ (8000518 <SysTick_DelayMs+0x30>)
 80004f2:	681b      	ldr	r3, [r3, #0]
 80004f4:	60fb      	str	r3, [r7, #12]
    uint32_t elapsed;
    do {
        elapsed = s_tick_ms - start; /* volatile read isolated to one point  */
 80004f6:	4b08      	ldr	r3, [pc, #32]	@ (8000518 <SysTick_DelayMs+0x30>)
 80004f8:	681a      	ldr	r2, [r3, #0]
 80004fa:	68fb      	ldr	r3, [r7, #12]
 80004fc:	1ad3      	subs	r3, r2, r3
 80004fe:	60bb      	str	r3, [r7, #8]
    } while (elapsed < ms);
 8000500:	68ba      	ldr	r2, [r7, #8]
 8000502:	687b      	ldr	r3, [r7, #4]
 8000504:	429a      	cmp	r2, r3
 8000506:	d3f6      	bcc.n	80004f6 <SysTick_DelayMs+0xe>
}
 8000508:	bf00      	nop
 800050a:	bf00      	nop
 800050c:	3714      	adds	r7, #20
 800050e:	46bd      	mov	sp, r7
 8000510:	f85d 7b04 	ldr.w	r7, [sp], #4
 8000514:	4770      	bx	lr
 8000516:	bf00      	nop
 8000518:	20000000 			@ <UNDEFINED> instruction: 20000000

0800051c <SysTick_Handler>:
 * Must be placed in the vector table (startup file) under the name
 * SysTick_Handler.  Named with weak linkage so the application can
 * override it if a full RTOS tick hook is needed.
 */
__attribute__((weak)) void SysTick_Handler(void)
{
 800051c:	b480      	push	{r7}
 800051e:	af00      	add	r7, sp, #0
    s_tick_ms++;
 8000520:	4b04      	ldr	r3, [pc, #16]	@ (8000534 <SysTick_Handler+0x18>)
 8000522:	681b      	ldr	r3, [r3, #0]
 8000524:	3301      	adds	r3, #1
 8000526:	4a03      	ldr	r2, [pc, #12]	@ (8000534 <SysTick_Handler+0x18>)
 8000528:	6013      	str	r3, [r2, #0]
}
 800052a:	bf00      	nop
 800052c:	46bd      	mov	sp, r7
 800052e:	f85d 7b04 	ldr.w	r7, [sp], #4
 8000532:	4770      	bx	lr
 8000534:	20000000 			@ <UNDEFINED> instruction: 20000000

08000538 <uart_validate_config>:
/**
 * @brief  Validate a UART_Config_t pointer and its compulsory fields.
 * @return UART_OK or the first detected error code.
 */
static UART_Status_t uart_validate_config(const UART_Config_t *cfg)
{
 8000538:	b480      	push	{r7}
 800053a:	b083      	sub	sp, #12
 800053c:	af00      	add	r7, sp, #0
 800053e:	6078      	str	r0, [r7, #4]
    if (cfg == NULL || cfg->uart_base == NULL || cfg->rcc_apb_reg == NULL) {
 8000540:	687b      	ldr	r3, [r7, #4]
 8000542:	2b00      	cmp	r3, #0
 8000544:	d007      	beq.n	8000556 <uart_validate_config+0x1e>
 8000546:	687b      	ldr	r3, [r7, #4]
 8000548:	681b      	ldr	r3, [r3, #0]
 800054a:	2b00      	cmp	r3, #0
 800054c:	d003      	beq.n	8000556 <uart_validate_config+0x1e>
 800054e:	687b      	ldr	r3, [r7, #4]
 8000550:	685b      	ldr	r3, [r3, #4]
 8000552:	2b00      	cmp	r3, #0
 8000554:	d102      	bne.n	800055c <uart_validate_config+0x24>
        return UART_ERR_NULL_PTR;
 8000556:	f04f 33ff 	mov.w	r3, #4294967295
 800055a:	e023      	b.n	80005a4 <uart_validate_config+0x6c>
    }
    if (cfg->baud_rate == 0U) {
 800055c:	687b      	ldr	r3, [r7, #4]
 800055e:	691b      	ldr	r3, [r3, #16]
 8000560:	2b00      	cmp	r3, #0
 8000562:	d102      	bne.n	800056a <uart_validate_config+0x32>
        return UART_ERR_INVALID_BAUD;
 8000564:	f06f 0301 	mvn.w	r3, #1
 8000568:	e01c      	b.n	80005a4 <uart_validate_config+0x6c>
    }
    if (cfg->word_length > UART_WORDLEN_9BIT) {
 800056a:	687b      	ldr	r3, [r7, #4]
 800056c:	7d1b      	ldrb	r3, [r3, #20]
 800056e:	2b01      	cmp	r3, #1
 8000570:	d902      	bls.n	8000578 <uart_validate_config+0x40>
        return UART_ERR_INVALID_WORD;
 8000572:	f06f 0302 	mvn.w	r3, #2
 8000576:	e015      	b.n	80005a4 <uart_validate_config+0x6c>
    }
    if (cfg->stop_bits > UART_STOPBITS_2) {
 8000578:	687b      	ldr	r3, [r7, #4]
 800057a:	7d5b      	ldrb	r3, [r3, #21]
 800057c:	2b01      	cmp	r3, #1
 800057e:	d902      	bls.n	8000586 <uart_validate_config+0x4e>
        return UART_ERR_INVALID_STOP;
 8000580:	f06f 0303 	mvn.w	r3, #3
 8000584:	e00e      	b.n	80005a4 <uart_validate_config+0x6c>
    }
    if (cfg->parity > UART_PARITY_ODD) {
 8000586:	687b      	ldr	r3, [r7, #4]
 8000588:	7d9b      	ldrb	r3, [r3, #22]
 800058a:	2b02      	cmp	r3, #2
 800058c:	d902      	bls.n	8000594 <uart_validate_config+0x5c>
        return UART_ERR_INVALID_PARITY;
 800058e:	f06f 0304 	mvn.w	r3, #4
 8000592:	e007      	b.n	80005a4 <uart_validate_config+0x6c>
    }
    if (cfg->mode > UART_MODE_TX_RX) {
 8000594:	687b      	ldr	r3, [r7, #4]
 8000596:	7ddb      	ldrb	r3, [r3, #23]
 8000598:	2b02      	cmp	r3, #2
 800059a:	d902      	bls.n	80005a2 <uart_validate_config+0x6a>
        return UART_ERR_INVALID_MODE;
 800059c:	f06f 0305 	mvn.w	r3, #5
 80005a0:	e000      	b.n	80005a4 <uart_validate_config+0x6c>
    }
    return UART_OK;
 80005a2:	2300      	movs	r3, #0
}
 80005a4:	4618      	mov	r0, r3
 80005a6:	370c      	adds	r7, #12
 80005a8:	46bd      	mov	sp, r7
 80005aa:	f85d 7b04 	ldr.w	r7, [sp], #4
 80005ae:	4770      	bx	lr

080005b0 <uart_reg>:
 * @param  uart_base  Peripheral base address (from UART_Config_t).
 * @param  offset     One of the USART_*_OFFSET constants.
 */
static inline volatile uint32_t *uart_reg(volatile uint32_t *uart_base,
                                          uint32_t           offset)
{
 80005b0:	b480      	push	{r7}
 80005b2:	b083      	sub	sp, #12
 80005b4:	af00      	add	r7, sp, #0
 80005b6:	6078      	str	r0, [r7, #4]
 80005b8:	6039      	str	r1, [r7, #0]
    return (volatile uint32_t *)((uintptr_t)uart_base + offset);
 80005ba:	687a      	ldr	r2, [r7, #4]
 80005bc:	683b      	ldr	r3, [r7, #0]
 80005be:	4413      	add	r3, r2
}
 80005c0:	4618      	mov	r0, r3
 80005c2:	370c      	adds	r7, #12
 80005c4:	46bd      	mov	sp, r7
 80005c6:	f85d 7b04 	ldr.w	r7, [sp], #4
 80005ca:	4770      	bx	lr

080005cc <UART_Init>:
 *   5. Program CR3: hardware flow control.
 *   6. Program CR1: word length, parity, TX/RX enable.
 *   7. Enable USART: set UE last.
 */
UART_Status_t UART_Init(const UART_Config_t *cfg)
{
 80005cc:	b5b0      	push	{r4, r5, r7, lr}
 80005ce:	b086      	sub	sp, #24
 80005d0:	af00      	add	r7, sp, #0
 80005d2:	6078      	str	r0, [r7, #4]
    UART_Status_t status = uart_validate_config(cfg);
 80005d4:	6878      	ldr	r0, [r7, #4]
 80005d6:	f7ff ffaf 	bl	8000538 <uart_validate_config>
 80005da:	4603      	mov	r3, r0
 80005dc:	72fb      	strb	r3, [r7, #11]
    if (status != UART_OK) {
 80005de:	f997 300b 	ldrsb.w	r3, [r7, #11]
 80005e2:	2b00      	cmp	r3, #0
 80005e4:	d002      	beq.n	80005ec <UART_Init+0x20>
        return status;
 80005e6:	f997 300b 	ldrsb.w	r3, [r7, #11]
 80005ea:	e0b8      	b.n	800075e <UART_Init+0x192>
    }

    /* 1. Enable peripheral clock */
    *cfg->rcc_apb_reg |= cfg->rcc_en_bit;
 80005ec:	687b      	ldr	r3, [r7, #4]
 80005ee:	685b      	ldr	r3, [r3, #4]
 80005f0:	6819      	ldr	r1, [r3, #0]
 80005f2:	687b      	ldr	r3, [r7, #4]
 80005f4:	689a      	ldr	r2, [r3, #8]
 80005f6:	687b      	ldr	r3, [r7, #4]
 80005f8:	685b      	ldr	r3, [r3, #4]
 80005fa:	430a      	orrs	r2, r1
 80005fc:	601a      	str	r2, [r3, #0]
    (void)*cfg->rcc_apb_reg; /* read-back to flush APB pipeline */
 80005fe:	687b      	ldr	r3, [r7, #4]
 8000600:	685b      	ldr	r3, [r3, #4]
 8000602:	681b      	ldr	r3, [r3, #0]

    /* 2. Disable USART before configuration (clear UE) */
    *uart_reg(cfg->uart_base, USART_CR1_OFFSET) &= ~USART_CR1_UE;
 8000604:	687b      	ldr	r3, [r7, #4]
 8000606:	681b      	ldr	r3, [r3, #0]
 8000608:	210c      	movs	r1, #12
 800060a:	4618      	mov	r0, r3
 800060c:	f7ff ffd0 	bl	80005b0 <uart_reg>
 8000610:	4603      	mov	r3, r0
 8000612:	681a      	ldr	r2, [r3, #0]
 8000614:	f422 5200 	bic.w	r2, r2, #8192	@ 0x2000
 8000618:	601a      	str	r2, [r3, #0]

    /* 3. Baud rate — 16x oversampling: BRR = fCK / baud */
    *uart_reg(cfg->uart_base, USART_BRR_OFFSET) =
        USART_BRR_VALUE(cfg->pclk_hz, cfg->baud_rate);
 800061a:	687b      	ldr	r3, [r7, #4]
 800061c:	68dd      	ldr	r5, [r3, #12]
 800061e:	687b      	ldr	r3, [r7, #4]
 8000620:	691c      	ldr	r4, [r3, #16]
    *uart_reg(cfg->uart_base, USART_BRR_OFFSET) =
 8000622:	687b      	ldr	r3, [r7, #4]
 8000624:	681b      	ldr	r3, [r3, #0]
 8000626:	2108      	movs	r1, #8
 8000628:	4618      	mov	r0, r3
 800062a:	f7ff ffc1 	bl	80005b0 <uart_reg>
 800062e:	4602      	mov	r2, r0
        USART_BRR_VALUE(cfg->pclk_hz, cfg->baud_rate);
 8000630:	fbb5 f3f4 	udiv	r3, r5, r4
    *uart_reg(cfg->uart_base, USART_BRR_OFFSET) =
 8000634:	6013      	str	r3, [r2, #0]

    /* 4. CR2: stop bits — clear STOP field then write */
    uint32_t cr2 = *uart_reg(cfg->uart_base, USART_CR2_OFFSET);
 8000636:	687b      	ldr	r3, [r7, #4]
 8000638:	681b      	ldr	r3, [r3, #0]
 800063a:	2110      	movs	r1, #16
 800063c:	4618      	mov	r0, r3
 800063e:	f7ff ffb7 	bl	80005b0 <uart_reg>
 8000642:	4603      	mov	r3, r0
 8000644:	681b      	ldr	r3, [r3, #0]
 8000646:	617b      	str	r3, [r7, #20]
    cr2 &= ~USART_CR2_STOP_MASK;
 8000648:	697b      	ldr	r3, [r7, #20]
 800064a:	f423 5340 	bic.w	r3, r3, #12288	@ 0x3000
 800064e:	617b      	str	r3, [r7, #20]
    if (cfg->stop_bits == UART_STOPBITS_2) {
 8000650:	687b      	ldr	r3, [r7, #4]
 8000652:	7d5b      	ldrb	r3, [r3, #21]
 8000654:	2b01      	cmp	r3, #1
 8000656:	d103      	bne.n	8000660 <UART_Init+0x94>
        cr2 |= USART_CR2_STOP_2;
 8000658:	697b      	ldr	r3, [r7, #20]
 800065a:	f443 5300 	orr.w	r3, r3, #8192	@ 0x2000
 800065e:	617b      	str	r3, [r7, #20]
    }
    /* else UART_STOPBITS_1 → STOP_1 = 0b00 (already cleared) */
    *uart_reg(cfg->uart_base, USART_CR2_OFFSET) = cr2;
 8000660:	687b      	ldr	r3, [r7, #4]
 8000662:	681b      	ldr	r3, [r3, #0]
 8000664:	2110      	movs	r1, #16
 8000666:	4618      	mov	r0, r3
 8000668:	f7ff ffa2 	bl	80005b0 <uart_reg>
 800066c:	4602      	mov	r2, r0
 800066e:	697b      	ldr	r3, [r7, #20]
 8000670:	6013      	str	r3, [r2, #0]

    /* 5. CR3: hardware flow control */
    uint32_t cr3 = *uart_reg(cfg->uart_base, USART_CR3_OFFSET);
 8000672:	687b      	ldr	r3, [r7, #4]
 8000674:	681b      	ldr	r3, [r3, #0]
 8000676:	2114      	movs	r1, #20
 8000678:	4618      	mov	r0, r3
 800067a:	f7ff ff99 	bl	80005b0 <uart_reg>
 800067e:	4603      	mov	r3, r0
 8000680:	681b      	ldr	r3, [r3, #0]
 8000682:	613b      	str	r3, [r7, #16]
    cr3 &= ~(USART_CR3_RTSE | USART_CR3_CTSE);
 8000684:	693b      	ldr	r3, [r7, #16]
 8000686:	f423 7340 	bic.w	r3, r3, #768	@ 0x300
 800068a:	613b      	str	r3, [r7, #16]
    if (cfg->hw_flow_ctrl == UART_HW_FLOW_RTS ||
 800068c:	687b      	ldr	r3, [r7, #4]
 800068e:	7e1b      	ldrb	r3, [r3, #24]
 8000690:	2b01      	cmp	r3, #1
 8000692:	d003      	beq.n	800069c <UART_Init+0xd0>
        cfg->hw_flow_ctrl == UART_HW_FLOW_RTS_CTS) {
 8000694:	687b      	ldr	r3, [r7, #4]
 8000696:	7e1b      	ldrb	r3, [r3, #24]
    if (cfg->hw_flow_ctrl == UART_HW_FLOW_RTS ||
 8000698:	2b03      	cmp	r3, #3
 800069a:	d103      	bne.n	80006a4 <UART_Init+0xd8>
        cr3 |= USART_CR3_RTSE;
 800069c:	693b      	ldr	r3, [r7, #16]
 800069e:	f443 7380 	orr.w	r3, r3, #256	@ 0x100
 80006a2:	613b      	str	r3, [r7, #16]
    }
    if (cfg->hw_flow_ctrl == UART_HW_FLOW_CTS ||
 80006a4:	687b      	ldr	r3, [r7, #4]
 80006a6:	7e1b      	ldrb	r3, [r3, #24]
 80006a8:	2b02      	cmp	r3, #2
 80006aa:	d003      	beq.n	80006b4 <UART_Init+0xe8>
        cfg->hw_flow_ctrl == UART_HW_FLOW_RTS_CTS) {
 80006ac:	687b      	ldr	r3, [r7, #4]
 80006ae:	7e1b      	ldrb	r3, [r3, #24]
    if (cfg->hw_flow_ctrl == UART_HW_FLOW_CTS ||
 80006b0:	2b03      	cmp	r3, #3
 80006b2:	d103      	bne.n	80006bc <UART_Init+0xf0>
        cr3 |= USART_CR3_CTSE;
 80006b4:	693b      	ldr	r3, [r7, #16]
 80006b6:	f443 7300 	orr.w	r3, r3, #512	@ 0x200
 80006ba:	613b      	str	r3, [r7, #16]
    }
    *uart_reg(cfg->uart_base, USART_CR3_OFFSET) = cr3;
 80006bc:	687b      	ldr	r3, [r7, #4]
 80006be:	681b      	ldr	r3, [r3, #0]
 80006c0:	2114      	movs	r1, #20
 80006c2:	4618      	mov	r0, r3
 80006c4:	f7ff ff74 	bl	80005b0 <uart_reg>
 80006c8:	4602      	mov	r2, r0
 80006ca:	693b      	ldr	r3, [r7, #16]
 80006cc:	6013      	str	r3, [r2, #0]

    /* 6. CR1: word length, parity, TX/RX enable — UE still 0 */
    uint32_t cr1 = 0U;
 80006ce:	2300      	movs	r3, #0
 80006d0:	60fb      	str	r3, [r7, #12]

    /* Word length: CR1_M=0 → 8-bit, CR1_M=1 → 9-bit */
    if (cfg->word_length == UART_WORDLEN_9BIT) {
 80006d2:	687b      	ldr	r3, [r7, #4]
 80006d4:	7d1b      	ldrb	r3, [r3, #20]
 80006d6:	2b01      	cmp	r3, #1
 80006d8:	d103      	bne.n	80006e2 <UART_Init+0x116>
        cr1 |= USART_CR1_M;
 80006da:	68fb      	ldr	r3, [r7, #12]
 80006dc:	f443 5380 	orr.w	r3, r3, #4096	@ 0x1000
 80006e0:	60fb      	str	r3, [r7, #12]
    }

    /* Parity */
    if (cfg->parity == UART_PARITY_EVEN) {
 80006e2:	687b      	ldr	r3, [r7, #4]
 80006e4:	7d9b      	ldrb	r3, [r3, #22]
 80006e6:	2b01      	cmp	r3, #1
 80006e8:	d104      	bne.n	80006f4 <UART_Init+0x128>
        cr1 |= USART_CR1_PCE;          /* PCE=1, PS=0 → even               */
 80006ea:	68fb      	ldr	r3, [r7, #12]
 80006ec:	f443 6380 	orr.w	r3, r3, #1024	@ 0x400
 80006f0:	60fb      	str	r3, [r7, #12]
 80006f2:	e007      	b.n	8000704 <UART_Init+0x138>
    } else if (cfg->parity == UART_PARITY_ODD) {
 80006f4:	687b      	ldr	r3, [r7, #4]
 80006f6:	7d9b      	ldrb	r3, [r3, #22]
 80006f8:	2b02      	cmp	r3, #2
 80006fa:	d103      	bne.n	8000704 <UART_Init+0x138>
        cr1 |= USART_CR1_PCE | USART_CR1_PS; /* PCE=1, PS=1 → odd          */
 80006fc:	68fb      	ldr	r3, [r7, #12]
 80006fe:	f443 63c0 	orr.w	r3, r3, #1536	@ 0x600
 8000702:	60fb      	str	r3, [r7, #12]
    }

    /* TX / RX enable */
    if (cfg->mode == UART_MODE_TX || cfg->mode == UART_MODE_TX_RX) {
 8000704:	687b      	ldr	r3, [r7, #4]
 8000706:	7ddb      	ldrb	r3, [r3, #23]
 8000708:	2b00      	cmp	r3, #0
 800070a:	d003      	beq.n	8000714 <UART_Init+0x148>
 800070c:	687b      	ldr	r3, [r7, #4]
 800070e:	7ddb      	ldrb	r3, [r3, #23]
 8000710:	2b02      	cmp	r3, #2
 8000712:	d103      	bne.n	800071c <UART_Init+0x150>
        cr1 |= USART_CR1_TE;
 8000714:	68fb      	ldr	r3, [r7, #12]
 8000716:	f043 0308 	orr.w	r3, r3, #8
 800071a:	60fb      	str	r3, [r7, #12]
    }
    if (cfg->mode == UART_MODE_RX || cfg->mode == UART_MODE_TX_RX) {
 800071c:	687b      	ldr	r3, [r7, #4]
 800071e:	7ddb      	ldrb	r3, [r3, #23]
 8000720:	2b01      	cmp	r3, #1
 8000722:	d003      	beq.n	800072c <UART_Init+0x160>
 8000724:	687b      	ldr	r3, [r7, #4]
 8000726:	7ddb      	ldrb	r3, [r3, #23]
 8000728:	2b02      	cmp	r3, #2
 800072a:	d103      	bne.n	8000734 <UART_Init+0x168>
        cr1 |= USART_CR1_RE;
 800072c:	68fb      	ldr	r3, [r7, #12]
 800072e:	f043 0304 	orr.w	r3, r3, #4
 8000732:	60fb      	str	r3, [r7, #12]
    }

    *uart_reg(cfg->uart_base, USART_CR1_OFFSET) = cr1;
 8000734:	687b      	ldr	r3, [r7, #4]
 8000736:	681b      	ldr	r3, [r3, #0]
 8000738:	210c      	movs	r1, #12
 800073a:	4618      	mov	r0, r3
 800073c:	f7ff ff38 	bl	80005b0 <uart_reg>
 8000740:	4602      	mov	r2, r0
 8000742:	68fb      	ldr	r3, [r7, #12]
 8000744:	6013      	str	r3, [r2, #0]

    /* 7. Enable USART — UE must be set last */
    *uart_reg(cfg->uart_base, USART_CR1_OFFSET) |= USART_CR1_UE;
 8000746:	687b      	ldr	r3, [r7, #4]
 8000748:	681b      	ldr	r3, [r3, #0]
 800074a:	210c      	movs	r1, #12
 800074c:	4618      	mov	r0, r3
 800074e:	f7ff ff2f 	bl	80005b0 <uart_reg>
 8000752:	4603      	mov	r3, r0
 8000754:	681a      	ldr	r2, [r3, #0]
 8000756:	f442 5200 	orr.w	r2, r2, #8192	@ 0x2000
 800075a:	601a      	str	r2, [r3, #0]

    return UART_OK;
 800075c:	2300      	movs	r3, #0
}
 800075e:	4618      	mov	r0, r3
 8000760:	3718      	adds	r7, #24
 8000762:	46bd      	mov	sp, r7
 8000764:	bdb0      	pop	{r4, r5, r7, pc}
	...

08000768 <UART_TransmitByte>:
 * Waits until SR.TXE=1 (transmit data register empty), then writes
 * the byte to DR.  TC is not awaited — the byte is still shifting out
 * when this function returns.
 */
UART_Status_t UART_TransmitByte(const UART_Config_t *cfg, uint8_t data)
{
 8000768:	b580      	push	{r7, lr}
 800076a:	b086      	sub	sp, #24
 800076c:	af00      	add	r7, sp, #0
 800076e:	6078      	str	r0, [r7, #4]
 8000770:	460b      	mov	r3, r1
 8000772:	70fb      	strb	r3, [r7, #3]
    UART_Status_t status = uart_validate_config(cfg);
 8000774:	6878      	ldr	r0, [r7, #4]
 8000776:	f7ff fedf 	bl	8000538 <uart_validate_config>
 800077a:	4603      	mov	r3, r0
 800077c:	74fb      	strb	r3, [r7, #19]
    if (status != UART_OK) {
 800077e:	f997 3013 	ldrsb.w	r3, [r7, #19]
 8000782:	2b00      	cmp	r3, #0
 8000784:	d002      	beq.n	800078c <UART_TransmitByte+0x24>
        return status;
 8000786:	f997 3013 	ldrsb.w	r3, [r7, #19]
 800078a:	e023      	b.n	80007d4 <UART_TransmitByte+0x6c>
    }

    volatile uint32_t *sr = uart_reg(cfg->uart_base, USART_SR_OFFSET);
 800078c:	687b      	ldr	r3, [r7, #4]
 800078e:	681b      	ldr	r3, [r3, #0]
 8000790:	2100      	movs	r1, #0
 8000792:	4618      	mov	r0, r3
 8000794:	f7ff ff0c 	bl	80005b0 <uart_reg>
 8000798:	60f8      	str	r0, [r7, #12]
    volatile uint32_t *dr = uart_reg(cfg->uart_base, USART_DR_OFFSET);
 800079a:	687b      	ldr	r3, [r7, #4]
 800079c:	681b      	ldr	r3, [r3, #0]
 800079e:	2104      	movs	r1, #4
 80007a0:	4618      	mov	r0, r3
 80007a2:	f7ff ff05 	bl	80005b0 <uart_reg>
 80007a6:	60b8      	str	r0, [r7, #8]

    /* Poll TXE until set or timeout */
    uint32_t timeout = UART_POLL_TIMEOUT;
 80007a8:	4b0c      	ldr	r3, [pc, #48]	@ (80007dc <UART_TransmitByte+0x74>)
 80007aa:	617b      	str	r3, [r7, #20]
    while (!(*sr & USART_SR_TXE)) {
 80007ac:	e008      	b.n	80007c0 <UART_TransmitByte+0x58>
        if (--timeout == 0U) {
 80007ae:	697b      	ldr	r3, [r7, #20]
 80007b0:	3b01      	subs	r3, #1
 80007b2:	617b      	str	r3, [r7, #20]
 80007b4:	697b      	ldr	r3, [r7, #20]
 80007b6:	2b00      	cmp	r3, #0
 80007b8:	d102      	bne.n	80007c0 <UART_TransmitByte+0x58>
            return UART_ERR_TX_TIMEOUT;
 80007ba:	f06f 0306 	mvn.w	r3, #6
 80007be:	e009      	b.n	80007d4 <UART_TransmitByte+0x6c>
    while (!(*sr & USART_SR_TXE)) {
 80007c0:	68fb      	ldr	r3, [r7, #12]
 80007c2:	681b      	ldr	r3, [r3, #0]
 80007c4:	f003 0380 	and.w	r3, r3, #128	@ 0x80
 80007c8:	2b00      	cmp	r3, #0
 80007ca:	d0f0      	beq.n	80007ae <UART_TransmitByte+0x46>
        }
    }

    *dr = (uint32_t)data & 0xFFU;
 80007cc:	78fa      	ldrb	r2, [r7, #3]
 80007ce:	68bb      	ldr	r3, [r7, #8]
 80007d0:	601a      	str	r2, [r3, #0]
    return UART_OK;
 80007d2:	2300      	movs	r3, #0
}
 80007d4:	4618      	mov	r0, r3
 80007d6:	3718      	adds	r7, #24
 80007d8:	46bd      	mov	sp, r7
 80007da:	bd80      	pop	{r7, pc}
 80007dc:	000186a0 			@ <UNDEFINED> instruction: 000186a0

080007e0 <UART_TransmitString>:
 *
 * Iterates until '\0' is found; the null terminator is not transmitted.
 */
UART_Status_t UART_TransmitString(const UART_Config_t *cfg,
                                   const char          *str)
{
 80007e0:	b580      	push	{r7, lr}
 80007e2:	b084      	sub	sp, #16
 80007e4:	af00      	add	r7, sp, #0
 80007e6:	6078      	str	r0, [r7, #4]
 80007e8:	6039      	str	r1, [r7, #0]
    if (str == NULL) {
 80007ea:	683b      	ldr	r3, [r7, #0]
 80007ec:	2b00      	cmp	r3, #0
 80007ee:	d114      	bne.n	800081a <UART_TransmitString+0x3a>
        return UART_ERR_NULL_PTR;
 80007f0:	f04f 33ff 	mov.w	r3, #4294967295
 80007f4:	e016      	b.n	8000824 <UART_TransmitString+0x44>
    }

    UART_Status_t status;
    while (*str != '\0') {
        status = UART_TransmitByte(cfg, (uint8_t)*str);
 80007f6:	683b      	ldr	r3, [r7, #0]
 80007f8:	781b      	ldrb	r3, [r3, #0]
 80007fa:	4619      	mov	r1, r3
 80007fc:	6878      	ldr	r0, [r7, #4]
 80007fe:	f7ff ffb3 	bl	8000768 <UART_TransmitByte>
 8000802:	4603      	mov	r3, r0
 8000804:	73fb      	strb	r3, [r7, #15]
        if (status != UART_OK) {
 8000806:	f997 300f 	ldrsb.w	r3, [r7, #15]
 800080a:	2b00      	cmp	r3, #0
 800080c:	d002      	beq.n	8000814 <UART_TransmitString+0x34>
            return status;
 800080e:	f997 300f 	ldrsb.w	r3, [r7, #15]
 8000812:	e007      	b.n	8000824 <UART_TransmitString+0x44>
        }
        str++;
 8000814:	683b      	ldr	r3, [r7, #0]
 8000816:	3301      	adds	r3, #1
 8000818:	603b      	str	r3, [r7, #0]
    while (*str != '\0') {
 800081a:	683b      	ldr	r3, [r7, #0]
 800081c:	781b      	ldrb	r3, [r3, #0]
 800081e:	2b00      	cmp	r3, #0
 8000820:	d1e9      	bne.n	80007f6 <UART_TransmitString+0x16>
    }
    return UART_OK;
 8000822:	2300      	movs	r3, #0
}
 8000824:	4618      	mov	r0, r3
 8000826:	3710      	adds	r7, #16
 8000828:	46bd      	mov	sp, r7
 800082a:	bd80      	pop	{r7, pc}

0800082c <SystemInit>:
 *
 * Override this in system_stm32f4xx.c to configure PLL, HSE, FPU, MPU
 * before the C runtime is fully up.  Called from Reset_Handler before main.
 * ========================================================================= */
void SystemInit(void)
{
 800082c:	b480      	push	{r7}
 800082e:	af00      	add	r7, sp, #0
    /* Default: run on internal HSI at 16 MHz, no FPU, no MPU.
     * Replace with full clock + FPU setup for production firmware.    */
}
 8000830:	bf00      	nop
 8000832:	46bd      	mov	sp, r7
 8000834:	f85d 7b04 	ldr.w	r7, [sp], #4
 8000838:	4770      	bx	lr
	...

0800083c <Reset_Handler>:
 * Marked optimize("O0") to guarantee the copy loops are never elided,
 * even when the enclosing translation unit is compiled with -O2/-O3.
 * ========================================================================= */
__attribute__((optimize("O0")))
void Reset_Handler(void)
{
 800083c:	b580      	push	{r7, lr}
 800083e:	b088      	sub	sp, #32
 8000840:	af00      	add	r7, sp, #0
     *  Destination (VMA): _sdata … _edata              — in SRAM.
     *
     * Byte-granularity copy via uint8_t pointers keeps the loop correct
     * even for sections that are not word-aligned.
     * ------------------------------------------------------------------ */
    uint32_t data_size = (uint32_t)&_edata - (uint32_t)&_sdata;
 8000842:	4a1a      	ldr	r2, [pc, #104]	@ (80008ac <Reset_Handler+0x70>)
 8000844:	4b1a      	ldr	r3, [pc, #104]	@ (80008b0 <Reset_Handler+0x74>)
 8000846:	1ad3      	subs	r3, r2, r3
 8000848:	617b      	str	r3, [r7, #20]
    uint8_t *src        = (uint8_t *)&_etext;   /* flash LMA of .data    */
 800084a:	4b1a      	ldr	r3, [pc, #104]	@ (80008b4 <Reset_Handler+0x78>)
 800084c:	613b      	str	r3, [r7, #16]
    uint8_t *dest       = (uint8_t *)&_sdata;   /* SRAM  VMA of .data    */
 800084e:	4b18      	ldr	r3, [pc, #96]	@ (80008b0 <Reset_Handler+0x74>)
 8000850:	60fb      	str	r3, [r7, #12]

    for (uint32_t i = 0U; i < data_size; i++) {
 8000852:	2300      	movs	r3, #0
 8000854:	61fb      	str	r3, [r7, #28]
 8000856:	e00a      	b.n	800086e <Reset_Handler+0x32>
        dest[i] = src[i];
 8000858:	693a      	ldr	r2, [r7, #16]
 800085a:	69fb      	ldr	r3, [r7, #28]
 800085c:	441a      	add	r2, r3
 800085e:	68f9      	ldr	r1, [r7, #12]
 8000860:	69fb      	ldr	r3, [r7, #28]
 8000862:	440b      	add	r3, r1
 8000864:	7812      	ldrb	r2, [r2, #0]
 8000866:	701a      	strb	r2, [r3, #0]
    for (uint32_t i = 0U; i < data_size; i++) {
 8000868:	69fb      	ldr	r3, [r7, #28]
 800086a:	3301      	adds	r3, #1
 800086c:	61fb      	str	r3, [r7, #28]
 800086e:	69fa      	ldr	r2, [r7, #28]
 8000870:	697b      	ldr	r3, [r7, #20]
 8000872:	429a      	cmp	r2, r3
 8000874:	d3f0      	bcc.n	8000858 <Reset_Handler+0x1c>
     * Step 2 — Zero-initialise the .bss section.
     *
     * The C standard requires all objects with static storage duration
     * that have no explicit initialiser to be zero at program start.
     * ------------------------------------------------------------------ */
    uint32_t bss_size = (uint32_t)&_ebss - (uint32_t)&_sbss;
 8000876:	4a10      	ldr	r2, [pc, #64]	@ (80008b8 <Reset_Handler+0x7c>)
 8000878:	4b10      	ldr	r3, [pc, #64]	@ (80008bc <Reset_Handler+0x80>)
 800087a:	1ad3      	subs	r3, r2, r3
 800087c:	60bb      	str	r3, [r7, #8]
    uint8_t *bss       = (uint8_t *)&_sbss;
 800087e:	4b0f      	ldr	r3, [pc, #60]	@ (80008bc <Reset_Handler+0x80>)
 8000880:	607b      	str	r3, [r7, #4]

    for (uint32_t i = 0U; i < bss_size; i++) {
 8000882:	2300      	movs	r3, #0
 8000884:	61bb      	str	r3, [r7, #24]
 8000886:	e007      	b.n	8000898 <Reset_Handler+0x5c>
        bss[i] = 0U;
 8000888:	687a      	ldr	r2, [r7, #4]
 800088a:	69bb      	ldr	r3, [r7, #24]
 800088c:	4413      	add	r3, r2
 800088e:	2200      	movs	r2, #0
 8000890:	701a      	strb	r2, [r3, #0]
    for (uint32_t i = 0U; i < bss_size; i++) {
 8000892:	69bb      	ldr	r3, [r7, #24]
 8000894:	3301      	adds	r3, #1
 8000896:	61bb      	str	r3, [r7, #24]
 8000898:	69ba      	ldr	r2, [r7, #24]
 800089a:	68bb      	ldr	r3, [r7, #8]
 800089c:	429a      	cmp	r2, r3
 800089e:	d3f3      	bcc.n	8000888 <Reset_Handler+0x4c>
     * Step 3 — Hardware / clock initialisation hook.
     *
     * SystemInit() is a weak no-op here; override it to configure
     * clocks, FPU, and MPU before reaching main().
     * ------------------------------------------------------------------ */
    SystemInit();
 80008a0:	f7ff ffc4 	bl	800082c <SystemInit>
     *
     * On bare-metal, main() should never return.  If it does (e.g. in a
     * test harness), spin in Default_Handler instead of crashing into
     * undefined memory.
     * ------------------------------------------------------------------ */
    (void)main();
 80008a4:	f7ff fc92 	bl	80001cc <main>

    /* Unreachable on production firmware — trap if main() ever returns. */
    Default_Handler();
 80008a8:	f000 f80a 	bl	80008c0 <Default_Handler>
 80008ac:	20000000 			@ <UNDEFINED> instruction: 20000000
 80008b0:	20000000 			@ <UNDEFINED> instruction: 20000000
 80008b4:	080008c8 			@ <UNDEFINED> instruction: 080008c8
 80008b8:	20000004 			@ <UNDEFINED> instruction: 20000004
 80008bc:	20000000 			@ <UNDEFINED> instruction: 20000000

080008c0 <Default_Handler>:
 * Catch-all for any interrupt that has no application-defined handler.
 * In production: log the active IRQ from SCB->ICSR[8:0], record it in
 * a non-volatile fault register, then either reset or halt.
 * ========================================================================= */
void Default_Handler(void)
{
 80008c0:	b480      	push	{r7}
 80008c2:	af00      	add	r7, sp, #0
    /* Optional debug aid: set a breakpoint here in your debugger.
     * The IPSR register tells you which IRQ fired:
     *   volatile uint32_t ipsr = __get_IPSR();
     */
    for (;;) {
 80008c4:	bf00      	nop
 80008c6:	e7fd      	b.n	80008c4 <Default_Handler+0x4>

Disassembly of section .rodata:

080008c8 <UART4_TX_PA0-0x80>:
 80008c8:	00000a0d 			@ <UNDEFINED> instruction: 00000a0d
 80008cc:	3d3d3d3d 			@ <UNDEFINED> instruction: 3d3d3d3d
 80008d0:	3d3d3d3d 			@ <UNDEFINED> instruction: 3d3d3d3d
 80008d4:	3d3d3d3d 			@ <UNDEFINED> instruction: 3d3d3d3d
 80008d8:	3d3d3d3d 			@ <UNDEFINED> instruction: 3d3d3d3d
 80008dc:	3d3d3d3d 			@ <UNDEFINED> instruction: 3d3d3d3d
 80008e0:	3d3d3d3d 			@ <UNDEFINED> instruction: 3d3d3d3d
 80008e4:	3d3d3d3d 			@ <UNDEFINED> instruction: 3d3d3d3d
 80008e8:	3d3d3d3d 			@ <UNDEFINED> instruction: 3d3d3d3d
 80008ec:	3d3d3d3d 			@ <UNDEFINED> instruction: 3d3d3d3d
 80008f0:	00000a0d 			@ <UNDEFINED> instruction: 00000a0d
 80008f4:	54532020 			@ <UNDEFINED> instruction: 54532020
 80008f8:	4632334d 			@ <UNDEFINED> instruction: 4632334d
 80008fc:	20787834 			@ <UNDEFINED> instruction: 20787834
 8000900:	54524155 			@ <UNDEFINED> instruction: 54524155
 8000904:	65442034 			@ <UNDEFINED> instruction: 65442034
 8000908:	0a0d6f6d 			@ <UNDEFINED> instruction: 0a0d6f6d
 800090c:	00000000 			@ <UNDEFINED> instruction: 00000000
 8000910:	58542020 			@ <UNDEFINED> instruction: 58542020
 8000914:	3041503a 			@ <UNDEFINED> instruction: 3041503a
 8000918:	58522020 			@ <UNDEFINED> instruction: 58522020
 800091c:	3141503a 			@ <UNDEFINED> instruction: 3141503a
 8000920:	46412020 			@ <UNDEFINED> instruction: 46412020
 8000924:	31202038 			@ <UNDEFINED> instruction: 31202038
 8000928:	30323531 			@ <UNDEFINED> instruction: 30323531
 800092c:	4e382030 			@ <UNDEFINED> instruction: 4e382030
 8000930:	000a0d31 			@ <UNDEFINED> instruction: 000a0d31
 8000934:	6c6c6548 			@ <UNDEFINED> instruction: 6c6c6548
 8000938:	7266206f 			@ <UNDEFINED> instruction: 7266206f
 800093c:	55206d6f 			@ <UNDEFINED> instruction: 55206d6f
 8000940:	34545241 			@ <UNDEFINED> instruction: 34545241
 8000944:	000a0d21 			@ <UNDEFINED> instruction: 000a0d21

08000948 <UART4_TX_PA0>:
static const GPIO_Config_t UART4_TX_PA0 = {
 8000948:	40020000 			@ <UNDEFINED> instruction: 40020000
 800094c:	00000001 			@ <UNDEFINED> instruction: 00000001
 8000950:	00000200 			@ <UNDEFINED> instruction: 00000200
 8000954:	00000801 			@ <UNDEFINED> instruction: 00000801

08000958 <UART4_RX_PA1>:
static const GPIO_Config_t UART4_RX_PA1 = {
 8000958:	40020000 			@ <UNDEFINED> instruction: 40020000
 800095c:	00000001 			@ <UNDEFINED> instruction: 00000001
 8000960:	00000201 			@ <UNDEFINED> instruction: 00000201
 8000964:	00000801 			@ <UNDEFINED> instruction: 00000801

08000968 <UART4_Cfg>:
static const UART_Config_t UART4_Cfg = {
 8000968:	40004c00 			@ <UNDEFINED> instruction: 40004c00
 800096c:	40023840 			@ <UNDEFINED> instruction: 40023840
 8000970:	00080000 			@ <UNDEFINED> instruction: 00080000
 8000974:	00f42400 			@ <UNDEFINED> instruction: 00f42400
 8000978:	0001c200 			@ <UNDEFINED> instruction: 0001c200
 800097c:	02000000 			@ <UNDEFINED> instruction: 02000000
 8000980:	00000000 			@ <UNDEFINED> instruction: 00000000

Disassembly of section .debug_info:

00000000 <.debug_info>:
 * Restores: analog mode, push-pull, low speed, no pull-up/pull-down.
 * Does NOT gate the peripheral clock — other pins on the same port
 * may still be active.
 */
GPIO_Status_t GPIO_DeInit(const GPIO_Config_t *cfg)
{
       0:	00000355 			@ <UNDEFINED> instruction: 00000355
       4:	00000004 			@ <UNDEFINED> instruction: 00000004
    GPIO_Status_t status = gpio_validate_config(cfg);
       8:	01040000 			@ <UNDEFINED> instruction: 01040000
       c:	00004859 			@ <UNDEFINED> instruction: 00004859
      10:	00169c0c 			@ <UNDEFINED> instruction: 00169c0c
    if (status != GPIO_OK) {
      14:	0026f500 			@ <UNDEFINED> instruction: 0026f500
	...
    }

    volatile uint32_t *moder   =
        (volatile uint32_t *)((uintptr_t)cfg->port_base + GPIO_MODER_OFFSET);
    volatile uint32_t *otyper  =
        (volatile uint32_t *)((uintptr_t)cfg->port_base + GPIO_OTYPER_OFFSET);
      28:	06010200 			@ <UNDEFINED> instruction: 06010200
    volatile uint32_t *otyper  =
      2c:	0000042d 			@ <UNDEFINED> instruction: 0000042d
    volatile uint32_t *ospeedr =
        (volatile uint32_t *)((uintptr_t)cfg->port_base + GPIO_OSPEEDR_OFFSET);
      30:	0e050202 			@ <UNDEFINED> instruction: 0e050202
    volatile uint32_t *ospeedr =
      34:	02000005 			@ <UNDEFINED> instruction: 02000005
    volatile uint32_t *pupdr   =
        (volatile uint32_t *)((uintptr_t)cfg->port_base + GPIO_PUPDR_OFFSET);
      38:	46540504 			@ <UNDEFINED> instruction: 46540504
    volatile uint32_t *pupdr   =
      3c:	08020000 			@ <UNDEFINED> instruction: 08020000

    /* Analog mode (reset default for most pins) */
    gpio_set_2bit_field(moder,   cfg->pin, GPIO_MODER_MASK,   GPIO_MODER_ANALOG);
      40:	00321f05 			@ <UNDEFINED> instruction: 00321f05
      44:	13640300 			@ <UNDEFINED> instruction: 13640300
      48:	2e020000 			@ <UNDEFINED> instruction: 2e020000
    /* Low speed (reset default) */
    gpio_set_2bit_field(ospeedr, cfg->pin, GPIO_OSPEEDR_MASK, GPIO_OSPEEDR_LOW);
      4c:	00005118 			@ <UNDEFINED> instruction: 00005118
      50:	08010200 			@ <UNDEFINED> instruction: 08010200
      54:	00001eab 			@ <UNDEFINED> instruction: 00001eab
      58:	e1070202 			@ <UNDEFINED> instruction: e1070202
    /* No pull-up / pull-down */
    gpio_set_2bit_field(pupdr,   cfg->pin, GPIO_PUPDR_MASK,   GPIO_PUPDR_NONE);
      5c:	03000043 	movweq	r0, #67	@ 0x43
      60:	0000537c 			@ <UNDEFINED> instruction: 0000537c
      64:	70193402 			@ <UNDEFINED> instruction: 70193402
    /* Push-pull (reset default) */
    *otyper &= ~(1UL << cfg->pin);
      68:	04000000 			@ <UNDEFINED> instruction: 04000000
      6c:	0000005f 			@ <UNDEFINED> instruction: 0000005f
      70:	16070402 			@ <UNDEFINED> instruction: 16070402
      74:	02000011 			@ <UNDEFINED> instruction: 02000011
      78:	4bf60708 			@ <UNDEFINED> instruction: 4bf60708
      7c:	04050000 			@ <UNDEFINED> instruction: 04050000

    return GPIO_OK;
}
      80:	746e6905 			@ <UNDEFINED> instruction: 746e6905
      84:	07040200 			@ <UNDEFINED> instruction: 07040200
        return UART_ERR_OVERRUN;
      88:	00001564 			@ <UNDEFINED> instruction: 00001564
      8c:	ac040802 			@ <UNDEFINED> instruction: ac040802
    if (sr_snapshot & USART_SR_FE) {
      90:	0600003d 			@ <UNDEFINED> instruction: 0600003d
      94:	00290105 			@ <UNDEFINED> instruction: 00290105
        return UART_ERR_FRAMING;
      98:	93030000 	movwls	r0, #12288	@ 0x3000
      9c:	0000ba0e 			@ <UNDEFINED> instruction: 0000ba0e
}
      a0:	1ce40700 			@ <UNDEFINED> instruction: 1ce40700
      a4:	08000000 			@ <UNDEFINED> instruction: 08000000
      a8:	00004c24 			@ <UNDEFINED> instruction: 00004c24
      ac:	3cf3087f 			@ <UNDEFINED> instruction: 3cf3087f
      b0:	087e0000 			@ <UNDEFINED> instruction: 087e0000
      b4:	000017a3 			@ <UNDEFINED> instruction: 000017a3
      b8:	2a03007d 			@ <UNDEFINED> instruction: 2a03007d
      bc:	0300005a 	movweq	r0, #90	@ 0x5a
      c0:	00930398 			@ <UNDEFINED> instruction: 00930398
      c4:	07060000 			@ <UNDEFINED> instruction: 07060000
      c8:	00005101 			@ <UNDEFINED> instruction: 00005101
      cc:	0e9b0300 			@ <UNDEFINED> instruction: 0e9b0300
      d0:	000000e1 			@ <UNDEFINED> instruction: 000000e1
      d4:	0028c407 			@ <UNDEFINED> instruction: 0028c407
      d8:	c0070000 			@ <UNDEFINED> instruction: c0070000
      dc:	0100004e 			@ <UNDEFINED> instruction: 0100004e
      e0:	03100900 			@ <UNDEFINED> instruction: 03100900
      e4:	015f09a6 			@ <UNDEFINED> instruction: 015f09a6
      e8:	d20a0000 			@ <UNDEFINED> instruction: d20a0000
      ec:	0300002b 	movweq	r0, #43	@ 0x2b
      f0:	015f18a7 			@ <UNDEFINED> instruction: 015f18a7
      f4:	0a000000 			@ <UNDEFINED> instruction: 0a000000
      f8:	00003a35 			@ <UNDEFINED> instruction: 00003a35
      fc:	5f18a803 			@ <UNDEFINED> instruction: 5f18a803
     100:	04000000 			@ <UNDEFINED> instruction: 04000000
     104:	6e69700b 			@ <UNDEFINED> instruction: 6e69700b
     108:	18a90300 			@ <UNDEFINED> instruction: 18a90300
     10c:	00000045 			@ <UNDEFINED> instruction: 00000045
     110:	4d1e0a08 	vldrmi	s0, [lr, #-32]	@ 0xffffffe0
     114:	aa030000 			@ <UNDEFINED> instruction: aa030000
     118:	00004518 			@ <UNDEFINED> instruction: 00004518
     11c:	600a0900 			@ <UNDEFINED> instruction: 600a0900
     120:	03000006 	movweq	r0, #6
     124:	004518ab 			@ <UNDEFINED> instruction: 004518ab
     128:	0a0a0000 			@ <UNDEFINED> instruction: 0a0a0000
     12c:	00002225 			@ <UNDEFINED> instruction: 00002225
     130:	4518ac03 			@ <UNDEFINED> instruction: 4518ac03
     134:	0b000000 			@ <UNDEFINED> instruction: 0b000000
     138:	004ca70a 			@ <UNDEFINED> instruction: 004ca70a
     13c:	18ad0300 			@ <UNDEFINED> instruction: 18ad0300
     140:	00000045 			@ <UNDEFINED> instruction: 00000045
     144:	66610b0c 			@ <UNDEFINED> instruction: 66610b0c
     148:	18ae0300 			@ <UNDEFINED> instruction: 18ae0300
     14c:	00000045 			@ <UNDEFINED> instruction: 00000045
     150:	520a0a0d 			@ <UNDEFINED> instruction: 520a0a0d
     154:	af030000 			@ <UNDEFINED> instruction: af030000
     158:	00004518 			@ <UNDEFINED> instruction: 00004518
     15c:	0c000e00 			@ <UNDEFINED> instruction: 0c000e00
     160:	00006b04 			@ <UNDEFINED> instruction: 00006b04
     164:	53270300 			@ <UNDEFINED> instruction: 53270300
     168:	b0030000 			@ <UNDEFINED> instruction: b0030000
     16c:	0000e103 			@ <UNDEFINED> instruction: 0000e103
     170:	01650d00 			@ <UNDEFINED> instruction: 01650d00
     174:	05060000 			@ <UNDEFINED> instruction: 05060000
     178:	00002901 			@ <UNDEFINED> instruction: 00002901
     17c:	0ec30400 			@ <UNDEFINED> instruction: 0ec30400
     180:	000001c7 			@ <UNDEFINED> instruction: 000001c7
     184:	00570f07 			@ <UNDEFINED> instruction: 00570f07
     188:	8b080000 			@ <UNDEFINED> instruction: 8b080000
     18c:	7f000036 			@ <UNDEFINED> instruction: 7f000036
     190:	00498308 			@ <UNDEFINED> instruction: 00498308
     194:	da087e00 			@ <UNDEFINED> instruction: da087e00
     198:	7d000008 			@ <UNDEFINED> instruction: 7d000008
     19c:	0052c508 			@ <UNDEFINED> instruction: 0052c508
     1a0:	f6087c00 			@ <UNDEFINED> instruction: f6087c00
     1a4:	7b00004c 			@ <UNDEFINED> instruction: 7b00004c
     1a8:	0038cc08 			@ <UNDEFINED> instruction: 0038cc08
     1ac:	17087a00 			@ <UNDEFINED> instruction: 17087a00
     1b0:	79000057 			@ <UNDEFINED> instruction: 79000057
     1b4:	001b6408 			@ <UNDEFINED> instruction: 001b6408
     1b8:	61087800 			@ <UNDEFINED> instruction: 61087800
     1bc:	77000017 	smladvc	r0, r7, r0, r0
     1c0:	001f0b08 			@ <UNDEFINED> instruction: 001f0b08
     1c4:	03007600 	movweq	r7, #1536	@ 0x600
     1c8:	00004e4c 			@ <UNDEFINED> instruction: 00004e4c
     1cc:	7603cf04 			@ <UNDEFINED> instruction: 7603cf04
     1d0:	09000001 			@ <UNDEFINED> instruction: 09000001
     1d4:	09d7041c 			@ <UNDEFINED> instruction: 09d7041c
     1d8:	0000025f 			@ <UNDEFINED> instruction: 0000025f
     1dc:	001dcb0a 			@ <UNDEFINED> instruction: 001dcb0a
     1e0:	18d80400 			@ <UNDEFINED> instruction: 18d80400
     1e4:	0000015f 			@ <UNDEFINED> instruction: 0000015f
     1e8:	3a3d0a00 			@ <UNDEFINED> instruction: 3a3d0a00
     1ec:	d9040000 			@ <UNDEFINED> instruction: d9040000
     1f0:	00015f18 			@ <UNDEFINED> instruction: 00015f18
     1f4:	d60a0400 			@ <UNDEFINED> instruction: d60a0400
     1f8:	04000020 			@ <UNDEFINED> instruction: 04000020
     1fc:	005f18da 			@ <UNDEFINED> instruction: 005f18da
     200:	0a080000 			@ <UNDEFINED> instruction: 0a080000
     204:	00003365 			@ <UNDEFINED> instruction: 00003365
     208:	5f18db04 			@ <UNDEFINED> instruction: 5f18db04
     20c:	0c000000 			@ <UNDEFINED> instruction: 0c000000
     210:	00124f0a 			@ <UNDEFINED> instruction: 00124f0a
     214:	18dc0400 			@ <UNDEFINED> instruction: 18dc0400
     218:	0000005f 			@ <UNDEFINED> instruction: 0000005f
     21c:	3f410a10 			@ <UNDEFINED> instruction: 3f410a10
     220:	dd040000 			@ <UNDEFINED> instruction: dd040000
     224:	00004518 			@ <UNDEFINED> instruction: 00004518
     228:	ef0a1400 			@ <UNDEFINED> instruction: ef0a1400
     22c:	04000000 			@ <UNDEFINED> instruction: 04000000
     230:	004518de 	ldrdeq	r1, [r5], #-142	@ 0xffffff72
     234:	0a150000 			@ <UNDEFINED> instruction: 0a150000
     238:	0000591c 			@ <UNDEFINED> instruction: 0000591c
     23c:	4518df04 			@ <UNDEFINED> instruction: 4518df04
     240:	16000000 			@ <UNDEFINED> instruction: 16000000
     244:	004d1e0a 			@ <UNDEFINED> instruction: 004d1e0a
     248:	18e00400 			@ <UNDEFINED> instruction: 18e00400
     24c:	00000045 			@ <UNDEFINED> instruction: 00000045
     250:	31000a17 			@ <UNDEFINED> instruction: 31000a17
     254:	e1040000 			@ <UNDEFINED> instruction: e1040000
     258:	00004518 			@ <UNDEFINED> instruction: 00004518
     25c:	03001800 	movweq	r1, #2048	@ 0x800
     260:	000046ef 			@ <UNDEFINED> instruction: 000046ef
     264:	d303e204 	movwle	lr, #12804	@ 0x3204
     268:	0d000001 			@ <UNDEFINED> instruction: 0d000001
     26c:	0000025f 			@ <UNDEFINED> instruction: 0000025f
     270:	001c5c0e 			@ <UNDEFINED> instruction: 001c5c0e
     274:	1c520100 	mrrcne	1, 0, r0, r2, cr0
     278:	00000171 			@ <UNDEFINED> instruction: 00000171
     27c:	09480305 			@ <UNDEFINED> instruction: 09480305
     280:	070e0800 			@ <UNDEFINED> instruction: 070e0800
     284:	01000041 			@ <UNDEFINED> instruction: 01000041
     288:	01711c66 			@ <UNDEFINED> instruction: 01711c66
     28c:	03050000 	movweq	r0, #20480	@ 0x5000
     290:	08000958 			@ <UNDEFINED> instruction: 08000958
     294:	00569b0e 			@ <UNDEFINED> instruction: 00569b0e
     298:	1c790100 			@ <UNDEFINED> instruction: 1c790100
     29c:	0000026b 			@ <UNDEFINED> instruction: 0000026b
     2a0:	09680305 			@ <UNDEFINED> instruction: 09680305
     2a4:	dc0f0800 			@ <UNDEFINED> instruction: dc0f0800
     2a8:	05000022 			@ <UNDEFINED> instruction: 05000022
     2ac:	02b80ac4 			@ <UNDEFINED> instruction: 02b80ac4
     2b0:	5f100000 			@ <UNDEFINED> instruction: 5f100000
     2b4:	00000000 			@ <UNDEFINED> instruction: 00000000
     2b8:	0032c211 			@ <UNDEFINED> instruction: 0032c211
     2bc:	01390400 			@ <UNDEFINED> instruction: 01390400
     2c0:	0001c70f 			@ <UNDEFINED> instruction: 0001c70f
     2c4:	0002d400 			@ <UNDEFINED> instruction: 0002d400
     2c8:	02d41000 			@ <UNDEFINED> instruction: 02d41000
     2cc:	da100000 			@ <UNDEFINED> instruction: da100000
     2d0:	00000002 			@ <UNDEFINED> instruction: 00000002
     2d4:	026b040c 			@ <UNDEFINED> instruction: 026b040c
     2d8:	040c0000 			@ <UNDEFINED> instruction: 040c0000
     2dc:	000002e7 			@ <UNDEFINED> instruction: 000002e7
     2e0:	34080102 			@ <UNDEFINED> instruction: 34080102
     2e4:	0d000004 			@ <UNDEFINED> instruction: 0d000004
     2e8:	000002e0 			@ <UNDEFINED> instruction: 000002e0
     2ec:	00066612 			@ <UNDEFINED> instruction: 00066612
     2f0:	0ff70400 			@ <UNDEFINED> instruction: 0ff70400
     2f4:	000001c7 			@ <UNDEFINED> instruction: 000001c7
     2f8:	00000302 			@ <UNDEFINED> instruction: 00000302
     2fc:	0002d410 			@ <UNDEFINED> instruction: 0002d410
     300:	53120000 			@ <UNDEFINED> instruction: 53120000
     304:	03000040 	movweq	r0, #64	@ 0x40
     308:	00ba0fc0 			@ <UNDEFINED> instruction: 00ba0fc0
     30c:	03180000 			@ <UNDEFINED> instruction: 03180000
     310:	18100000 			@ <UNDEFINED> instruction: 18100000
     314:	00000003 			@ <UNDEFINED> instruction: 00000003
     318:	0171040c 			@ <UNDEFINED> instruction: 0171040c
     31c:	2b0f0000 			@ <UNDEFINED> instruction: 2b0f0000
     320:	0500003d 			@ <UNDEFINED> instruction: 0500003d
     324:	03300ac3 			@ <UNDEFINED> instruction: 03300ac3
     328:	5f100000 			@ <UNDEFINED> instruction: 5f100000
     32c:	00000000 			@ <UNDEFINED> instruction: 00000000
     330:	00100f13 			@ <UNDEFINED> instruction: 00100f13
     334:	05910100 			@ <UNDEFINED> instruction: 05910100
     338:	0000007e 			@ <UNDEFINED> instruction: 0000007e
     33c:	080001cc 			@ <UNDEFINED> instruction: 080001cc
     340:	0000009c 			@ <UNDEFINED> instruction: 0000009c
     344:	53149c01 			@ <UNDEFINED> instruction: 53149c01
     348:	0100001f 			@ <UNDEFINED> instruction: 0100001f
     34c:	01c40d89 			@ <UNDEFINED> instruction: 01c40d89
     350:	00080800 			@ <UNDEFINED> instruction: 00080800
     354:	9c010000 			@ <UNDEFINED> instruction: 9c010000
     358:	0004aa00 			@ <UNDEFINED> instruction: 0004aa00
     35c:	38000400 			@ <UNDEFINED> instruction: 38000400
     360:	04000001 			@ <UNDEFINED> instruction: 04000001
     364:	00485901 			@ <UNDEFINED> instruction: 00485901
     368:	5b760c00 			@ <UNDEFINED> instruction: 5b760c00
     36c:	26f50000 			@ <UNDEFINED> instruction: 26f50000
     370:	00180000 			@ <UNDEFINED> instruction: 00180000
     374:	00000000 			@ <UNDEFINED> instruction: 00000000
     378:	015b0000 			@ <UNDEFINED> instruction: 015b0000
     37c:	16650000 			@ <UNDEFINED> instruction: 16650000
     380:	01020000 			@ <UNDEFINED> instruction: 01020000
     384:	00042d06 			@ <UNDEFINED> instruction: 00042d06
     388:	05020200 			@ <UNDEFINED> instruction: 05020200
     38c:	0000050e 			@ <UNDEFINED> instruction: 0000050e
     390:	54050402 			@ <UNDEFINED> instruction: 54050402
     394:	02000046 			@ <UNDEFINED> instruction: 02000046
     398:	321f0508 			@ <UNDEFINED> instruction: 321f0508
     39c:	64030000 			@ <UNDEFINED> instruction: 64030000
     3a0:	02000013 			@ <UNDEFINED> instruction: 02000013
     3a4:	0051182e 			@ <UNDEFINED> instruction: 0051182e
     3a8:	01020000 			@ <UNDEFINED> instruction: 01020000
     3ac:	001eab08 			@ <UNDEFINED> instruction: 001eab08
     3b0:	07020200 			@ <UNDEFINED> instruction: 07020200
     3b4:	000043e1 			@ <UNDEFINED> instruction: 000043e1
     3b8:	00537c03 			@ <UNDEFINED> instruction: 00537c03
     3bc:	19340200 			@ <UNDEFINED> instruction: 19340200
     3c0:	00000070 			@ <UNDEFINED> instruction: 00000070
     3c4:	00005f04 			@ <UNDEFINED> instruction: 00005f04
     3c8:	07040200 			@ <UNDEFINED> instruction: 07040200
     3cc:	00001116 			@ <UNDEFINED> instruction: 00001116
     3d0:	f6070802 			@ <UNDEFINED> instruction: f6070802
     3d4:	0500004b 			@ <UNDEFINED> instruction: 0500004b
     3d8:	6e690504 			@ <UNDEFINED> instruction: 6e690504
     3dc:	04020074 			@ <UNDEFINED> instruction: 04020074
     3e0:	00156407 			@ <UNDEFINED> instruction: 00156407
     3e4:	5ba10300 			@ <UNDEFINED> instruction: 5ba10300
     3e8:	56020000 			@ <UNDEFINED> instruction: 56020000
     3ec:	0000851a 			@ <UNDEFINED> instruction: 0000851a
     3f0:	04080200 			@ <UNDEFINED> instruction: 04080200
     3f4:	00003dac 			@ <UNDEFINED> instruction: 00003dac
     3f8:	29010506 			@ <UNDEFINED> instruction: 29010506
     3fc:	03000000 	movweq	r0, #0
     400:	00c60e93 			@ <UNDEFINED> instruction: 00c60e93
     404:	e4070000 			@ <UNDEFINED> instruction: e4070000
     408:	0000001c 			@ <UNDEFINED> instruction: 0000001c
     40c:	004c2408 			@ <UNDEFINED> instruction: 004c2408
     410:	f3087f00 	vpmax.f32	d7, d8, d0
     414:	7e00003c 			@ <UNDEFINED> instruction: 7e00003c
     418:	0017a308 			@ <UNDEFINED> instruction: 0017a308
     41c:	03007d00 	movweq	r7, #3328	@ 0xd00
     420:	00005a2a 			@ <UNDEFINED> instruction: 00005a2a
     424:	9f039803 			@ <UNDEFINED> instruction: 9f039803
     428:	06000000 			@ <UNDEFINED> instruction: 06000000
     42c:	00510107 			@ <UNDEFINED> instruction: 00510107
     430:	9b030000 			@ <UNDEFINED> instruction: 9b030000
     434:	0000ed0e 			@ <UNDEFINED> instruction: 0000ed0e
     438:	28c40700 			@ <UNDEFINED> instruction: 28c40700
     43c:	07000000 			@ <UNDEFINED> instruction: 07000000
     440:	00004ec0 			@ <UNDEFINED> instruction: 00004ec0
     444:	24030001 			@ <UNDEFINED> instruction: 24030001
     448:	0300005b 	movweq	r0, #91	@ 0x5b
     44c:	00d2039e 			@ <UNDEFINED> instruction: 00d2039e
     450:	10090000 			@ <UNDEFINED> instruction: 10090000
     454:	7709a603 			@ <UNDEFINED> instruction: 7709a603
     458:	0a000001 			@ <UNDEFINED> instruction: 0a000001
     45c:	00002bd2 	ldrdeq	r2, [r0], -r2	@ <UNPREDICTABLE>
     460:	7718a703 			@ <UNDEFINED> instruction: 7718a703
     464:	00000001 			@ <UNDEFINED> instruction: 00000001
     468:	003a350a 			@ <UNDEFINED> instruction: 003a350a
     46c:	18a80300 			@ <UNDEFINED> instruction: 18a80300
     470:	0000005f 			@ <UNDEFINED> instruction: 0000005f
     474:	69700b04 			@ <UNDEFINED> instruction: 69700b04
     478:	a903006e 			@ <UNDEFINED> instruction: a903006e
     47c:	00004518 			@ <UNDEFINED> instruction: 00004518
     480:	1e0a0800 			@ <UNDEFINED> instruction: 1e0a0800
     484:	0300004d 	movweq	r0, #77	@ 0x4d
     488:	004518aa 			@ <UNDEFINED> instruction: 004518aa
     48c:	0a090000 			@ <UNDEFINED> instruction: 0a090000
     490:	00000660 			@ <UNDEFINED> instruction: 00000660
     494:	4518ab03 			@ <UNDEFINED> instruction: 4518ab03
     498:	0a000000 			@ <UNDEFINED> instruction: 0a000000
     49c:	0022250a 			@ <UNDEFINED> instruction: 0022250a
     4a0:	18ac0300 			@ <UNDEFINED> instruction: 18ac0300
     4a4:	00000045 			@ <UNDEFINED> instruction: 00000045
     4a8:	4ca70a0b 	vstmiami	r7!, {s0-s10}
     4ac:	ad030000 			@ <UNDEFINED> instruction: ad030000
     4b0:	00004518 			@ <UNDEFINED> instruction: 00004518
     4b4:	610b0c00 			@ <UNDEFINED> instruction: 610b0c00
     4b8:	ae030066 			@ <UNDEFINED> instruction: ae030066
     4bc:	00004518 			@ <UNDEFINED> instruction: 00004518
     4c0:	0a0a0d00 			@ <UNDEFINED> instruction: 0a0a0d00
     4c4:	03000052 	movweq	r0, #82	@ 0x52
     4c8:	004518af 			@ <UNDEFINED> instruction: 004518af
     4cc:	000e0000 			@ <UNDEFINED> instruction: 000e0000
     4d0:	006b040c 			@ <UNDEFINED> instruction: 006b040c
     4d4:	27030000 			@ <UNDEFINED> instruction: 27030000
     4d8:	03000053 	movweq	r0, #83	@ 0x53
     4dc:	00f903b0 	ldrhteq	r0, [r9], #48	@ 0x30
     4e0:	7d0d0000 			@ <UNDEFINED> instruction: 7d0d0000
     4e4:	0e000001 			@ <UNDEFINED> instruction: 0e000001
     4e8:	00005bdc 	ldrdeq	r5, [r0], -ip
     4ec:	c60ffa01 			@ <UNDEFINED> instruction: c60ffa01
     4f0:	00000000 			@ <UNDEFINED> instruction: 00000000
     4f4:	88000000 			@ <UNDEFINED> instruction: 88000000
     4f8:	01000000 			@ <UNDEFINED> instruction: 01000000
     4fc:	0002079c 			@ <UNDEFINED> instruction: 0002079c
     500:	66630f00 			@ <UNDEFINED> instruction: 66630f00
     504:	fa010067 	blx	406a8 <_Min_Stack_Size+0x3fea8>
     508:	00020730 			@ <UNDEFINED> instruction: 00020730
     50c:	5c910200 			@ <UNDEFINED> instruction: 5c910200
     510:	005b9310 			@ <UNDEFINED> instruction: 005b9310
     514:	13fc0100 			@ <UNDEFINED> instruction: 13fc0100
     518:	000000c6 			@ <UNDEFINED> instruction: 000000c6
     51c:	11779102 			@ <UNDEFINED> instruction: 11779102
     520:	00005b70 			@ <UNDEFINED> instruction: 00005b70
     524:	18010101 			@ <UNDEFINED> instruction: 18010101
     528:	00000177 			@ <UNDEFINED> instruction: 00000177
     52c:	11709102 			@ <UNDEFINED> instruction: 11709102
     530:	00005b9a 			@ <UNDEFINED> instruction: 00005b9a
     534:	18010301 			@ <UNDEFINED> instruction: 18010301
     538:	00000177 			@ <UNDEFINED> instruction: 00000177
     53c:	116c9102 			@ <UNDEFINED> instruction: 116c9102
     540:	00005b8b 			@ <UNDEFINED> instruction: 00005b8b
     544:	18010501 			@ <UNDEFINED> instruction: 18010501
     548:	00000177 			@ <UNDEFINED> instruction: 00000177
     54c:	11689102 			@ <UNDEFINED> instruction: 11689102
     550:	00005b64 			@ <UNDEFINED> instruction: 00005b64
     554:	18010701 			@ <UNDEFINED> instruction: 18010701
     558:	00000177 			@ <UNDEFINED> instruction: 00000177
     55c:	00649102 			@ <UNDEFINED> instruction: 00649102
     560:	0189040c 			@ <UNDEFINED> instruction: 0189040c
     564:	fc0e0000 	stc2	0, cr0, [lr], {-0}
     568:	0100005b 	qaddeq	r0, fp, r0
     56c:	00c60fdd 	ldrdeq	r0, [r6], #253	@ 0xfd
     570:	00000000 			@ <UNDEFINED> instruction: 00000000
     574:	006c0000 			@ <UNDEFINED> instruction: 006c0000
     578:	9c010000 			@ <UNDEFINED> instruction: 9c010000
     57c:	00000264 			@ <UNDEFINED> instruction: 00000264
     580:	6766630f 			@ <UNDEFINED> instruction: 6766630f
     584:	33dd0100 			@ <UNDEFINED> instruction: 33dd0100
     588:	00000207 			@ <UNDEFINED> instruction: 00000207
     58c:	10649102 			@ <UNDEFINED> instruction: 10649102
     590:	00005b93 			@ <UNDEFINED> instruction: 00005b93
     594:	c613df01 			@ <UNDEFINED> instruction: c613df01
     598:	02000000 			@ <UNDEFINED> instruction: 02000000
     59c:	69127791 			@ <UNDEFINED> instruction: 69127791
     5a0:	01007264 			@ <UNDEFINED> instruction: 01007264
     5a4:	017718e4 			@ <UNDEFINED> instruction: 017718e4
     5a8:	91020000 			@ <UNDEFINED> instruction: 91020000
     5ac:	5bbe1070 			@ <UNDEFINED> instruction: 5bbe1070
     5b0:	e6010000 			@ <UNDEFINED> instruction: e6010000
     5b4:	00017718 			@ <UNDEFINED> instruction: 00017718
     5b8:	6c910200 			@ <UNDEFINED> instruction: 6c910200
     5bc:	5bc30e00 			@ <UNDEFINED> instruction: 5bc30e00
     5c0:	c3010000 	movwgt	r0, #4096	@ 0x1000
     5c4:	0000c60f 			@ <UNDEFINED> instruction: 0000c60f
     5c8:	00000000 			@ <UNDEFINED> instruction: 00000000
     5cc:	00005e00 			@ <UNDEFINED> instruction: 00005e00
     5d0:	bb9c0100 			@ <UNDEFINED> instruction: bb9c0100
     5d4:	0f000002 			@ <UNDEFINED> instruction: 0f000002
     5d8:	00676663 			@ <UNDEFINED> instruction: 00676663
     5dc:	0731c301 			@ <UNDEFINED> instruction: 0731c301
     5e0:	02000002 			@ <UNDEFINED> instruction: 02000002
     5e4:	0f136c91 			@ <UNDEFINED> instruction: 0f136c91
     5e8:	01000052 	qaddeq	r0, r2, r0
     5ec:	02bb47c3 			@ <UNDEFINED> instruction: 02bb47c3
     5f0:	91020000 			@ <UNDEFINED> instruction: 91020000
     5f4:	5b931068 			@ <UNDEFINED> instruction: 5b931068
     5f8:	c9010000 			@ <UNDEFINED> instruction: c9010000
     5fc:	0000c613 			@ <UNDEFINED> instruction: 0000c613
     600:	77910200 			@ <UNDEFINED> instruction: 77910200
     604:	72646912 			@ <UNDEFINED> instruction: 72646912
     608:	18ce0100 			@ <UNDEFINED> instruction: 18ce0100
     60c:	00000177 			@ <UNDEFINED> instruction: 00000177
     610:	00709102 			@ <UNDEFINED> instruction: 00709102
     614:	00ed040c 			@ <UNDEFINED> instruction: 00ed040c
     618:	ab0e0000 			@ <UNDEFINED> instruction: ab0e0000
     61c:	0100005b 	qaddeq	r0, fp, r0
     620:	00c60fab 			@ <UNDEFINED> instruction: 00c60fab
     624:	00000000 			@ <UNDEFINED> instruction: 00000000
     628:	005c0000 			@ <UNDEFINED> instruction: 005c0000
     62c:	9c010000 			@ <UNDEFINED> instruction: 9c010000
     630:	00000318 			@ <UNDEFINED> instruction: 00000318
     634:	6766630f 			@ <UNDEFINED> instruction: 6766630f
     638:	32ab0100 			@ <UNDEFINED> instruction: 32ab0100
     63c:	00000207 			@ <UNDEFINED> instruction: 00000207
     640:	136c9102 			@ <UNDEFINED> instruction: 136c9102
     644:	0000520f 			@ <UNDEFINED> instruction: 0000520f
     648:	ed47ab01 	vstr	d26, [r7, #-4]
     64c:	02000000 			@ <UNDEFINED> instruction: 02000000
     650:	93106b91 			@ <UNDEFINED> instruction: 93106b91
     654:	0100005b 	qaddeq	r0, fp, r0
     658:	00c613ad 			@ <UNDEFINED> instruction: 00c613ad
     65c:	91020000 			@ <UNDEFINED> instruction: 91020000
     660:	5bbe1077 			@ <UNDEFINED> instruction: 5bbe1077
     664:	b2010000 			@ <UNDEFINED> instruction: b2010000
     668:	00017718 			@ <UNDEFINED> instruction: 00017718
     66c:	70910200 			@ <UNDEFINED> instruction: 70910200
     670:	40530e00 			@ <UNDEFINED> instruction: 40530e00
     674:	6c010000 			@ <UNDEFINED> instruction: 6c010000
     678:	0000c60f 			@ <UNDEFINED> instruction: 0000c60f
     67c:	00038400 			@ <UNDEFINED> instruction: 00038400
     680:	00011408 			@ <UNDEFINED> instruction: 00011408
     684:	a69c0100 			@ <UNDEFINED> instruction: a69c0100
     688:	0f000003 			@ <UNDEFINED> instruction: 0f000003
     68c:	00676663 			@ <UNDEFINED> instruction: 00676663
     690:	072e6c01 			@ <UNDEFINED> instruction: 072e6c01
     694:	02000002 			@ <UNDEFINED> instruction: 02000002
     698:	93105c91 			@ <UNDEFINED> instruction: 93105c91
     69c:	0100005b 	qaddeq	r0, fp, r0
     6a0:	00c6136e 			@ <UNDEFINED> instruction: 00c6136e
     6a4:	91020000 			@ <UNDEFINED> instruction: 91020000
     6a8:	5b9a1077 			@ <UNDEFINED> instruction: 5b9a1077
     6ac:	86010000 			@ <UNDEFINED> instruction: 86010000
     6b0:	00017718 			@ <UNDEFINED> instruction: 00017718
     6b4:	6c910200 			@ <UNDEFINED> instruction: 6c910200
     6b8:	005b8b10 			@ <UNDEFINED> instruction: 005b8b10
     6bc:	188f0100 			@ <UNDEFINED> instruction: 188f0100
     6c0:	00000177 			@ <UNDEFINED> instruction: 00000177
     6c4:	10689102 			@ <UNDEFINED> instruction: 10689102
     6c8:	00005b64 			@ <UNDEFINED> instruction: 00005b64
     6cc:	77189401 			@ <UNDEFINED> instruction: 77189401
     6d0:	02000001 			@ <UNDEFINED> instruction: 02000001
     6d4:	70106491 			@ <UNDEFINED> instruction: 70106491
     6d8:	0100005b 	qaddeq	r0, fp, r0
     6dc:	0177189e 			@ <UNDEFINED> instruction: 0177189e
     6e0:	91020000 			@ <UNDEFINED> instruction: 91020000
     6e4:	03be1460 			@ <UNDEFINED> instruction: 03be1460
     6e8:	00300800 			@ <UNDEFINED> instruction: 00300800
     6ec:	be100000 			@ <UNDEFINED> instruction: be100000
     6f0:	0100005b 	qaddeq	r0, fp, r0
     6f4:	01771c7b 			@ <UNDEFINED> instruction: 01771c7b
     6f8:	91020000 			@ <UNDEFINED> instruction: 91020000
     6fc:	15000070 			@ <UNDEFINED> instruction: 15000070
     700:	00005bd0 	ldrdeq	r5, [r0], -r0
     704:	200d4d01 			@ <UNDEFINED> instruction: 200d4d01
     708:	62080003 			@ <UNDEFINED> instruction: 62080003
     70c:	01000000 			@ <UNDEFINED> instruction: 01000000
     710:	0004259c 			@ <UNDEFINED> instruction: 0004259c
     714:	2bd21300 			@ <UNDEFINED> instruction: 2bd21300
     718:	4d010000 			@ <UNDEFINED> instruction: 4d010000
     71c:	0001772c 			@ <UNDEFINED> instruction: 0001772c
     720:	64910200 			@ <UNDEFINED> instruction: 64910200
     724:	6e69700f 			@ <UNDEFINED> instruction: 6e69700f
     728:	2c4e0100 	mcrrcs	1, 0, r0, lr, cr0
     72c:	00000045 			@ <UNDEFINED> instruction: 00000045
     730:	0f639102 			@ <UNDEFINED> instruction: 0f639102
     734:	01006661 			@ <UNDEFINED> instruction: 01006661
     738:	00452c4f 			@ <UNDEFINED> instruction: 00452c4f
     73c:	91020000 			@ <UNDEFINED> instruction: 91020000
     740:	5b3e1062 			@ <UNDEFINED> instruction: 5b3e1062
     744:	51010000 			@ <UNDEFINED> instruction: 51010000
     748:	00005f0e 			@ <UNDEFINED> instruction: 00005f0e
     74c:	74910200 			@ <UNDEFINED> instruction: 74910200
     750:	005b3410 			@ <UNDEFINED> instruction: 005b3410
     754:	0e520100 			@ <UNDEFINED> instruction: 0e520100
     758:	0000005f 			@ <UNDEFINED> instruction: 0000005f
     75c:	10709102 			@ <UNDEFINED> instruction: 10709102
     760:	00005b49 			@ <UNDEFINED> instruction: 00005b49
     764:	5f0e5301 			@ <UNDEFINED> instruction: 5f0e5301
     768:	02000000 			@ <UNDEFINED> instruction: 02000000
     76c:	61126c91 			@ <UNDEFINED> instruction: 61126c91
     770:	01007266 			@ <UNDEFINED> instruction: 01007266
     774:	01771855 			@ <UNDEFINED> instruction: 01771855
     778:	91020000 			@ <UNDEFINED> instruction: 91020000
     77c:	e8150068 			@ <UNDEFINED> instruction: e8150068
     780:	0100005b 	qaddeq	r0, fp, r0
     784:	02dc0d3a 			@ <UNDEFINED> instruction: 02dc0d3a
     788:	00440800 			@ <UNDEFINED> instruction: 00440800
     78c:	9c010000 			@ <UNDEFINED> instruction: 9c010000
     790:	00000487 			@ <UNDEFINED> instruction: 00000487
     794:	6765720f 			@ <UNDEFINED> instruction: 6765720f
     798:	343a0100 			@ <UNDEFINED> instruction: 343a0100
     79c:	00000177 			@ <UNDEFINED> instruction: 00000177
     7a0:	0f6c9102 			@ <UNDEFINED> instruction: 0f6c9102
     7a4:	006e6970 			@ <UNDEFINED> instruction: 006e6970
     7a8:	45343b01 			@ <UNDEFINED> instruction: 45343b01
     7ac:	02000000 			@ <UNDEFINED> instruction: 02000000
     7b0:	b9136b91 			@ <UNDEFINED> instruction: b9136b91
     7b4:	0100005b 	qaddeq	r0, fp, r0
     7b8:	005f343c 			@ <UNDEFINED> instruction: 005f343c
     7bc:	91020000 			@ <UNDEFINED> instruction: 91020000
     7c0:	5b6a1364 			@ <UNDEFINED> instruction: 5b6a1364
     7c4:	3d010000 			@ <UNDEFINED> instruction: 3d010000
     7c8:	00005f34 			@ <UNDEFINED> instruction: 00005f34
     7cc:	60910200 			@ <UNDEFINED> instruction: 60910200
     7d0:	005b4910 			@ <UNDEFINED> instruction: 005b4910
     7d4:	0e3f0100 			@ <UNDEFINED> instruction: 0e3f0100
     7d8:	0000005f 			@ <UNDEFINED> instruction: 0000005f
     7dc:	00749102 			@ <UNDEFINED> instruction: 00749102
     7e0:	005b4f16 			@ <UNDEFINED> instruction: 005b4f16
     7e4:	161b0100 			@ <UNDEFINED> instruction: 161b0100
     7e8:	000000c6 			@ <UNDEFINED> instruction: 000000c6
     7ec:	08000268 			@ <UNDEFINED> instruction: 08000268
     7f0:	00000074 			@ <UNDEFINED> instruction: 00000074
     7f4:	630f9c01 	movwvs	r9, #64513	@ 0xfc01
     7f8:	01006766 			@ <UNDEFINED> instruction: 01006766
     7fc:	0207401b 			@ <UNDEFINED> instruction: 0207401b
     800:	91020000 			@ <UNDEFINED> instruction: 91020000
     804:	96000074 			@ <UNDEFINED> instruction: 96000074
     808:	04000002 			@ <UNDEFINED> instruction: 04000002
     80c:	00029100 			@ <UNDEFINED> instruction: 00029100
     810:	59010400 			@ <UNDEFINED> instruction: 59010400
     814:	0c000048 			@ <UNDEFINED> instruction: 0c000048
     818:	00005c45 			@ <UNDEFINED> instruction: 00005c45
     81c:	000026f5 	strdeq	r2, [r0], -r5
     820:	00000060 			@ <UNDEFINED> instruction: 00000060
     824:	00000000 			@ <UNDEFINED> instruction: 00000000
     828:	00000533 			@ <UNDEFINED> instruction: 00000533
     82c:	000016aa 			@ <UNDEFINED> instruction: 000016aa
     830:	2d060102 			@ <UNDEFINED> instruction: 2d060102
     834:	02000004 			@ <UNDEFINED> instruction: 02000004
     838:	050e0502 			@ <UNDEFINED> instruction: 050e0502
     83c:	04020000 			@ <UNDEFINED> instruction: 04020000
     840:	00465405 			@ <UNDEFINED> instruction: 00465405
     844:	05080200 			@ <UNDEFINED> instruction: 05080200
     848:	0000321f 			@ <UNDEFINED> instruction: 0000321f
     84c:	ab080102 			@ <UNDEFINED> instruction: ab080102
     850:	0200001e 			@ <UNDEFINED> instruction: 0200001e
     854:	43e10702 			@ <UNDEFINED> instruction: 43e10702
     858:	7c030000 			@ <UNDEFINED> instruction: 7c030000
     85c:	02000053 			@ <UNDEFINED> instruction: 02000053
     860:	00641934 			@ <UNDEFINED> instruction: 00641934
     864:	53040000 	movwpl	r0, #16384	@ 0x4000
     868:	02000000 			@ <UNDEFINED> instruction: 02000000
     86c:	11160704 			@ <UNDEFINED> instruction: 11160704
     870:	08020000 			@ <UNDEFINED> instruction: 08020000
     874:	004bf607 			@ <UNDEFINED> instruction: 004bf607
     878:	05040500 			@ <UNDEFINED> instruction: 05040500
     87c:	00746e69 			@ <UNDEFINED> instruction: 00746e69
     880:	64070402 			@ <UNDEFINED> instruction: 64070402
     884:	06000015 			@ <UNDEFINED> instruction: 06000015
     888:	00005d52 			@ <UNDEFINED> instruction: 00005d52
     88c:	5f1a1601 			@ <UNDEFINED> instruction: 5f1a1601
     890:	05000000 			@ <UNDEFINED> instruction: 05000000
     894:	00000003 			@ <UNDEFINED> instruction: 00000003
     898:	5cb50720 			@ <UNDEFINED> instruction: 5cb50720
     89c:	d6010000 			@ <UNDEFINED> instruction: d6010000
     8a0:	00051c1c 			@ <UNDEFINED> instruction: 00051c1c
     8a4:	00001c08 			@ <UNDEFINED> instruction: 00001c08
     8a8:	089c0100 			@ <UNDEFINED> instruction: 089c0100
     8ac:	00005d08 			@ <UNDEFINED> instruction: 00005d08
     8b0:	530aca01 	movwpl	ip, #43521	@ 0xaa01
     8b4:	00000000 			@ <UNDEFINED> instruction: 00000000
     8b8:	18000000 			@ <UNDEFINED> instruction: 18000000
     8bc:	01000000 			@ <UNDEFINED> instruction: 01000000
     8c0:	22dc099c 			@ <UNDEFINED> instruction: 22dc099c
     8c4:	b7010000 			@ <UNDEFINED> instruction: b7010000
     8c8:	0004e806 			@ <UNDEFINED> instruction: 0004e806
     8cc:	00003408 			@ <UNDEFINED> instruction: 00003408
     8d0:	fd9c0100 	ldc2	1, cr0, [ip]
     8d4:	0a000000 			@ <UNDEFINED> instruction: 0a000000
     8d8:	0100736d 			@ <UNDEFINED> instruction: 0100736d
     8dc:	00531fb7 			@ <UNDEFINED> instruction: 00531fb7
     8e0:	91020000 			@ <UNDEFINED> instruction: 91020000
     8e4:	5d18066c 			@ <UNDEFINED> instruction: 5d18066c
     8e8:	be010000 			@ <UNDEFINED> instruction: be010000
     8ec:	0000530e 			@ <UNDEFINED> instruction: 0000530e
     8f0:	74910200 			@ <UNDEFINED> instruction: 74910200
     8f4:	005c8106 			@ <UNDEFINED> instruction: 005c8106
     8f8:	0ebf0100 			@ <UNDEFINED> instruction: 0ebf0100
     8fc:	00000053 			@ <UNDEFINED> instruction: 00000053
     900:	00709102 			@ <UNDEFINED> instruction: 00709102
     904:	003d2b09 			@ <UNDEFINED> instruction: 003d2b09
     908:	06a10100 			@ <UNDEFINED> instruction: 06a10100
     90c:	08000498 			@ <UNDEFINED> instruction: 08000498
     910:	00000050 			@ <UNDEFINED> instruction: 00000050
     914:	01329c01 			@ <UNDEFINED> instruction: 01329c01
     918:	d20b0000 			@ <UNDEFINED> instruction: d20b0000
     91c:	0100005c 	qaddeq	r0, ip, r0
     920:	00531ca1 			@ <UNDEFINED> instruction: 00531ca1
     924:	91020000 			@ <UNDEFINED> instruction: 91020000
     928:	5c29066c 			@ <UNDEFINED> instruction: 5c29066c
     92c:	a3010000 	movwge	r0, #4096	@ 0x1000
     930:	0000530e 			@ <UNDEFINED> instruction: 0000530e
     934:	74910200 			@ <UNDEFINED> instruction: 74910200
     938:	5c890800 			@ <UNDEFINED> instruction: 5c890800
     93c:	8f010000 			@ <UNDEFINED> instruction: 8f010000
     940:	0000530a 			@ <UNDEFINED> instruction: 0000530a
     944:	00000000 			@ <UNDEFINED> instruction: 00000000
     948:	00001c00 			@ <UNDEFINED> instruction: 00001c00
     94c:	0c9c0100 			@ <UNDEFINED> instruction: 0c9c0100
     950:	00005c9f 			@ <UNDEFINED> instruction: 00005c9f
     954:	530a8101 	movwpl	r8, #41217	@ 0xa101
     958:	00000000 			@ <UNDEFINED> instruction: 00000000
     95c:	40000000 			@ <UNDEFINED> instruction: 40000000
     960:	01000000 			@ <UNDEFINED> instruction: 01000000
     964:	0001809c 			@ <UNDEFINED> instruction: 0001809c
     968:	77730a00 			@ <UNDEFINED> instruction: 77730a00
     96c:	29810100 			@ <UNDEFINED> instruction: 29810100
     970:	00000053 			@ <UNDEFINED> instruction: 00000053
     974:	0d6c9102 			@ <UNDEFINED> instruction: 0d6c9102
     978:	00676572 			@ <UNDEFINED> instruction: 00676572
     97c:	530e8301 	movwpl	r8, #58113	@ 0xe301
     980:	02000000 			@ <UNDEFINED> instruction: 02000000
     984:	09007491 			@ <UNDEFINED> instruction: 09007491
     988:	00005c30 			@ <UNDEFINED> instruction: 00005c30
     98c:	00067601 			@ <UNDEFINED> instruction: 00067601
     990:	28000000 			@ <UNDEFINED> instruction: 28000000
     994:	01000000 			@ <UNDEFINED> instruction: 01000000
     998:	0001a69c 			@ <UNDEFINED> instruction: 0001a69c
     99c:	5cee0b00 	vstmiapl	lr!, {d16-d15}
     9a0:	76010000 			@ <UNDEFINED> instruction: 76010000
     9a4:	00005324 			@ <UNDEFINED> instruction: 00005324
     9a8:	74910200 			@ <UNDEFINED> instruction: 74910200
     9ac:	5c6d0900 			@ <UNDEFINED> instruction: 5c6d0900
     9b0:	6a010000 			@ <UNDEFINED> instruction: 6a010000
     9b4:	00000006 			@ <UNDEFINED> instruction: 00000006
     9b8:	00002c00 			@ <UNDEFINED> instruction: 00002c00
     9bc:	cc9c0100 			@ <UNDEFINED> instruction: cc9c0100
     9c0:	0b000001 			@ <UNDEFINED> instruction: 0b000001
     9c4:	00005cee 			@ <UNDEFINED> instruction: 00005cee
     9c8:	53236a01 			@ <UNDEFINED> instruction: 53236a01
     9cc:	02000000 			@ <UNDEFINED> instruction: 02000000
     9d0:	09007491 			@ <UNDEFINED> instruction: 09007491
     9d4:	00005cd9 	ldrdeq	r5, [r0], -r9
     9d8:	00066001 			@ <UNDEFINED> instruction: 00066001
     9dc:	28000000 			@ <UNDEFINED> instruction: 28000000
     9e0:	01000000 			@ <UNDEFINED> instruction: 01000000
     9e4:	0001f29c 			@ <UNDEFINED> instruction: 0001f29c
     9e8:	5c200b00 			@ <UNDEFINED> instruction: 5c200b00
     9ec:	60010000 			@ <UNDEFINED> instruction: 60010000
     9f0:	00005324 			@ <UNDEFINED> instruction: 00005324
     9f4:	74910200 			@ <UNDEFINED> instruction: 74910200
     9f8:	5d5c0900 			@ <UNDEFINED> instruction: 5d5c0900
     9fc:	54010000 			@ <UNDEFINED> instruction: 54010000
     a00:	00000006 			@ <UNDEFINED> instruction: 00000006
     a04:	00002c00 			@ <UNDEFINED> instruction: 00002c00
     a08:	189c0100 			@ <UNDEFINED> instruction: 189c0100
     a0c:	0b000002 			@ <UNDEFINED> instruction: 0b000002
     a10:	00005c20 			@ <UNDEFINED> instruction: 00005c20
     a14:	53235401 			@ <UNDEFINED> instruction: 53235401
     a18:	02000000 			@ <UNDEFINED> instruction: 02000000
     a1c:	09007491 			@ <UNDEFINED> instruction: 09007491
     a20:	00005c0b 			@ <UNDEFINED> instruction: 00005c0b
     a24:	00064a01 			@ <UNDEFINED> instruction: 00064a01
     a28:	28000000 			@ <UNDEFINED> instruction: 28000000
     a2c:	01000000 			@ <UNDEFINED> instruction: 01000000
     a30:	00023e9c 			@ <UNDEFINED> instruction: 00023e9c
     a34:	5cff0b00 	vldmiapl	pc!, {d16-d15}
     a38:	4a010000 			@ <UNDEFINED> instruction: 4a010000
     a3c:	00005324 			@ <UNDEFINED> instruction: 00005324
     a40:	74910200 			@ <UNDEFINED> instruction: 74910200
     a44:	5c590900 	mrrcpl	9, 0, r0, r9, cr0	@ <UNPREDICTABLE>
     a48:	3e010000 			@ <UNDEFINED> instruction: 3e010000
     a4c:	00000006 			@ <UNDEFINED> instruction: 00000006
     a50:	00002c00 			@ <UNDEFINED> instruction: 00002c00
     a54:	649c0100 			@ <UNDEFINED> instruction: 649c0100
     a58:	0b000002 			@ <UNDEFINED> instruction: 0b000002
     a5c:	00005cff 	strdeq	r5, [r0], -pc	@ <UNPREDICTABLE>
     a60:	53233e01 			@ <UNDEFINED> instruction: 53233e01
     a64:	02000000 			@ <UNDEFINED> instruction: 02000000
     a68:	0e007491 			@ <UNDEFINED> instruction: 0e007491
     a6c:	00005d1e 			@ <UNDEFINED> instruction: 00005d1e
     a70:	53112601 			@ <UNDEFINED> instruction: 53112601
     a74:	00000000 			@ <UNDEFINED> instruction: 00000000
     a78:	44000000 			@ <UNDEFINED> instruction: 44000000
     a7c:	01000000 			@ <UNDEFINED> instruction: 01000000
     a80:	5cc50b9c 	vstmiapl	r5, {d16-d29}
     a84:	26010000 			@ <UNDEFINED> instruction: 26010000
     a88:	00005334 			@ <UNDEFINED> instruction: 00005334
     a8c:	6c910200 			@ <UNDEFINED> instruction: 6c910200
     a90:	005cf706 			@ <UNDEFINED> instruction: 005cf706
     a94:	0e280100 			@ <UNDEFINED> instruction: 0e280100
     a98:	00000053 			@ <UNDEFINED> instruction: 00000053
     a9c:	00749102 			@ <UNDEFINED> instruction: 00749102
     aa0:	0004e900 			@ <UNDEFINED> instruction: 0004e900
     aa4:	a2000400 			@ <UNDEFINED> instruction: a2000400
     aa8:	04000003 			@ <UNDEFINED> instruction: 04000003
     aac:	00485901 			@ <UNDEFINED> instruction: 00485901
     ab0:	5dcf0c00 			@ <UNDEFINED> instruction: 5dcf0c00
     ab4:	26f50000 			@ <UNDEFINED> instruction: 26f50000
     ab8:	00d00000 			@ <UNDEFINED> instruction: 00d00000
     abc:	00000000 			@ <UNDEFINED> instruction: 00000000
     ac0:	07be0000 			@ <UNDEFINED> instruction: 07be0000
     ac4:	19020000 			@ <UNDEFINED> instruction: 19020000
     ac8:	01020000 			@ <UNDEFINED> instruction: 01020000
     acc:	00042d06 			@ <UNDEFINED> instruction: 00042d06
     ad0:	05020200 			@ <UNDEFINED> instruction: 05020200
     ad4:	0000050e 			@ <UNDEFINED> instruction: 0000050e
     ad8:	54050402 			@ <UNDEFINED> instruction: 54050402
     adc:	02000046 			@ <UNDEFINED> instruction: 02000046
     ae0:	321f0508 			@ <UNDEFINED> instruction: 321f0508
     ae4:	64030000 			@ <UNDEFINED> instruction: 64030000
     ae8:	02000013 			@ <UNDEFINED> instruction: 02000013
     aec:	0056182e 			@ <UNDEFINED> instruction: 0056182e
     af0:	45040000 			@ <UNDEFINED> instruction: 45040000
     af4:	02000000 			@ <UNDEFINED> instruction: 02000000
     af8:	1eab0801 			@ <UNDEFINED> instruction: 1eab0801
     afc:	02020000 			@ <UNDEFINED> instruction: 02020000
     b00:	0043e107 			@ <UNDEFINED> instruction: 0043e107
     b04:	537c0300 			@ <UNDEFINED> instruction: 537c0300
     b08:	34020000 			@ <UNDEFINED> instruction: 34020000
     b0c:	00007519 			@ <UNDEFINED> instruction: 00007519
     b10:	00640500 			@ <UNDEFINED> instruction: 00640500
     b14:	04020000 			@ <UNDEFINED> instruction: 04020000
     b18:	00111607 			@ <UNDEFINED> instruction: 00111607
     b1c:	07080200 			@ <UNDEFINED> instruction: 07080200
     b20:	00004bf6 	strdeq	r4, [r0], -r6
     b24:	69050406 			@ <UNDEFINED> instruction: 69050406
     b28:	0200746e 			@ <UNDEFINED> instruction: 0200746e
     b2c:	15640704 			@ <UNDEFINED> instruction: 15640704
     b30:	a1030000 			@ <UNDEFINED> instruction: a1030000
     b34:	0200005b 			@ <UNDEFINED> instruction: 0200005b
     b38:	008a1a56 			@ <UNDEFINED> instruction: 008a1a56
     b3c:	08020000 			@ <UNDEFINED> instruction: 08020000
     b40:	003dac04 			@ <UNDEFINED> instruction: 003dac04
     b44:	70040700 			@ <UNDEFINED> instruction: 70040700
     b48:	08000000 			@ <UNDEFINED> instruction: 08000000
     b4c:	00290105 			@ <UNDEFINED> instruction: 00290105
     b50:	c3030000 	movwgt	r0, #12288	@ 0x3000
     b54:	0000fb0e 			@ <UNDEFINED> instruction: 0000fb0e
     b58:	570f0900 			@ <UNDEFINED> instruction: 570f0900
     b5c:	0a000000 			@ <UNDEFINED> instruction: 0a000000
     b60:	0000368b 			@ <UNDEFINED> instruction: 0000368b
     b64:	49830a7f 			@ <UNDEFINED> instruction: 49830a7f
     b68:	0a7e0000 			@ <UNDEFINED> instruction: 0a7e0000
     b6c:	000008da 	ldrdeq	r0, [r0], -sl
     b70:	52c50a7d 			@ <UNDEFINED> instruction: 52c50a7d
     b74:	0a7c0000 			@ <UNDEFINED> instruction: 0a7c0000
     b78:	00004cf6 	strdeq	r4, [r0], -r6
     b7c:	38cc0a7b 			@ <UNDEFINED> instruction: 38cc0a7b
     b80:	0a7a0000 			@ <UNDEFINED> instruction: 0a7a0000
     b84:	00005717 			@ <UNDEFINED> instruction: 00005717
     b88:	1b640a79 			@ <UNDEFINED> instruction: 1b640a79
     b8c:	0a780000 			@ <UNDEFINED> instruction: 0a780000
     b90:	00001761 			@ <UNDEFINED> instruction: 00001761
     b94:	1f0b0a77 			@ <UNDEFINED> instruction: 1f0b0a77
     b98:	00760000 			@ <UNDEFINED> instruction: 00760000
     b9c:	004e4c03 			@ <UNDEFINED> instruction: 004e4c03
     ba0:	03cf0300 			@ <UNDEFINED> instruction: 03cf0300
     ba4:	000000aa 			@ <UNDEFINED> instruction: 000000aa
     ba8:	d7031c0b 			@ <UNDEFINED> instruction: d7031c0b
     bac:	00019309 			@ <UNDEFINED> instruction: 00019309
     bb0:	1dcb0c00 			@ <UNDEFINED> instruction: 1dcb0c00
     bb4:	d8030000 			@ <UNDEFINED> instruction: d8030000
     bb8:	0000a418 			@ <UNDEFINED> instruction: 0000a418
     bbc:	3d0c0000 			@ <UNDEFINED> instruction: 3d0c0000
     bc0:	0300003a 	movweq	r0, #58	@ 0x3a
     bc4:	00a418d9 	ldrdeq	r1, [r4], r9	@ <UNPREDICTABLE>
     bc8:	0c040000 			@ <UNDEFINED> instruction: 0c040000
     bcc:	000020d6 	ldrdeq	r2, [r0], -r6
     bd0:	6418da03 			@ <UNDEFINED> instruction: 6418da03
     bd4:	08000000 			@ <UNDEFINED> instruction: 08000000
     bd8:	0033650c 			@ <UNDEFINED> instruction: 0033650c
     bdc:	18db0300 			@ <UNDEFINED> instruction: 18db0300
     be0:	00000064 			@ <UNDEFINED> instruction: 00000064
     be4:	124f0c0c 			@ <UNDEFINED> instruction: 124f0c0c
     be8:	dc030000 			@ <UNDEFINED> instruction: dc030000
     bec:	00006418 			@ <UNDEFINED> instruction: 00006418
     bf0:	410c1000 			@ <UNDEFINED> instruction: 410c1000
     bf4:	0300003f 	movweq	r0, #63	@ 0x3f
     bf8:	004518dd 	ldrdeq	r1, [r5], #-141	@ 0xffffff73
     bfc:	0c140000 			@ <UNDEFINED> instruction: 0c140000
     c00:	000000ef 			@ <UNDEFINED> instruction: 000000ef
     c04:	4518de03 			@ <UNDEFINED> instruction: 4518de03
     c08:	15000000 			@ <UNDEFINED> instruction: 15000000
     c0c:	00591c0c 			@ <UNDEFINED> instruction: 00591c0c
     c10:	18df0300 			@ <UNDEFINED> instruction: 18df0300
     c14:	00000045 			@ <UNDEFINED> instruction: 00000045
     c18:	4d1e0c16 			@ <UNDEFINED> instruction: 4d1e0c16
     c1c:	e0030000 			@ <UNDEFINED> instruction: e0030000
     c20:	00004518 			@ <UNDEFINED> instruction: 00004518
     c24:	000c1700 			@ <UNDEFINED> instruction: 000c1700
     c28:	03000031 	movweq	r0, #49	@ 0x31
     c2c:	004518e1 			@ <UNDEFINED> instruction: 004518e1
     c30:	00180000 			@ <UNDEFINED> instruction: 00180000
     c34:	0046ef03 			@ <UNDEFINED> instruction: 0046ef03
     c38:	03e20300 			@ <UNDEFINED> instruction: 03e20300
     c3c:	00000107 			@ <UNDEFINED> instruction: 00000107
     c40:	00019304 			@ <UNDEFINED> instruction: 00019304
     c44:	5d810d00 			@ <UNDEFINED> instruction: 5d810d00
     c48:	32010000 			@ <UNDEFINED> instruction: 32010000
     c4c:	00fb0f01 			@ <UNDEFINED> instruction: 00fb0f01
     c50:	00000000 			@ <UNDEFINED> instruction: 00000000
     c54:	008e0000 			@ <UNDEFINED> instruction: 008e0000
     c58:	9c010000 			@ <UNDEFINED> instruction: 9c010000
     c5c:	000001e0 			@ <UNDEFINED> instruction: 000001e0
     c60:	6766630e 			@ <UNDEFINED> instruction: 6766630e
     c64:	01320100 			@ <UNDEFINED> instruction: 01320100
     c68:	0001e030 			@ <UNDEFINED> instruction: 0001e030
     c6c:	6c910200 			@ <UNDEFINED> instruction: 6c910200
     c70:	005b930f 			@ <UNDEFINED> instruction: 005b930f
     c74:	01340100 			@ <UNDEFINED> instruction: 01340100
     c78:	0000fb13 			@ <UNDEFINED> instruction: 0000fb13
     c7c:	77910200 			@ <UNDEFINED> instruction: 77910200
     c80:	9f040700 			@ <UNDEFINED> instruction: 9f040700
     c84:	0d000001 			@ <UNDEFINED> instruction: 0d000001
     c88:	000032c2 			@ <UNDEFINED> instruction: 000032c2
     c8c:	0f011a01 			@ <UNDEFINED> instruction: 0f011a01
     c90:	000000fb 	strdeq	r0, [r0], -fp
     c94:	080007e0 			@ <UNDEFINED> instruction: 080007e0
     c98:	0000004c 			@ <UNDEFINED> instruction: 0000004c
     c9c:	02329c01 			@ <UNDEFINED> instruction: 02329c01
     ca0:	630e0000 	movwvs	r0, #57344	@ 0xe000
     ca4:	01006766 			@ <UNDEFINED> instruction: 01006766
     ca8:	e038011a 			@ <UNDEFINED> instruction: e038011a
     cac:	02000001 			@ <UNDEFINED> instruction: 02000001
     cb0:	730e6c91 	movwvc	r6, #60561	@ 0xec91
     cb4:	01007274 			@ <UNDEFINED> instruction: 01007274
     cb8:	3239011b 			@ <UNDEFINED> instruction: 3239011b
     cbc:	02000002 			@ <UNDEFINED> instruction: 02000002
     cc0:	930f6891 	movwls	r6, #63633	@ 0xf891
     cc4:	0100005b 	qaddeq	r0, fp, r0
     cc8:	fb130121 	blx	4c1156 <_Min_Stack_Size+0x4c0956>
     ccc:	02000000 			@ <UNDEFINED> instruction: 02000000
     cd0:	07007791 			@ <UNDEFINED> instruction: 07007791
     cd4:	00023f04 			@ <UNDEFINED> instruction: 00023f04
     cd8:	08010200 			@ <UNDEFINED> instruction: 08010200
     cdc:	00000434 			@ <UNDEFINED> instruction: 00000434
     ce0:	00023804 			@ <UNDEFINED> instruction: 00023804
     ce4:	5dc20d00 			@ <UNDEFINED> instruction: 5dc20d00
     ce8:	03010000 	movweq	r0, #4096	@ 0x1000
     cec:	00fb0f01 			@ <UNDEFINED> instruction: 00fb0f01
     cf0:	00000000 			@ <UNDEFINED> instruction: 00000000
     cf4:	00560000 			@ <UNDEFINED> instruction: 00560000
     cf8:	9c010000 			@ <UNDEFINED> instruction: 9c010000
     cfc:	000002b8 			@ <UNDEFINED> instruction: 000002b8
     d00:	6766630e 			@ <UNDEFINED> instruction: 6766630e
     d04:	01030100 			@ <UNDEFINED> instruction: 01030100
     d08:	0001e031 			@ <UNDEFINED> instruction: 0001e031
     d0c:	6c910200 			@ <UNDEFINED> instruction: 6c910200
     d10:	6675620e 			@ <UNDEFINED> instruction: 6675620e
     d14:	01040100 			@ <UNDEFINED> instruction: 01040100
     d18:	0002b832 			@ <UNDEFINED> instruction: 0002b832
     d1c:	68910200 			@ <UNDEFINED> instruction: 68910200
     d20:	6e656c0e 			@ <UNDEFINED> instruction: 6e656c0e
     d24:	01050100 			@ <UNDEFINED> instruction: 01050100
     d28:	00006432 			@ <UNDEFINED> instruction: 00006432
     d2c:	64910200 			@ <UNDEFINED> instruction: 64910200
     d30:	005b930f 			@ <UNDEFINED> instruction: 005b930f
     d34:	010b0100 			@ <UNDEFINED> instruction: 010b0100
     d38:	0000fb13 			@ <UNDEFINED> instruction: 0000fb13
     d3c:	73910200 			@ <UNDEFINED> instruction: 73910200
     d40:	00000010 			@ <UNDEFINED> instruction: 00000010
     d44:	00003400 			@ <UNDEFINED> instruction: 00003400
     d48:	00691100 			@ <UNDEFINED> instruction: 00691100
     d4c:	13010c01 	movwne	r0, #7169	@ 0x1c01
     d50:	00000064 			@ <UNDEFINED> instruction: 00000064
     d54:	00749102 			@ <UNDEFINED> instruction: 00749102
     d58:	45040700 			@ <UNDEFINED> instruction: 45040700
     d5c:	12000000 			@ <UNDEFINED> instruction: 12000000
     d60:	00005d70 			@ <UNDEFINED> instruction: 00005d70
     d64:	fb0fdb01 	blx	3f7972 <_Min_Stack_Size+0x3f7172>
     d68:	00000000 			@ <UNDEFINED> instruction: 00000000
     d6c:	ac000000 			@ <UNDEFINED> instruction: ac000000
     d70:	01000000 			@ <UNDEFINED> instruction: 01000000
     d74:	0003409c 			@ <UNDEFINED> instruction: 0003409c
     d78:	66631300 			@ <UNDEFINED> instruction: 66631300
     d7c:	db010067 			@ <UNDEFINED> instruction: db010067
     d80:	0001e035 			@ <UNDEFINED> instruction: 0001e035
     d84:	5c910200 			@ <UNDEFINED> instruction: 5c910200
     d88:	005eaa14 			@ <UNDEFINED> instruction: 005eaa14
     d8c:	43db0100 			@ <UNDEFINED> instruction: 43db0100
     d90:	000002b8 			@ <UNDEFINED> instruction: 000002b8
     d94:	15589102 			@ <UNDEFINED> instruction: 15589102
     d98:	00005b93 			@ <UNDEFINED> instruction: 00005b93
     d9c:	fb13e101 	blx	4f91aa <_Min_Stack_Size+0x4f89aa>
     da0:	02000000 			@ <UNDEFINED> instruction: 02000000
     da4:	73167391 			@ <UNDEFINED> instruction: 73167391
     da8:	e6010072 			@ <UNDEFINED> instruction: e6010072
     dac:	0000a418 			@ <UNDEFINED> instruction: 0000a418
     db0:	6c910200 			@ <UNDEFINED> instruction: 6c910200
     db4:	00726416 			@ <UNDEFINED> instruction: 00726416
     db8:	a418e701 			@ <UNDEFINED> instruction: a418e701
     dbc:	02000000 			@ <UNDEFINED> instruction: 02000000
     dc0:	f7156891 			@ <UNDEFINED> instruction: f7156891
     dc4:	0100005c 	qaddeq	r0, ip, r0
     dc8:	00640eea 			@ <UNDEFINED> instruction: 00640eea
     dcc:	91020000 			@ <UNDEFINED> instruction: 91020000
     dd0:	5ded1574 			@ <UNDEFINED> instruction: 5ded1574
     dd4:	f2010000 	vhadd.s8	d0, d1, d0
     dd8:	0000640e 			@ <UNDEFINED> instruction: 0000640e
     ddc:	64910200 			@ <UNDEFINED> instruction: 64910200
     de0:	5d9f1200 			@ <UNDEFINED> instruction: 5d9f1200
     de4:	c1010000 			@ <UNDEFINED> instruction: c1010000
     de8:	0000fb0f 			@ <UNDEFINED> instruction: 0000fb0f
     dec:	00000000 			@ <UNDEFINED> instruction: 00000000
     df0:	00005800 			@ <UNDEFINED> instruction: 00005800
     df4:	ae9c0100 			@ <UNDEFINED> instruction: ae9c0100
     df8:	13000003 	movwne	r0, #3
     dfc:	00676663 			@ <UNDEFINED> instruction: 00676663
     e00:	e032c101 			@ <UNDEFINED> instruction: e032c101
     e04:	02000001 			@ <UNDEFINED> instruction: 02000001
     e08:	62136c91 			@ <UNDEFINED> instruction: 62136c91
     e0c:	01006675 			@ <UNDEFINED> instruction: 01006675
     e10:	03ae33c2 			@ <UNDEFINED> instruction: 03ae33c2
     e14:	91020000 			@ <UNDEFINED> instruction: 91020000
     e18:	656c1368 			@ <UNDEFINED> instruction: 656c1368
     e1c:	c301006e 	movwgt	r0, #4206	@ 0x106e
     e20:	00006433 			@ <UNDEFINED> instruction: 00006433
     e24:	64910200 			@ <UNDEFINED> instruction: 64910200
     e28:	005b9315 			@ <UNDEFINED> instruction: 005b9315
     e2c:	13c90100 			@ <UNDEFINED> instruction: 13c90100
     e30:	000000fb 	strdeq	r0, [r0], -fp
     e34:	10739102 			@ <UNDEFINED> instruction: 10739102
     e38:	00000000 			@ <UNDEFINED> instruction: 00000000
     e3c:	00000036 			@ <UNDEFINED> instruction: 00000036
     e40:	01006916 			@ <UNDEFINED> instruction: 01006916
     e44:	006413ca 			@ <UNDEFINED> instruction: 006413ca
     e48:	91020000 			@ <UNDEFINED> instruction: 91020000
     e4c:	07000074 	smlsdxeq	r0, r4, r0, r0
     e50:	00005104 			@ <UNDEFINED> instruction: 00005104
     e54:	5d8d1200 			@ <UNDEFINED> instruction: 5d8d1200
     e58:	a8010000 			@ <UNDEFINED> instruction: a8010000
     e5c:	0000fb0f 			@ <UNDEFINED> instruction: 0000fb0f
     e60:	00076800 			@ <UNDEFINED> instruction: 00076800
     e64:	00007808 			@ <UNDEFINED> instruction: 00007808
     e68:	279c0100 			@ <UNDEFINED> instruction: 279c0100
     e6c:	13000004 	movwne	r0, #4
     e70:	00676663 			@ <UNDEFINED> instruction: 00676663
     e74:	e036a801 			@ <UNDEFINED> instruction: e036a801
     e78:	02000001 			@ <UNDEFINED> instruction: 02000001
     e7c:	aa146491 			@ <UNDEFINED> instruction: aa146491
     e80:	0100005e 	qaddeq	r0, lr, r0
     e84:	004543a8 			@ <UNDEFINED> instruction: 004543a8
     e88:	91020000 			@ <UNDEFINED> instruction: 91020000
     e8c:	5b931563 			@ <UNDEFINED> instruction: 5b931563
     e90:	aa010000 			@ <UNDEFINED> instruction: aa010000
     e94:	0000fb13 			@ <UNDEFINED> instruction: 0000fb13
     e98:	73910200 			@ <UNDEFINED> instruction: 73910200
     e9c:	00727316 			@ <UNDEFINED> instruction: 00727316
     ea0:	a418af01 			@ <UNDEFINED> instruction: a418af01
     ea4:	02000000 			@ <UNDEFINED> instruction: 02000000
     ea8:	64166c91 			@ <UNDEFINED> instruction: 64166c91
     eac:	b0010072 			@ <UNDEFINED> instruction: b0010072
     eb0:	0000a418 			@ <UNDEFINED> instruction: 0000a418
     eb4:	68910200 			@ <UNDEFINED> instruction: 68910200
     eb8:	005cf715 			@ <UNDEFINED> instruction: 005cf715
     ebc:	0eb30100 			@ <UNDEFINED> instruction: 0eb30100
     ec0:	00000064 			@ <UNDEFINED> instruction: 00000064
     ec4:	00749102 			@ <UNDEFINED> instruction: 00749102
     ec8:	00066612 			@ <UNDEFINED> instruction: 00066612
     ecc:	0f5a0100 			@ <UNDEFINED> instruction: 0f5a0100
     ed0:	000000fb 	strdeq	r0, [r0], -fp
     ed4:	080005cc 			@ <UNDEFINED> instruction: 080005cc
     ed8:	0000019a 			@ <UNDEFINED> instruction: 0000019a
     edc:	048d9c01 			@ <UNDEFINED> instruction: 048d9c01
     ee0:	63130000 			@ <UNDEFINED> instruction: 63130000
     ee4:	01006766 			@ <UNDEFINED> instruction: 01006766
     ee8:	01e02e5a 			@ <UNDEFINED> instruction: 01e02e5a
     eec:	91020000 			@ <UNDEFINED> instruction: 91020000
     ef0:	5b93155c 			@ <UNDEFINED> instruction: 5b93155c
     ef4:	5c010000 			@ <UNDEFINED> instruction: 5c010000
     ef8:	0000fb13 			@ <UNDEFINED> instruction: 0000fb13
     efc:	63910200 			@ <UNDEFINED> instruction: 63910200
     f00:	32726316 			@ <UNDEFINED> instruction: 32726316
     f04:	0e6d0100 			@ <UNDEFINED> instruction: 0e6d0100
     f08:	00000064 			@ <UNDEFINED> instruction: 00000064
     f0c:	166c9102 			@ <UNDEFINED> instruction: 166c9102
     f10:	00337263 			@ <UNDEFINED> instruction: 00337263
     f14:	640e7601 			@ <UNDEFINED> instruction: 640e7601
     f18:	02000000 			@ <UNDEFINED> instruction: 02000000
     f1c:	63166891 			@ <UNDEFINED> instruction: 63166891
     f20:	01003172 			@ <UNDEFINED> instruction: 01003172
     f24:	00640e83 			@ <UNDEFINED> instruction: 00640e83
     f28:	91020000 			@ <UNDEFINED> instruction: 91020000
     f2c:	e4170064 			@ <UNDEFINED> instruction: e4170064
     f30:	0100005d 	qaddeq	r0, sp, r0
     f34:	00a42244 			@ <UNDEFINED> instruction: 00a42244
     f38:	05b00000 			@ <UNDEFINED> instruction: 05b00000
     f3c:	001c0800 			@ <UNDEFINED> instruction: 001c0800
     f40:	9c010000 			@ <UNDEFINED> instruction: 9c010000
     f44:	000004c6 			@ <UNDEFINED> instruction: 000004c6
     f48:	001dcb14 			@ <UNDEFINED> instruction: 001dcb14
     f4c:	3e440100 			@ <UNDEFINED> instruction: 3e440100
     f50:	000000a4 			@ <UNDEFINED> instruction: 000000a4
     f54:	14749102 			@ <UNDEFINED> instruction: 14749102
     f58:	00005b42 			@ <UNDEFINED> instruction: 00005b42
     f5c:	643e4501 			@ <UNDEFINED> instruction: 643e4501
     f60:	02000000 			@ <UNDEFINED> instruction: 02000000
     f64:	18007091 			@ <UNDEFINED> instruction: 18007091
     f68:	00005dad 			@ <UNDEFINED> instruction: 00005dad
     f6c:	fb162701 	blx	58ab7a <_Min_Stack_Size+0x58a37a>
     f70:	38000000 			@ <UNDEFINED> instruction: 38000000
     f74:	78080005 			@ <UNDEFINED> instruction: 78080005
     f78:	01000000 			@ <UNDEFINED> instruction: 01000000
     f7c:	6663139c 			@ <UNDEFINED> instruction: 6663139c
     f80:	27010067 			@ <UNDEFINED> instruction: 27010067
     f84:	0001e040 			@ <UNDEFINED> instruction: 0001e040
     f88:	74910200 			@ <UNDEFINED> instruction: 74910200
     f8c:	01e80000 			@ <UNDEFINED> instruction: 01e80000
     f90:	00040000 			@ <UNDEFINED> instruction: 00040000
     f94:	0000052c 			@ <UNDEFINED> instruction: 0000052c
     f98:	48590104 			@ <UNDEFINED> instruction: 48590104
     f9c:	af0c0000 			@ <UNDEFINED> instruction: af0c0000
     fa0:	f500005e 			@ <UNDEFINED> instruction: f500005e
     fa4:	20000026 			@ <UNDEFINED> instruction: 20000026
     fa8:	00000001 			@ <UNDEFINED> instruction: 00000001
     fac:	33000000 	movwcc	r0, #0
     fb0:	6000000c 			@ <UNDEFINED> instruction: 6000000c
     fb4:	02000019 			@ <UNDEFINED> instruction: 02000019
     fb8:	042d0601 			@ <UNDEFINED> instruction: 042d0601
     fbc:	02020000 			@ <UNDEFINED> instruction: 02020000
     fc0:	00050e05 			@ <UNDEFINED> instruction: 00050e05
     fc4:	05040200 			@ <UNDEFINED> instruction: 05040200
     fc8:	00004654 			@ <UNDEFINED> instruction: 00004654
     fcc:	1f050802 			@ <UNDEFINED> instruction: 1f050802
     fd0:	03000032 	movweq	r0, #50	@ 0x32
     fd4:	00001364 			@ <UNDEFINED> instruction: 00001364
     fd8:	51182e02 			@ <UNDEFINED> instruction: 51182e02
     fdc:	02000000 			@ <UNDEFINED> instruction: 02000000
     fe0:	1eab0801 			@ <UNDEFINED> instruction: 1eab0801
     fe4:	02020000 			@ <UNDEFINED> instruction: 02020000
     fe8:	0043e107 			@ <UNDEFINED> instruction: 0043e107
     fec:	537c0300 			@ <UNDEFINED> instruction: 537c0300
     ff0:	34020000 			@ <UNDEFINED> instruction: 34020000
     ff4:	00006b19 			@ <UNDEFINED> instruction: 00006b19
     ff8:	07040200 			@ <UNDEFINED> instruction: 07040200
     ffc:	00001116 			@ <UNDEFINED> instruction: 00001116
    1000:	f6070802 			@ <UNDEFINED> instruction: f6070802
    1004:	0400004b 			@ <UNDEFINED> instruction: 0400004b
    1008:	6e690504 			@ <UNDEFINED> instruction: 6e690504
    100c:	04020074 			@ <UNDEFINED> instruction: 04020074
    1010:	00156407 			@ <UNDEFINED> instruction: 00156407
    1014:	04080200 			@ <UNDEFINED> instruction: 04080200
    1018:	00003dac 			@ <UNDEFINED> instruction: 00003dac
    101c:	005e9a05 			@ <UNDEFINED> instruction: 005e9a05
    1020:	112b0100 			@ <UNDEFINED> instruction: 112b0100
    1024:	0000005f 			@ <UNDEFINED> instruction: 0000005f
    1028:	005e9305 			@ <UNDEFINED> instruction: 005e9305
    102c:	113a0100 			@ <UNDEFINED> instruction: 113a0100
    1030:	0000005f 			@ <UNDEFINED> instruction: 0000005f
    1034:	005ee005 			@ <UNDEFINED> instruction: 005ee005
    1038:	113b0100 			@ <UNDEFINED> instruction: 113b0100
    103c:	0000005f 			@ <UNDEFINED> instruction: 0000005f
    1040:	005ea805 			@ <UNDEFINED> instruction: 005ea805
    1044:	113c0100 			@ <UNDEFINED> instruction: 113c0100
    1048:	0000005f 			@ <UNDEFINED> instruction: 0000005f
    104c:	005ec805 			@ <UNDEFINED> instruction: 005ec805
    1050:	113d0100 			@ <UNDEFINED> instruction: 113d0100
    1054:	0000005f 			@ <UNDEFINED> instruction: 0000005f
    1058:	005ea205 			@ <UNDEFINED> instruction: 005ea205
    105c:	113e0100 			@ <UNDEFINED> instruction: 113e0100
    1060:	0000005f 			@ <UNDEFINED> instruction: 0000005f
    1064:	005ed306 			@ <UNDEFINED> instruction: 005ed306
    1068:	01280100 			@ <UNDEFINED> instruction: 01280100
    106c:	0000e916 			@ <UNDEFINED> instruction: 0000e916
    1070:	ee040700 			@ <UNDEFINED> instruction: ee040700
    1074:	08000000 			@ <UNDEFINED> instruction: 08000000
    1078:	000000e3 			@ <UNDEFINED> instruction: 000000e3
    107c:	00d60a09 			@ <UNDEFINED> instruction: 00d60a09
    1080:	00ff0000 			@ <UNDEFINED> instruction: 00ff0000
    1084:	800b0000 			@ <UNDEFINED> instruction: 800b0000
    1088:	70000000 			@ <UNDEFINED> instruction: 70000000
    108c:	00ef0800 			@ <UNDEFINED> instruction: 00ef0800
    1090:	e70c0000 			@ <UNDEFINED> instruction: e70c0000
    1094:	0100005e 	qaddeq	r0, lr, r0
    1098:	ff0e012c 			@ <UNDEFINED> instruction: ff0e012c
    109c:	05000000 			@ <UNDEFINED> instruction: 05000000
    10a0:	00000003 			@ <UNDEFINED> instruction: 00000003
    10a4:	100f0d08 			@ <UNDEFINED> instruction: 100f0d08
    10a8:	45010000 			@ <UNDEFINED> instruction: 45010000
    10ac:	00007906 			@ <UNDEFINED> instruction: 00007906
    10b0:	5e830e00 			@ <UNDEFINED> instruction: 5e830e00
    10b4:	f8010000 			@ <UNDEFINED> instruction: f8010000
    10b8:	08c00601 			@ <UNDEFINED> instruction: 08c00601
    10bc:	00080800 			@ <UNDEFINED> instruction: 00080800
    10c0:	9c010000 			@ <UNDEFINED> instruction: 9c010000
    10c4:	005ef40f 			@ <UNDEFINED> instruction: 005ef40f
    10c8:	01bb0100 			@ <UNDEFINED> instruction: 01bb0100
    10cc:	00083c06 			@ <UNDEFINED> instruction: 00083c06
    10d0:	00008408 			@ <UNDEFINED> instruction: 00008408
    10d4:	d29c0100 			@ <UNDEFINED> instruction: d29c0100
    10d8:	10000001 			@ <UNDEFINED> instruction: 10000001
    10dc:	00005e13 			@ <UNDEFINED> instruction: 00005e13
    10e0:	0e01c701 			@ <UNDEFINED> instruction: 0e01c701
    10e4:	0000005f 			@ <UNDEFINED> instruction: 0000005f
    10e8:	116c9102 			@ <UNDEFINED> instruction: 116c9102
    10ec:	00637273 			@ <UNDEFINED> instruction: 00637273
    10f0:	0e01c801 			@ <UNDEFINED> instruction: 0e01c801
    10f4:	000001d2 	ldrdeq	r0, [r0], -r2
    10f8:	10689102 			@ <UNDEFINED> instruction: 10689102
    10fc:	00005ece 			@ <UNDEFINED> instruction: 00005ece
    1100:	0e01c901 			@ <UNDEFINED> instruction: 0e01c901
    1104:	000001d2 	ldrdeq	r0, [r0], -r2
    1108:	10649102 			@ <UNDEFINED> instruction: 10649102
    110c:	00005e1d 			@ <UNDEFINED> instruction: 00005e1d
    1110:	0e01d501 			@ <UNDEFINED> instruction: 0e01d501
    1114:	0000005f 			@ <UNDEFINED> instruction: 0000005f
    1118:	11609102 			@ <UNDEFINED> instruction: 11609102
    111c:	00737362 			@ <UNDEFINED> instruction: 00737362
    1120:	0e01d601 			@ <UNDEFINED> instruction: 0e01d601
    1124:	000001d2 	ldrdeq	r0, [r0], -r2
    1128:	125c9102 			@ <UNDEFINED> instruction: 125c9102
    112c:	08000852 			@ <UNDEFINED> instruction: 08000852
    1130:	00000024 			@ <UNDEFINED> instruction: 00000024
    1134:	000001b9 			@ <UNDEFINED> instruction: 000001b9
    1138:	01006911 			@ <UNDEFINED> instruction: 01006911
    113c:	5f1301cb 			@ <UNDEFINED> instruction: 5f1301cb
    1140:	02000000 			@ <UNDEFINED> instruction: 02000000
    1144:	13007491 	movwne	r7, #1169	@ 0x491
    1148:	08000882 			@ <UNDEFINED> instruction: 08000882
    114c:	0000001e 			@ <UNDEFINED> instruction: 0000001e
    1150:	01006911 			@ <UNDEFINED> instruction: 01006911
    1154:	5f1301d8 			@ <UNDEFINED> instruction: 5f1301d8
    1158:	02000000 			@ <UNDEFINED> instruction: 02000000
    115c:	00007091 			@ <UNDEFINED> instruction: 00007091
    1160:	00450407 			@ <UNDEFINED> instruction: 00450407
    1164:	02140000 			@ <UNDEFINED> instruction: 02140000
    1168:	0100005f 	qaddeq	r0, pc, r0	@ <UNPREDICTABLE>
    116c:	2c0601aa 			@ <UNDEFINED> instruction: 2c0601aa
    1170:	0e080008 			@ <UNDEFINED> instruction: 0e080008
    1174:	01000000 			@ <UNDEFINED> instruction: 01000000
    1178:	Address 0x1178 is out of bounds.


Disassembly of section .debug_abbrev:

00000000 <.debug_abbrev>:
{
   0:	25011101 			@ <UNDEFINED> instruction: 25011101
   4:	030b130e 	movweq	r1, #45838	@ 0xb30e
    GPIO_Status_t status = gpio_validate_config(cfg);
   8:	550e1b0e 			@ <UNDEFINED> instruction: 550e1b0e
   c:	10011117 			@ <UNDEFINED> instruction: 10011117
  10:	17429917 	smlaldne	r9, r2, r7, r9
    if (status != GPIO_OK) {
  14:	24020000 			@ <UNDEFINED> instruction: 24020000
  18:	3e0b0b00 	vmlacc.f64	d0, d11, d0
        return status;
  1c:	000e030b 			@ <UNDEFINED> instruction: 000e030b
    volatile uint32_t *moder   =
  20:	00160300 			@ <UNDEFINED> instruction: 00160300
  24:	0b3a0e03 			@ <UNDEFINED> instruction: 0b3a0e03
        (volatile uint32_t *)((uintptr_t)cfg->port_base + GPIO_OTYPER_OFFSET);
  28:	0b390b3b 			@ <UNDEFINED> instruction: 0b390b3b
    volatile uint32_t *otyper  =
  2c:	00001349 			@ <UNDEFINED> instruction: 00001349
        (volatile uint32_t *)((uintptr_t)cfg->port_base + GPIO_OSPEEDR_OFFSET);
  30:	49003504 			@ <UNDEFINED> instruction: 49003504
    volatile uint32_t *ospeedr =
  34:	05000013 			@ <UNDEFINED> instruction: 05000013
        (volatile uint32_t *)((uintptr_t)cfg->port_base + GPIO_PUPDR_OFFSET);
  38:	0b0b0024 			@ <UNDEFINED> instruction: 0b0b0024
    volatile uint32_t *pupdr   =
  3c:	08030b3e 			@ <UNDEFINED> instruction: 08030b3e
    gpio_set_2bit_field(moder,   cfg->pin, GPIO_MODER_MASK,   GPIO_MODER_ANALOG);
  40:	04060000 			@ <UNDEFINED> instruction: 04060000
  44:	0b0b3e01 			@ <UNDEFINED> instruction: 0b0b3e01
  48:	3a13490b 			@ <UNDEFINED> instruction: 3a13490b
    gpio_set_2bit_field(ospeedr, cfg->pin, GPIO_OSPEEDR_MASK, GPIO_OSPEEDR_LOW);
  4c:	390b3b0b 			@ <UNDEFINED> instruction: 390b3b0b
  50:	0013010b 			@ <UNDEFINED> instruction: 0013010b
  54:	00280700 			@ <UNDEFINED> instruction: 00280700
  58:	0b1c0e03 			@ <UNDEFINED> instruction: 0b1c0e03
    gpio_set_2bit_field(pupdr,   cfg->pin, GPIO_PUPDR_MASK,   GPIO_PUPDR_NONE);
  5c:	28080000 			@ <UNDEFINED> instruction: 28080000
  60:	1c0e0300 			@ <UNDEFINED> instruction: 1c0e0300
  64:	0900000d 			@ <UNDEFINED> instruction: 0900000d
    *otyper &= ~(1UL << cfg->pin);
  68:	0b0b0113 			@ <UNDEFINED> instruction: 0b0b0113
  6c:	0b3b0b3a 			@ <UNDEFINED> instruction: 0b3b0b3a
  70:	13010b39 	movwne	r0, #6969	@ 0x1b39
  74:	0d0a0000 			@ <UNDEFINED> instruction: 0d0a0000
  78:	3a0e0300 			@ <UNDEFINED> instruction: 3a0e0300
  7c:	390b3b0b 			@ <UNDEFINED> instruction: 390b3b0b
}
  80:	3813490b 			@ <UNDEFINED> instruction: 3813490b
  84:	0b00000b 			@ <UNDEFINED> instruction: 0b00000b
        return UART_ERR_OVERRUN;
  88:	0803000d 			@ <UNDEFINED> instruction: 0803000d
  8c:	0b3b0b3a 			@ <UNDEFINED> instruction: 0b3b0b3a
    if (sr_snapshot & USART_SR_FE) {
  90:	13490b39 	movtne	r0, #39737	@ 0x9b39
  94:	00000b38 			@ <UNDEFINED> instruction: 00000b38
        return UART_ERR_FRAMING;
  98:	0b000f0c 			@ <UNDEFINED> instruction: 0b000f0c
  9c:	0013490b 			@ <UNDEFINED> instruction: 0013490b
}
  a0:	00260d00 			@ <UNDEFINED> instruction: 00260d00
  a4:	00001349 			@ <UNDEFINED> instruction: 00001349
  a8:	0300340e 	movweq	r3, #1038	@ 0x40e
  ac:	3b0b3a0e 			@ <UNDEFINED> instruction: 3b0b3a0e
  b0:	490b390b 			@ <UNDEFINED> instruction: 490b390b
  b4:	00180213 			@ <UNDEFINED> instruction: 00180213
  b8:	012e0f00 			@ <UNDEFINED> instruction: 012e0f00
  bc:	0e03193f 			@ <UNDEFINED> instruction: 0e03193f
  c0:	0b3b0b3a 			@ <UNDEFINED> instruction: 0b3b0b3a
  c4:	19270b39 			@ <UNDEFINED> instruction: 19270b39
  c8:	1301193c 	movwne	r1, #6460	@ 0x193c
  cc:	05100000 			@ <UNDEFINED> instruction: 05100000
  d0:	00134900 			@ <UNDEFINED> instruction: 00134900
  d4:	012e1100 			@ <UNDEFINED> instruction: 012e1100
  d8:	0e03193f 			@ <UNDEFINED> instruction: 0e03193f
  dc:	053b0b3a 			@ <UNDEFINED> instruction: 053b0b3a
  e0:	19270b39 			@ <UNDEFINED> instruction: 19270b39
  e4:	193c1349 			@ <UNDEFINED> instruction: 193c1349
  e8:	00001301 			@ <UNDEFINED> instruction: 00001301
  ec:	3f012e12 			@ <UNDEFINED> instruction: 3f012e12
  f0:	3a0e0319 			@ <UNDEFINED> instruction: 3a0e0319
  f4:	390b3b0b 			@ <UNDEFINED> instruction: 390b3b0b
  f8:	4919270b 			@ <UNDEFINED> instruction: 4919270b
  fc:	01193c13 			@ <UNDEFINED> instruction: 01193c13
 100:	13000013 	movwne	r0, #19
 104:	193f002e 			@ <UNDEFINED> instruction: 193f002e
 108:	0b3a0e03 			@ <UNDEFINED> instruction: 0b3a0e03
 10c:	0b390b3b 			@ <UNDEFINED> instruction: 0b390b3b
 110:	13491927 	movtne	r1, #39207	@ 0x9927
 114:	06120111 			@ <UNDEFINED> instruction: 06120111
 118:	42961840 			@ <UNDEFINED> instruction: 42961840
 11c:	14000019 			@ <UNDEFINED> instruction: 14000019
 120:	0e03002e 			@ <UNDEFINED> instruction: 0e03002e
 124:	0b3b0b3a 			@ <UNDEFINED> instruction: 0b3b0b3a
 128:	19270b39 			@ <UNDEFINED> instruction: 19270b39
 12c:	06120111 			@ <UNDEFINED> instruction: 06120111
 130:	42971840 			@ <UNDEFINED> instruction: 42971840
 134:	00000019 			@ <UNDEFINED> instruction: 00000019
 138:	25011101 			@ <UNDEFINED> instruction: 25011101
 13c:	030b130e 	movweq	r1, #45838	@ 0xb30e
 140:	550e1b0e 			@ <UNDEFINED> instruction: 550e1b0e
 144:	10011117 			@ <UNDEFINED> instruction: 10011117
 148:	17429917 	smlaldne	r9, r2, r7, r9
 14c:	24020000 			@ <UNDEFINED> instruction: 24020000
 150:	3e0b0b00 	vmlacc.f64	d0, d11, d0
 154:	000e030b 			@ <UNDEFINED> instruction: 000e030b
 158:	00160300 			@ <UNDEFINED> instruction: 00160300
 15c:	0b3a0e03 			@ <UNDEFINED> instruction: 0b3a0e03
 160:	0b390b3b 			@ <UNDEFINED> instruction: 0b390b3b
 164:	00001349 			@ <UNDEFINED> instruction: 00001349
 168:	49003504 			@ <UNDEFINED> instruction: 49003504
 16c:	05000013 			@ <UNDEFINED> instruction: 05000013
 170:	0b0b0024 			@ <UNDEFINED> instruction: 0b0b0024
 174:	08030b3e 			@ <UNDEFINED> instruction: 08030b3e
 178:	04060000 			@ <UNDEFINED> instruction: 04060000
 17c:	0b0b3e01 			@ <UNDEFINED> instruction: 0b0b3e01
 180:	3a13490b 			@ <UNDEFINED> instruction: 3a13490b
 184:	390b3b0b 			@ <UNDEFINED> instruction: 390b3b0b
 188:	0013010b 			@ <UNDEFINED> instruction: 0013010b
 18c:	00280700 			@ <UNDEFINED> instruction: 00280700
 190:	0b1c0e03 			@ <UNDEFINED> instruction: 0b1c0e03
 194:	28080000 			@ <UNDEFINED> instruction: 28080000
 198:	1c0e0300 			@ <UNDEFINED> instruction: 1c0e0300
 19c:	0900000d 			@ <UNDEFINED> instruction: 0900000d
 1a0:	0b0b0113 			@ <UNDEFINED> instruction: 0b0b0113
 1a4:	0b3b0b3a 			@ <UNDEFINED> instruction: 0b3b0b3a
 1a8:	13010b39 	movwne	r0, #6969	@ 0x1b39
 1ac:	0d0a0000 			@ <UNDEFINED> instruction: 0d0a0000
 1b0:	3a0e0300 			@ <UNDEFINED> instruction: 3a0e0300
 1b4:	390b3b0b 			@ <UNDEFINED> instruction: 390b3b0b
 1b8:	3813490b 			@ <UNDEFINED> instruction: 3813490b
 1bc:	0b00000b 			@ <UNDEFINED> instruction: 0b00000b
 1c0:	0803000d 			@ <UNDEFINED> instruction: 0803000d
 1c4:	0b3b0b3a 			@ <UNDEFINED> instruction: 0b3b0b3a
 1c8:	13490b39 	movtne	r0, #39737	@ 0x9b39
 1cc:	00000b38 			@ <UNDEFINED> instruction: 00000b38
 1d0:	0b000f0c 			@ <UNDEFINED> instruction: 0b000f0c
 1d4:	0013490b 			@ <UNDEFINED> instruction: 0013490b
 1d8:	00260d00 			@ <UNDEFINED> instruction: 00260d00
 1dc:	00001349 			@ <UNDEFINED> instruction: 00001349
 1e0:	3f012e0e 			@ <UNDEFINED> instruction: 3f012e0e
 1e4:	3a0e0319 			@ <UNDEFINED> instruction: 3a0e0319
 1e8:	390b3b0b 			@ <UNDEFINED> instruction: 390b3b0b
 1ec:	4919270b 			@ <UNDEFINED> instruction: 4919270b
 1f0:	12011113 			@ <UNDEFINED> instruction: 12011113
 1f4:	96184006 			@ <UNDEFINED> instruction: 96184006
 1f8:	13011942 	movwne	r1, #6466	@ 0x1942
 1fc:	050f0000 			@ <UNDEFINED> instruction: 050f0000
 200:	3a080300 			@ <UNDEFINED> instruction: 3a080300
 204:	390b3b0b 			@ <UNDEFINED> instruction: 390b3b0b
 208:	0213490b 			@ <UNDEFINED> instruction: 0213490b
 20c:	10000018 			@ <UNDEFINED> instruction: 10000018
 210:	0e030034 			@ <UNDEFINED> instruction: 0e030034
 214:	0b3b0b3a 			@ <UNDEFINED> instruction: 0b3b0b3a
 218:	13490b39 	movtne	r0, #39737	@ 0x9b39
 21c:	00001802 			@ <UNDEFINED> instruction: 00001802
 220:	03003411 	movweq	r3, #1041	@ 0x411
 224:	3b0b3a0e 			@ <UNDEFINED> instruction: 3b0b3a0e
 228:	490b3905 			@ <UNDEFINED> instruction: 490b3905
 22c:	00180213 			@ <UNDEFINED> instruction: 00180213
 230:	00341200 			@ <UNDEFINED> instruction: 00341200
 234:	0b3a0803 			@ <UNDEFINED> instruction: 0b3a0803
 238:	0b390b3b 			@ <UNDEFINED> instruction: 0b390b3b
 23c:	18021349 			@ <UNDEFINED> instruction: 18021349
 240:	05130000 			@ <UNDEFINED> instruction: 05130000
 244:	3a0e0300 			@ <UNDEFINED> instruction: 3a0e0300
 248:	390b3b0b 			@ <UNDEFINED> instruction: 390b3b0b
 24c:	0213490b 			@ <UNDEFINED> instruction: 0213490b
 250:	14000018 			@ <UNDEFINED> instruction: 14000018
 254:	0111010b 			@ <UNDEFINED> instruction: 0111010b
 258:	00000612 			@ <UNDEFINED> instruction: 00000612
 25c:	03012e15 	movweq	r2, #7701	@ 0x1e15
 260:	3b0b3a0e 			@ <UNDEFINED> instruction: 3b0b3a0e
 264:	270b390b 			@ <UNDEFINED> instruction: 270b390b
 268:	12011119 			@ <UNDEFINED> instruction: 12011119
 26c:	97184006 			@ <UNDEFINED> instruction: 97184006
 270:	13011942 	movwne	r1, #6466	@ 0x1942
 274:	2e160000 			@ <UNDEFINED> instruction: 2e160000
 278:	3a0e0301 			@ <UNDEFINED> instruction: 3a0e0301
 27c:	390b3b0b 			@ <UNDEFINED> instruction: 390b3b0b
 280:	4919270b 			@ <UNDEFINED> instruction: 4919270b
 284:	12011113 			@ <UNDEFINED> instruction: 12011113
 288:	97184006 			@ <UNDEFINED> instruction: 97184006
 28c:	00001942 			@ <UNDEFINED> instruction: 00001942
 290:	01110100 			@ <UNDEFINED> instruction: 01110100
 294:	0b130e25 			@ <UNDEFINED> instruction: 0b130e25
 298:	0e1b0e03 			@ <UNDEFINED> instruction: 0e1b0e03
 29c:	01111755 			@ <UNDEFINED> instruction: 01111755
 2a0:	42991710 			@ <UNDEFINED> instruction: 42991710
 2a4:	02000017 			@ <UNDEFINED> instruction: 02000017
 2a8:	0b0b0024 			@ <UNDEFINED> instruction: 0b0b0024
 2ac:	0e030b3e 	vmoveq.16	d3[0], r0
 2b0:	16030000 			@ <UNDEFINED> instruction: 16030000
 2b4:	3a0e0300 			@ <UNDEFINED> instruction: 3a0e0300
 2b8:	390b3b0b 			@ <UNDEFINED> instruction: 390b3b0b
 2bc:	0013490b 			@ <UNDEFINED> instruction: 0013490b
 2c0:	00350400 			@ <UNDEFINED> instruction: 00350400
 2c4:	00001349 			@ <UNDEFINED> instruction: 00001349
 2c8:	0b002405 			@ <UNDEFINED> instruction: 0b002405
 2cc:	030b3e0b 	movweq	r3, #48651	@ 0xbe0b
 2d0:	06000008 			@ <UNDEFINED> instruction: 06000008
 2d4:	0e030034 			@ <UNDEFINED> instruction: 0e030034
 2d8:	0b3b0b3a 			@ <UNDEFINED> instruction: 0b3b0b3a
 2dc:	13490b39 	movtne	r0, #39737	@ 0x9b39
 2e0:	00001802 			@ <UNDEFINED> instruction: 00001802
 2e4:	3f002e07 			@ <UNDEFINED> instruction: 3f002e07
 2e8:	3a0e0319 			@ <UNDEFINED> instruction: 3a0e0319
 2ec:	390b3b0b 			@ <UNDEFINED> instruction: 390b3b0b
 2f0:	1119270b 			@ <UNDEFINED> instruction: 1119270b
 2f4:	40061201 			@ <UNDEFINED> instruction: 40061201
 2f8:	19429718 			@ <UNDEFINED> instruction: 19429718
 2fc:	2e080000 			@ <UNDEFINED> instruction: 2e080000
 300:	03193f00 			@ <UNDEFINED> instruction: 03193f00
 304:	3b0b3a0e 			@ <UNDEFINED> instruction: 3b0b3a0e
 308:	270b390b 			@ <UNDEFINED> instruction: 270b390b
 30c:	11134919 			@ <UNDEFINED> instruction: 11134919
 310:	40061201 			@ <UNDEFINED> instruction: 40061201
 314:	19429718 			@ <UNDEFINED> instruction: 19429718
 318:	2e090000 			@ <UNDEFINED> instruction: 2e090000
 31c:	03193f01 			@ <UNDEFINED> instruction: 03193f01
 320:	3b0b3a0e 			@ <UNDEFINED> instruction: 3b0b3a0e
 324:	270b390b 			@ <UNDEFINED> instruction: 270b390b
 328:	12011119 			@ <UNDEFINED> instruction: 12011119
 32c:	97184006 			@ <UNDEFINED> instruction: 97184006
 330:	13011942 	movwne	r1, #6466	@ 0x1942
 334:	050a0000 			@ <UNDEFINED> instruction: 050a0000
 338:	3a080300 			@ <UNDEFINED> instruction: 3a080300
 33c:	390b3b0b 			@ <UNDEFINED> instruction: 390b3b0b
 340:	0213490b 			@ <UNDEFINED> instruction: 0213490b
 344:	0b000018 			@ <UNDEFINED> instruction: 0b000018
 348:	0e030005 			@ <UNDEFINED> instruction: 0e030005
 34c:	0b3b0b3a 			@ <UNDEFINED> instruction: 0b3b0b3a
 350:	13490b39 	movtne	r0, #39737	@ 0x9b39
 354:	00001802 			@ <UNDEFINED> instruction: 00001802
 358:	3f012e0c 			@ <UNDEFINED> instruction: 3f012e0c
 35c:	3a0e0319 			@ <UNDEFINED> instruction: 3a0e0319
 360:	390b3b0b 			@ <UNDEFINED> instruction: 390b3b0b
 364:	4919270b 			@ <UNDEFINED> instruction: 4919270b
 368:	12011113 			@ <UNDEFINED> instruction: 12011113
 36c:	96184006 			@ <UNDEFINED> instruction: 96184006
 370:	13011942 	movwne	r1, #6466	@ 0x1942
 374:	340d0000 			@ <UNDEFINED> instruction: 340d0000
 378:	3a080300 			@ <UNDEFINED> instruction: 3a080300
 37c:	390b3b0b 			@ <UNDEFINED> instruction: 390b3b0b
 380:	0213490b 			@ <UNDEFINED> instruction: 0213490b
 384:	0e000018 			@ <UNDEFINED> instruction: 0e000018
 388:	0e03012e 			@ <UNDEFINED> instruction: 0e03012e
 38c:	0b3b0b3a 			@ <UNDEFINED> instruction: 0b3b0b3a
 390:	19270b39 			@ <UNDEFINED> instruction: 19270b39
 394:	01111349 			@ <UNDEFINED> instruction: 01111349
 398:	18400612 			@ <UNDEFINED> instruction: 18400612
 39c:	00194297 			@ <UNDEFINED> instruction: 00194297
 3a0:	11010000 			@ <UNDEFINED> instruction: 11010000
 3a4:	130e2501 	movwne	r2, #58625	@ 0xe501
 3a8:	1b0e030b 			@ <UNDEFINED> instruction: 1b0e030b
 3ac:	1117550e 			@ <UNDEFINED> instruction: 1117550e
 3b0:	99171001 			@ <UNDEFINED> instruction: 99171001
 3b4:	00001742 			@ <UNDEFINED> instruction: 00001742
 3b8:	0b002402 			@ <UNDEFINED> instruction: 0b002402
 3bc:	030b3e0b 	movweq	r3, #48651	@ 0xbe0b
 3c0:	0300000e 	movweq	r0, #14
 3c4:	0e030016 			@ <UNDEFINED> instruction: 0e030016
 3c8:	0b3b0b3a 			@ <UNDEFINED> instruction: 0b3b0b3a
 3cc:	13490b39 	movtne	r0, #39737	@ 0x9b39
 3d0:	26040000 			@ <UNDEFINED> instruction: 26040000
 3d4:	00134900 			@ <UNDEFINED> instruction: 00134900
 3d8:	00350500 			@ <UNDEFINED> instruction: 00350500
 3dc:	00001349 			@ <UNDEFINED> instruction: 00001349
 3e0:	0b002406 			@ <UNDEFINED> instruction: 0b002406
 3e4:	030b3e0b 	movweq	r3, #48651	@ 0xbe0b
 3e8:	07000008 			@ <UNDEFINED> instruction: 07000008
 3ec:	0b0b000f 			@ <UNDEFINED> instruction: 0b0b000f
 3f0:	00001349 			@ <UNDEFINED> instruction: 00001349
 3f4:	3e010408 			@ <UNDEFINED> instruction: 3e010408
 3f8:	490b0b0b 			@ <UNDEFINED> instruction: 490b0b0b
 3fc:	3b0b3a13 			@ <UNDEFINED> instruction: 3b0b3a13
 400:	010b390b 			@ <UNDEFINED> instruction: 010b390b
 404:	09000013 			@ <UNDEFINED> instruction: 09000013
 408:	0e030028 			@ <UNDEFINED> instruction: 0e030028
 40c:	00000b1c 			@ <UNDEFINED> instruction: 00000b1c
 410:	0300280a 	movweq	r2, #2058	@ 0x80a
 414:	000d1c0e 			@ <UNDEFINED> instruction: 000d1c0e
 418:	01130b00 			@ <UNDEFINED> instruction: 01130b00
 41c:	0b3a0b0b 			@ <UNDEFINED> instruction: 0b3a0b0b
 420:	0b390b3b 			@ <UNDEFINED> instruction: 0b390b3b
 424:	00001301 			@ <UNDEFINED> instruction: 00001301
 428:	03000d0c 	movweq	r0, #3340	@ 0xd0c
 42c:	3b0b3a0e 			@ <UNDEFINED> instruction: 3b0b3a0e
 430:	490b390b 			@ <UNDEFINED> instruction: 490b390b
 434:	000b3813 			@ <UNDEFINED> instruction: 000b3813
 438:	012e0d00 			@ <UNDEFINED> instruction: 012e0d00
 43c:	0e03193f 			@ <UNDEFINED> instruction: 0e03193f
 440:	053b0b3a 			@ <UNDEFINED> instruction: 053b0b3a
 444:	19270b39 			@ <UNDEFINED> instruction: 19270b39
 448:	01111349 			@ <UNDEFINED> instruction: 01111349
 44c:	18400612 			@ <UNDEFINED> instruction: 18400612
 450:	01194296 			@ <UNDEFINED> instruction: 01194296
 454:	0e000013 			@ <UNDEFINED> instruction: 0e000013
 458:	08030005 			@ <UNDEFINED> instruction: 08030005
 45c:	053b0b3a 			@ <UNDEFINED> instruction: 053b0b3a
 460:	13490b39 	movtne	r0, #39737	@ 0x9b39
 464:	00001802 			@ <UNDEFINED> instruction: 00001802
 468:	0300340f 	movweq	r3, #1039	@ 0x40f
 46c:	3b0b3a0e 			@ <UNDEFINED> instruction: 3b0b3a0e
 470:	490b3905 			@ <UNDEFINED> instruction: 490b3905
 474:	00180213 			@ <UNDEFINED> instruction: 00180213
 478:	010b1000 			@ <UNDEFINED> instruction: 010b1000
 47c:	06120111 			@ <UNDEFINED> instruction: 06120111
 480:	34110000 			@ <UNDEFINED> instruction: 34110000
 484:	3a080300 			@ <UNDEFINED> instruction: 3a080300
 488:	39053b0b 			@ <UNDEFINED> instruction: 39053b0b
 48c:	0213490b 			@ <UNDEFINED> instruction: 0213490b
 490:	12000018 			@ <UNDEFINED> instruction: 12000018
 494:	193f012e 			@ <UNDEFINED> instruction: 193f012e
 498:	0b3a0e03 			@ <UNDEFINED> instruction: 0b3a0e03
 49c:	0b390b3b 			@ <UNDEFINED> instruction: 0b390b3b
 4a0:	13491927 	movtne	r1, #39207	@ 0x9927
 4a4:	06120111 			@ <UNDEFINED> instruction: 06120111
 4a8:	42961840 			@ <UNDEFINED> instruction: 42961840
 4ac:	00130119 			@ <UNDEFINED> instruction: 00130119
 4b0:	00051300 			@ <UNDEFINED> instruction: 00051300
 4b4:	0b3a0803 			@ <UNDEFINED> instruction: 0b3a0803
 4b8:	0b390b3b 			@ <UNDEFINED> instruction: 0b390b3b
 4bc:	18021349 			@ <UNDEFINED> instruction: 18021349
 4c0:	05140000 			@ <UNDEFINED> instruction: 05140000
 4c4:	3a0e0300 			@ <UNDEFINED> instruction: 3a0e0300
 4c8:	390b3b0b 			@ <UNDEFINED> instruction: 390b3b0b
 4cc:	0213490b 			@ <UNDEFINED> instruction: 0213490b
 4d0:	15000018 			@ <UNDEFINED> instruction: 15000018
 4d4:	0e030034 			@ <UNDEFINED> instruction: 0e030034
 4d8:	0b3b0b3a 			@ <UNDEFINED> instruction: 0b3b0b3a
 4dc:	13490b39 	movtne	r0, #39737	@ 0x9b39
 4e0:	00001802 			@ <UNDEFINED> instruction: 00001802
 4e4:	03003416 	movweq	r3, #1046	@ 0x416
 4e8:	3b0b3a08 			@ <UNDEFINED> instruction: 3b0b3a08
 4ec:	490b390b 			@ <UNDEFINED> instruction: 490b390b
 4f0:	00180213 			@ <UNDEFINED> instruction: 00180213
 4f4:	012e1700 			@ <UNDEFINED> instruction: 012e1700
 4f8:	0b3a0e03 			@ <UNDEFINED> instruction: 0b3a0e03
 4fc:	0b390b3b 			@ <UNDEFINED> instruction: 0b390b3b
 500:	13491927 	movtne	r1, #39207	@ 0x9927
 504:	06120111 			@ <UNDEFINED> instruction: 06120111
 508:	42971840 			@ <UNDEFINED> instruction: 42971840
 50c:	00130119 			@ <UNDEFINED> instruction: 00130119
 510:	012e1800 			@ <UNDEFINED> instruction: 012e1800
 514:	0b3a0e03 			@ <UNDEFINED> instruction: 0b3a0e03
 518:	0b390b3b 			@ <UNDEFINED> instruction: 0b390b3b
 51c:	13491927 	movtne	r1, #39207	@ 0x9927
 520:	06120111 			@ <UNDEFINED> instruction: 06120111
 524:	42971840 			@ <UNDEFINED> instruction: 42971840
 528:	00000019 			@ <UNDEFINED> instruction: 00000019
 52c:	25011101 			@ <UNDEFINED> instruction: 25011101
 530:	030b130e 	movweq	r1, #45838	@ 0xb30e
 534:	550e1b0e 			@ <UNDEFINED> instruction: 550e1b0e
 538:	10011117 			@ <UNDEFINED> instruction: 10011117
 53c:	17429917 	smlaldne	r9, r2, r7, r9
 540:	24020000 			@ <UNDEFINED> instruction: 24020000
 544:	3e0b0b00 	vmlacc.f64	d0, d11, d0
 548:	000e030b 			@ <UNDEFINED> instruction: 000e030b
 54c:	00160300 			@ <UNDEFINED> instruction: 00160300
 550:	0b3a0e03 			@ <UNDEFINED> instruction: 0b3a0e03
 554:	0b390b3b 			@ <UNDEFINED> instruction: 0b390b3b
 558:	00001349 			@ <UNDEFINED> instruction: 00001349
 55c:	0b002404 			@ <UNDEFINED> instruction: 0b002404
 560:	030b3e0b 	movweq	r3, #48651	@ 0xbe0b
 564:	05000008 			@ <UNDEFINED> instruction: 05000008
 568:	0e030034 			@ <UNDEFINED> instruction: 0e030034
 56c:	0b3b0b3a 			@ <UNDEFINED> instruction: 0b3b0b3a
 570:	13490b39 	movtne	r0, #39737	@ 0x9b39
 574:	193c193f 			@ <UNDEFINED> instruction: 193c193f
 578:	16060000 			@ <UNDEFINED> instruction: 16060000
 57c:	3a0e0300 			@ <UNDEFINED> instruction: 3a0e0300
 580:	39053b0b 			@ <UNDEFINED> instruction: 39053b0b
 584:	0013490b 			@ <UNDEFINED> instruction: 0013490b
 588:	000f0700 			@ <UNDEFINED> instruction: 000f0700
 58c:	13490b0b 	movtne	r0, #39691	@ 0x9b0b
 590:	26080000 			@ <UNDEFINED> instruction: 26080000
 594:	00134900 			@ <UNDEFINED> instruction: 00134900
 598:	00150900 			@ <UNDEFINED> instruction: 00150900
 59c:	00001927 			@ <UNDEFINED> instruction: 00001927
 5a0:	4901010a 			@ <UNDEFINED> instruction: 4901010a
 5a4:	00130113 			@ <UNDEFINED> instruction: 00130113
 5a8:	00210b00 			@ <UNDEFINED> instruction: 00210b00
 5ac:	0b2f1349 			@ <UNDEFINED> instruction: 0b2f1349
 5b0:	340c0000 			@ <UNDEFINED> instruction: 340c0000
 5b4:	3a0e0300 			@ <UNDEFINED> instruction: 3a0e0300
 5b8:	39053b0b 			@ <UNDEFINED> instruction: 39053b0b
 5bc:	3f13490b 			@ <UNDEFINED> instruction: 3f13490b
 5c0:	00180219 			@ <UNDEFINED> instruction: 00180219
 5c4:	002e0d00 			@ <UNDEFINED> instruction: 002e0d00
 5c8:	0e03193f 			@ <UNDEFINED> instruction: 0e03193f
 5cc:	0b3b0b3a 			@ <UNDEFINED> instruction: 0b3b0b3a
 5d0:	19270b39 			@ <UNDEFINED> instruction: 19270b39
 5d4:	193c1349 			@ <UNDEFINED> instruction: 193c1349
 5d8:	2e0e0000 			@ <UNDEFINED> instruction: 2e0e0000
 5dc:	03193f00 			@ <UNDEFINED> instruction: 03193f00
 5e0:	3b0b3a0e 			@ <UNDEFINED> instruction: 3b0b3a0e
 5e4:	270b3905 			@ <UNDEFINED> instruction: 270b3905
 5e8:	19018719 			@ <UNDEFINED> instruction: 19018719
 5ec:	06120111 			@ <UNDEFINED> instruction: 06120111
 5f0:	42971840 			@ <UNDEFINED> instruction: 42971840
 5f4:	0f000019 			@ <UNDEFINED> instruction: 0f000019
 5f8:	193f012e 			@ <UNDEFINED> instruction: 193f012e
 5fc:	0b3a0e03 			@ <UNDEFINED> instruction: 0b3a0e03
 600:	0b39053b 			@ <UNDEFINED> instruction: 0b39053b
 604:	01111927 			@ <UNDEFINED> instruction: 01111927
 608:	18400612 			@ <UNDEFINED> instruction: 18400612
 60c:	01194296 			@ <UNDEFINED> instruction: 01194296
 610:	10000013 			@ <UNDEFINED> instruction: 10000013
 614:	0e030034 			@ <UNDEFINED> instruction: 0e030034
 618:	053b0b3a 			@ <UNDEFINED> instruction: 053b0b3a
 61c:	13490b39 	movtne	r0, #39737	@ 0x9b39
 620:	00001802 			@ <UNDEFINED> instruction: 00001802
 624:	03003411 	movweq	r3, #1041	@ 0x411
 628:	3b0b3a08 			@ <UNDEFINED> instruction: 3b0b3a08
 62c:	490b3905 			@ <UNDEFINED> instruction: 490b3905
 630:	00180213 			@ <UNDEFINED> instruction: 00180213
 634:	010b1200 			@ <UNDEFINED> instruction: 010b1200
 638:	06120111 			@ <UNDEFINED> instruction: 06120111
 63c:	00001301 			@ <UNDEFINED> instruction: 00001301
 640:	11010b13 			@ <UNDEFINED> instruction: 11010b13
 644:	00061201 			@ <UNDEFINED> instruction: 00061201
 648:	002e1400 			@ <UNDEFINED> instruction: 002e1400
 64c:	0e03193f 			@ <UNDEFINED> instruction: 0e03193f
 650:	053b0b3a 			@ <UNDEFINED> instruction: 053b0b3a
 654:	19270b39 			@ <UNDEFINED> instruction: 19270b39
 658:	06120111 			@ <UNDEFINED> instruction: 06120111
 65c:	42971840 			@ <UNDEFINED> instruction: 42971840
 660:	00000019 			@ <UNDEFINED> instruction: 00000019

Disassembly of section .debug_aranges:

00000000 <.debug_aranges>:
{
   0:	00000024 			@ <UNDEFINED> instruction: 00000024
   4:	00000002 			@ <UNDEFINED> instruction: 00000002
    GPIO_Status_t status = gpio_validate_config(cfg);
   8:	00040000 			@ <UNDEFINED> instruction: 00040000
   c:	00000000 			@ <UNDEFINED> instruction: 00000000
  10:	080001c4 			@ <UNDEFINED> instruction: 080001c4
    if (status != GPIO_OK) {
  14:	00000008 			@ <UNDEFINED> instruction: 00000008
  18:	080001cc 			@ <UNDEFINED> instruction: 080001cc
        return status;
  1c:	0000009c 			@ <UNDEFINED> instruction: 0000009c
	...
        (volatile uint32_t *)((uintptr_t)cfg->port_base + GPIO_OTYPER_OFFSET);
  28:	00000054 			@ <UNDEFINED> instruction: 00000054
    volatile uint32_t *otyper  =
  2c:	03590002 			@ <UNDEFINED> instruction: 03590002
        (volatile uint32_t *)((uintptr_t)cfg->port_base + GPIO_OSPEEDR_OFFSET);
  30:	00040000 			@ <UNDEFINED> instruction: 00040000
    volatile uint32_t *ospeedr =
  34:	00000000 			@ <UNDEFINED> instruction: 00000000
        (volatile uint32_t *)((uintptr_t)cfg->port_base + GPIO_PUPDR_OFFSET);
  38:	08000268 			@ <UNDEFINED> instruction: 08000268
    volatile uint32_t *pupdr   =
  3c:	00000074 			@ <UNDEFINED> instruction: 00000074
    gpio_set_2bit_field(moder,   cfg->pin, GPIO_MODER_MASK,   GPIO_MODER_ANALOG);
  40:	080002dc 			@ <UNDEFINED> instruction: 080002dc
  44:	00000044 			@ <UNDEFINED> instruction: 00000044
  48:	08000320 			@ <UNDEFINED> instruction: 08000320
    gpio_set_2bit_field(ospeedr, cfg->pin, GPIO_OSPEEDR_MASK, GPIO_OSPEEDR_LOW);
  4c:	00000062 			@ <UNDEFINED> instruction: 00000062
  50:	08000384 			@ <UNDEFINED> instruction: 08000384
  54:	00000114 			@ <UNDEFINED> instruction: 00000114
  58:	00000000 			@ <UNDEFINED> instruction: 00000000
    gpio_set_2bit_field(pupdr,   cfg->pin, GPIO_PUPDR_MASK,   GPIO_PUPDR_NONE);
  5c:	0000005c 			@ <UNDEFINED> instruction: 0000005c
  60:	00000000 			@ <UNDEFINED> instruction: 00000000
  64:	0000005e 			@ <UNDEFINED> instruction: 0000005e
    *otyper &= ~(1UL << cfg->pin);
  68:	00000000 			@ <UNDEFINED> instruction: 00000000
  6c:	0000006c 			@ <UNDEFINED> instruction: 0000006c
  70:	00000000 			@ <UNDEFINED> instruction: 00000000
  74:	00000088 			@ <UNDEFINED> instruction: 00000088
	...
}
  80:	0000007c 			@ <UNDEFINED> instruction: 0000007c
  84:	08070002 			@ <UNDEFINED> instruction: 08070002
        return UART_ERR_OVERRUN;
  88:	00040000 			@ <UNDEFINED> instruction: 00040000
	...
    if (sr_snapshot & USART_SR_FE) {
  94:	00000044 			@ <UNDEFINED> instruction: 00000044
        return UART_ERR_FRAMING;
  98:	00000000 			@ <UNDEFINED> instruction: 00000000
  9c:	0000002c 			@ <UNDEFINED> instruction: 0000002c
}
  a0:	00000000 			@ <UNDEFINED> instruction: 00000000
  a4:	00000028 			@ <UNDEFINED> instruction: 00000028
  a8:	00000000 			@ <UNDEFINED> instruction: 00000000
  ac:	0000002c 			@ <UNDEFINED> instruction: 0000002c
  b0:	00000000 			@ <UNDEFINED> instruction: 00000000
  b4:	00000028 			@ <UNDEFINED> instruction: 00000028
  b8:	00000000 			@ <UNDEFINED> instruction: 00000000
  bc:	0000002c 			@ <UNDEFINED> instruction: 0000002c
  c0:	00000000 			@ <UNDEFINED> instruction: 00000000
  c4:	00000028 			@ <UNDEFINED> instruction: 00000028
  c8:	00000000 			@ <UNDEFINED> instruction: 00000000
  cc:	00000040 			@ <UNDEFINED> instruction: 00000040
  d0:	00000000 			@ <UNDEFINED> instruction: 00000000
  d4:	0000001c 			@ <UNDEFINED> instruction: 0000001c
  d8:	08000498 			@ <UNDEFINED> instruction: 08000498
  dc:	00000050 			@ <UNDEFINED> instruction: 00000050
  e0:	080004e8 			@ <UNDEFINED> instruction: 080004e8
  e4:	00000034 			@ <UNDEFINED> instruction: 00000034
  e8:	00000000 			@ <UNDEFINED> instruction: 00000000
  ec:	00000018 			@ <UNDEFINED> instruction: 00000018
  f0:	0800051c 			@ <UNDEFINED> instruction: 0800051c
  f4:	0000001c 			@ <UNDEFINED> instruction: 0000001c
	...
 100:	0000005c 			@ <UNDEFINED> instruction: 0000005c
 104:	0aa10002 			@ <UNDEFINED> instruction: 0aa10002
 108:	00040000 			@ <UNDEFINED> instruction: 00040000
 10c:	00000000 			@ <UNDEFINED> instruction: 00000000
 110:	08000538 			@ <UNDEFINED> instruction: 08000538
 114:	00000078 			@ <UNDEFINED> instruction: 00000078
 118:	080005b0 			@ <UNDEFINED> instruction: 080005b0
 11c:	0000001c 			@ <UNDEFINED> instruction: 0000001c
 120:	080005cc 			@ <UNDEFINED> instruction: 080005cc
 124:	0000019a 			@ <UNDEFINED> instruction: 0000019a
 128:	08000768 			@ <UNDEFINED> instruction: 08000768
 12c:	00000078 			@ <UNDEFINED> instruction: 00000078
 130:	00000000 			@ <UNDEFINED> instruction: 00000000
 134:	00000058 			@ <UNDEFINED> instruction: 00000058
 138:	00000000 			@ <UNDEFINED> instruction: 00000000
 13c:	000000ac 			@ <UNDEFINED> instruction: 000000ac
 140:	00000000 			@ <UNDEFINED> instruction: 00000000
 144:	00000056 			@ <UNDEFINED> instruction: 00000056
 148:	080007e0 			@ <UNDEFINED> instruction: 080007e0
 14c:	0000004c 			@ <UNDEFINED> instruction: 0000004c
 150:	00000000 			@ <UNDEFINED> instruction: 00000000
 154:	0000008e 			@ <UNDEFINED> instruction: 0000008e
	...
 160:	0000002c 			@ <UNDEFINED> instruction: 0000002c
 164:	0f8e0002 			@ <UNDEFINED> instruction: 0f8e0002
 168:	00040000 			@ <UNDEFINED> instruction: 00040000
 16c:	00000000 			@ <UNDEFINED> instruction: 00000000
 170:	0800082c 			@ <UNDEFINED> instruction: 0800082c
 174:	0000000e 			@ <UNDEFINED> instruction: 0000000e
 178:	0800083c 			@ <UNDEFINED> instruction: 0800083c
 17c:	00000084 			@ <UNDEFINED> instruction: 00000084
 180:	080008c0 			@ <UNDEFINED> instruction: 080008c0
 184:	00000008 			@ <UNDEFINED> instruction: 00000008
	...

Disassembly of section .debug_ranges:

00000000 <.debug_ranges>:
{
   0:	080001c4 			@ <UNDEFINED> instruction: 080001c4
   4:	080001cc 			@ <UNDEFINED> instruction: 080001cc
    GPIO_Status_t status = gpio_validate_config(cfg);
   8:	080001cc 			@ <UNDEFINED> instruction: 080001cc
   c:	08000268 			@ <UNDEFINED> instruction: 08000268
	...
    if (status != GPIO_OK) {
  18:	08000268 			@ <UNDEFINED> instruction: 08000268
        return status;
  1c:	080002dc 			@ <UNDEFINED> instruction: 080002dc
    volatile uint32_t *moder   =
  20:	080002dc 			@ <UNDEFINED> instruction: 080002dc
  24:	08000320 			@ <UNDEFINED> instruction: 08000320
        (volatile uint32_t *)((uintptr_t)cfg->port_base + GPIO_OTYPER_OFFSET);
  28:	08000320 			@ <UNDEFINED> instruction: 08000320
    volatile uint32_t *otyper  =
  2c:	08000382 			@ <UNDEFINED> instruction: 08000382
        (volatile uint32_t *)((uintptr_t)cfg->port_base + GPIO_OSPEEDR_OFFSET);
  30:	08000384 			@ <UNDEFINED> instruction: 08000384
    volatile uint32_t *ospeedr =
  34:	08000498 			@ <UNDEFINED> instruction: 08000498
        (volatile uint32_t *)((uintptr_t)cfg->port_base + GPIO_PUPDR_OFFSET);
  38:	00000001 			@ <UNDEFINED> instruction: 00000001
    volatile uint32_t *pupdr   =
  3c:	00000001 			@ <UNDEFINED> instruction: 00000001
    gpio_set_2bit_field(moder,   cfg->pin, GPIO_MODER_MASK,   GPIO_MODER_ANALOG);
  40:	00000001 			@ <UNDEFINED> instruction: 00000001
  44:	00000001 			@ <UNDEFINED> instruction: 00000001
  48:	00000001 			@ <UNDEFINED> instruction: 00000001
    gpio_set_2bit_field(ospeedr, cfg->pin, GPIO_OSPEEDR_MASK, GPIO_OSPEEDR_LOW);
  4c:	00000001 			@ <UNDEFINED> instruction: 00000001
  50:	00000001 			@ <UNDEFINED> instruction: 00000001
  54:	00000001 			@ <UNDEFINED> instruction: 00000001
	...
    gpio_set_2bit_field(pupdr,   cfg->pin, GPIO_PUPDR_MASK,   GPIO_PUPDR_NONE);
  60:	00000001 			@ <UNDEFINED> instruction: 00000001
  64:	00000001 			@ <UNDEFINED> instruction: 00000001
    *otyper &= ~(1UL << cfg->pin);
  68:	00000001 			@ <UNDEFINED> instruction: 00000001
  6c:	00000001 			@ <UNDEFINED> instruction: 00000001
  70:	00000001 			@ <UNDEFINED> instruction: 00000001
  74:	00000001 			@ <UNDEFINED> instruction: 00000001
  78:	00000001 			@ <UNDEFINED> instruction: 00000001
  7c:	00000001 			@ <UNDEFINED> instruction: 00000001
}
  80:	00000001 			@ <UNDEFINED> instruction: 00000001
  84:	00000001 			@ <UNDEFINED> instruction: 00000001
        return UART_ERR_OVERRUN;
  88:	00000001 			@ <UNDEFINED> instruction: 00000001
  8c:	00000001 			@ <UNDEFINED> instruction: 00000001
    if (sr_snapshot & USART_SR_FE) {
  90:	00000001 			@ <UNDEFINED> instruction: 00000001
  94:	00000001 			@ <UNDEFINED> instruction: 00000001
        return UART_ERR_FRAMING;
  98:	00000001 			@ <UNDEFINED> instruction: 00000001
  9c:	00000001 			@ <UNDEFINED> instruction: 00000001
}
  a0:	00000001 			@ <UNDEFINED> instruction: 00000001
  a4:	00000001 			@ <UNDEFINED> instruction: 00000001
  a8:	08000498 			@ <UNDEFINED> instruction: 08000498
  ac:	080004e8 			@ <UNDEFINED> instruction: 080004e8
  b0:	080004e8 			@ <UNDEFINED> instruction: 080004e8
  b4:	0800051c 			@ <UNDEFINED> instruction: 0800051c
  b8:	00000001 			@ <UNDEFINED> instruction: 00000001
  bc:	00000001 			@ <UNDEFINED> instruction: 00000001
  c0:	0800051c 			@ <UNDEFINED> instruction: 0800051c
  c4:	08000538 			@ <UNDEFINED> instruction: 08000538
	...
  d0:	08000538 			@ <UNDEFINED> instruction: 08000538
  d4:	080005b0 			@ <UNDEFINED> instruction: 080005b0
  d8:	080005b0 			@ <UNDEFINED> instruction: 080005b0
  dc:	080005cc 			@ <UNDEFINED> instruction: 080005cc
  e0:	080005cc 			@ <UNDEFINED> instruction: 080005cc
  e4:	08000766 			@ <UNDEFINED> instruction: 08000766
  e8:	08000768 			@ <UNDEFINED> instruction: 08000768
  ec:	080007e0 			@ <UNDEFINED> instruction: 080007e0
  f0:	00000001 			@ <UNDEFINED> instruction: 00000001
  f4:	00000001 			@ <UNDEFINED> instruction: 00000001
  f8:	00000001 			@ <UNDEFINED> instruction: 00000001
  fc:	00000001 			@ <UNDEFINED> instruction: 00000001
 100:	00000001 			@ <UNDEFINED> instruction: 00000001
 104:	00000001 			@ <UNDEFINED> instruction: 00000001
 108:	080007e0 			@ <UNDEFINED> instruction: 080007e0
 10c:	0800082c 			@ <UNDEFINED> instruction: 0800082c
 110:	00000001 			@ <UNDEFINED> instruction: 00000001
 114:	00000001 			@ <UNDEFINED> instruction: 00000001
	...
 120:	0800082c 			@ <UNDEFINED> instruction: 0800082c
 124:	0800083a 			@ <UNDEFINED> instruction: 0800083a
 128:	0800083c 			@ <UNDEFINED> instruction: 0800083c
 12c:	080008c0 			@ <UNDEFINED> instruction: 080008c0
 130:	080008c0 			@ <UNDEFINED> instruction: 080008c0
 134:	080008c8 			@ <UNDEFINED> instruction: 080008c8
	...

Disassembly of section .debug_macro:

00000000 <.debug_macro>:
{
       0:	00020004 			@ <UNDEFINED> instruction: 00020004
       4:	07000000 			@ <UNDEFINED> instruction: 07000000
    GPIO_Status_t status = gpio_validate_config(cfg);
       8:	00000064 			@ <UNDEFINED> instruction: 00000064
       c:	03010003 	movweq	r0, #4099	@ 0x1003
      10:	1605043e 			@ <UNDEFINED> instruction: 1605043e
    if (status != GPIO_OK) {
      14:	00000d37 			@ <UNDEFINED> instruction: 00000d37
      18:	03061803 	movweq	r1, #26627	@ 0x6803
        return status;
      1c:	3607020b 			@ <UNDEFINED> instruction: 3607020b
    volatile uint32_t *moder   =
      20:	0400000b 			@ <UNDEFINED> instruction: 0400000b
      24:	1af00d05 			@ <UNDEFINED> instruction: 1af00d05
        (volatile uint32_t *)((uintptr_t)cfg->port_base + GPIO_OTYPER_OFFSET);
      28:	03040000 	movweq	r0, #16384	@ 0x4000
    volatile uint32_t *otyper  =
      2c:	84070719 			@ <UNDEFINED> instruction: 84070719
        (volatile uint32_t *)((uintptr_t)cfg->port_base + GPIO_OSPEEDR_OFFSET);
      30:	0400000e 			@ <UNDEFINED> instruction: 0400000e
    volatile uint32_t *ospeedr =
      34:	07051a03 			@ <UNDEFINED> instruction: 07051a03
        (volatile uint32_t *)((uintptr_t)cfg->port_base + GPIO_PUPDR_OFFSET);
      38:	00001014 			@ <UNDEFINED> instruction: 00001014
    volatile uint32_t *pupdr   =
      3c:	031b0304 			@ <UNDEFINED> instruction: 031b0304
    gpio_set_2bit_field(moder,   cfg->pin, GPIO_MODER_MASK,   GPIO_MODER_ANALOG);
      40:	4efd1005 			@ <UNDEFINED> instruction: 4efd1005
      44:	13030000 	movwne	r0, #12288	@ 0x3000
      48:	39070407 			@ <UNDEFINED> instruction: 39070407
    gpio_set_2bit_field(ospeedr, cfg->pin, GPIO_OSPEEDR_MASK, GPIO_OSPEEDR_LOW);
      4c:	04000012 			@ <UNDEFINED> instruction: 04000012
      50:	0013e407 			@ <UNDEFINED> instruction: 0013e407
      54:	43050400 	movwmi	r0, #21504	@ 0x5400
      58:	0000370c 			@ <UNDEFINED> instruction: 0000370c
    gpio_set_2bit_field(pupdr,   cfg->pin, GPIO_PUPDR_MASK,   GPIO_PUPDR_NONE);
      5c:	079a4405 			@ <UNDEFINED> instruction: 079a4405
      60:	00040000 			@ <UNDEFINED> instruction: 00040000
      64:	05000004 			@ <UNDEFINED> instruction: 05000004
    *otyper &= ~(1UL << cfg->pin);
      68:	00508b00 			@ <UNDEFINED> instruction: 00508b00
      6c:	7d000500 			@ <UNDEFINED> instruction: 7d000500
      70:	05000024 			@ <UNDEFINED> instruction: 05000024
      74:	00378b00 			@ <UNDEFINED> instruction: 00378b00
      78:	82000500 			@ <UNDEFINED> instruction: 82000500
      7c:	05000015 			@ <UNDEFINED> instruction: 05000015
}
      80:	0005b400 			@ <UNDEFINED> instruction: 0005b400
      84:	3e000500 			@ <UNDEFINED> instruction: 3e000500
        return UART_ERR_OVERRUN;
      88:	0500002e 			@ <UNDEFINED> instruction: 0500002e
      8c:	00497200 			@ <UNDEFINED> instruction: 00497200
    if (sr_snapshot & USART_SR_FE) {
      90:	2f000500 			@ <UNDEFINED> instruction: 2f000500
      94:	05000014 			@ <UNDEFINED> instruction: 05000014
        return UART_ERR_FRAMING;
      98:	00008700 			@ <UNDEFINED> instruction: 00008700
      9c:	5f000500 			@ <UNDEFINED> instruction: 5f000500
}
      a0:	0500004d 			@ <UNDEFINED> instruction: 0500004d
      a4:	00168900 			@ <UNDEFINED> instruction: 00168900
      a8:	ff000500 			@ <UNDEFINED> instruction: ff000500
      ac:	05000024 			@ <UNDEFINED> instruction: 05000024
      b0:	002c0900 			@ <UNDEFINED> instruction: 002c0900
      b4:	23000500 	movwcs	r0, #1280	@ 0x500
      b8:	05000059 			@ <UNDEFINED> instruction: 05000059
      bc:	00023300 			@ <UNDEFINED> instruction: 00023300
      c0:	99000500 			@ <UNDEFINED> instruction: 99000500
      c4:	05000044 			@ <UNDEFINED> instruction: 05000044
      c8:	0002a800 			@ <UNDEFINED> instruction: 0002a800
      cc:	a7000500 			@ <UNDEFINED> instruction: a7000500
      d0:	05000011 			@ <UNDEFINED> instruction: 05000011
      d4:	0002dc00 			@ <UNDEFINED> instruction: 0002dc00
      d8:	1e000500 			@ <UNDEFINED> instruction: 1e000500
      dc:	05000045 			@ <UNDEFINED> instruction: 05000045
      e0:	00159400 			@ <UNDEFINED> instruction: 00159400
      e4:	07000500 			@ <UNDEFINED> instruction: 07000500
      e8:	05000012 			@ <UNDEFINED> instruction: 05000012
      ec:	00185600 			@ <UNDEFINED> instruction: 00185600
      f0:	b8000500 			@ <UNDEFINED> instruction: b8000500
      f4:	0500004b 			@ <UNDEFINED> instruction: 0500004b
      f8:	00325500 			@ <UNDEFINED> instruction: 00325500
      fc:	13000500 	movwne	r0, #1280	@ 0x500
     100:	0500003d 			@ <UNDEFINED> instruction: 0500003d
     104:	00412b00 			@ <UNDEFINED> instruction: 00412b00
     108:	5e000500 			@ <UNDEFINED> instruction: 5e000500
     10c:	05000009 			@ <UNDEFINED> instruction: 05000009
     110:	0003d500 			@ <UNDEFINED> instruction: 0003d500
     114:	6d000500 			@ <UNDEFINED> instruction: 6d000500
     118:	05000033 			@ <UNDEFINED> instruction: 05000033
     11c:	0038e200 			@ <UNDEFINED> instruction: 0038e200
     120:	08000500 			@ <UNDEFINED> instruction: 08000500
     124:	0500000f 			@ <UNDEFINED> instruction: 0500000f
     128:	0012a300 			@ <UNDEFINED> instruction: 0012a300
     12c:	80000500 			@ <UNDEFINED> instruction: 80000500
     130:	05000010 			@ <UNDEFINED> instruction: 05000010
     134:	0003ef00 			@ <UNDEFINED> instruction: 0003ef00
     138:	d5000500 			@ <UNDEFINED> instruction: d5000500
     13c:	0500001d 			@ <UNDEFINED> instruction: 0500001d
     140:	00188b00 			@ <UNDEFINED> instruction: 00188b00
     144:	cc000500 			@ <UNDEFINED> instruction: cc000500
     148:	05000037 			@ <UNDEFINED> instruction: 05000037
     14c:	0049b600 			@ <UNDEFINED> instruction: 0049b600
     150:	14000500 			@ <UNDEFINED> instruction: 14000500
     154:	05000010 			@ <UNDEFINED> instruction: 05000010
     158:	0043d100 			@ <UNDEFINED> instruction: 0043d100
     15c:	06000500 			@ <UNDEFINED> instruction: 06000500
     160:	05000011 			@ <UNDEFINED> instruction: 05000011
     164:	0005db00 			@ <UNDEFINED> instruction: 0005db00
     168:	1f000500 			@ <UNDEFINED> instruction: 1f000500
     16c:	05000004 			@ <UNDEFINED> instruction: 05000004
     170:	0004ff00 			@ <UNDEFINED> instruction: 0004ff00
     174:	45000500 			@ <UNDEFINED> instruction: 45000500
     178:	05000046 			@ <UNDEFINED> instruction: 05000046
     17c:	00321000 			@ <UNDEFINED> instruction: 00321000
     180:	9c000500 			@ <UNDEFINED> instruction: 9c000500
     184:	0500001e 			@ <UNDEFINED> instruction: 0500001e
     188:	0027f600 			@ <UNDEFINED> instruction: 0027f600
     18c:	15000500 			@ <UNDEFINED> instruction: 15000500
     190:	05000052 			@ <UNDEFINED> instruction: 05000052
     194:	004be600 			@ <UNDEFINED> instruction: 004be600
     198:	1d000500 			@ <UNDEFINED> instruction: 1d000500
     19c:	0500000f 			@ <UNDEFINED> instruction: 0500000f
     1a0:	00560c00 			@ <UNDEFINED> instruction: 00560c00
     1a4:	5d000500 			@ <UNDEFINED> instruction: 5d000500
     1a8:	05000040 			@ <UNDEFINED> instruction: 05000040
     1ac:	005a7f00 			@ <UNDEFINED> instruction: 005a7f00
     1b0:	4d000500 			@ <UNDEFINED> instruction: 4d000500
     1b4:	05000039 			@ <UNDEFINED> instruction: 05000039
     1b8:	00438000 			@ <UNDEFINED> instruction: 00438000
     1bc:	f2000500 	vrshl.s8	d0, d0, d0
     1c0:	05000032 			@ <UNDEFINED> instruction: 05000032
     1c4:	002b1800 			@ <UNDEFINED> instruction: 002b1800
     1c8:	88000500 			@ <UNDEFINED> instruction: 88000500
     1cc:	0500000e 			@ <UNDEFINED> instruction: 0500000e
     1d0:	00431900 			@ <UNDEFINED> instruction: 00431900
     1d4:	03000500 	movweq	r0, #1280	@ 0x500
     1d8:	05000036 			@ <UNDEFINED> instruction: 05000036
     1dc:	00061b00 			@ <UNDEFINED> instruction: 00061b00
     1e0:	d3000500 	movwle	r0, #1280	@ 0x500
     1e4:	05000028 			@ <UNDEFINED> instruction: 05000028
     1e8:	00543c00 			@ <UNDEFINED> instruction: 00543c00
     1ec:	4f000500 			@ <UNDEFINED> instruction: 4f000500
     1f0:	05000015 			@ <UNDEFINED> instruction: 05000015
     1f4:	00197600 			@ <UNDEFINED> instruction: 00197600
     1f8:	f0000500 			@ <UNDEFINED> instruction: f0000500
     1fc:	0500004a 			@ <UNDEFINED> instruction: 0500004a
     200:	004b0c00 			@ <UNDEFINED> instruction: 004b0c00
     204:	3d000500 			@ <UNDEFINED> instruction: 3d000500
     208:	05000006 			@ <UNDEFINED> instruction: 05000006
     20c:	00375100 			@ <UNDEFINED> instruction: 00375100
     210:	4d000500 			@ <UNDEFINED> instruction: 4d000500
     214:	05000017 			@ <UNDEFINED> instruction: 05000017
     218:	005a6800 			@ <UNDEFINED> instruction: 005a6800
     21c:	4f000500 			@ <UNDEFINED> instruction: 4f000500
     220:	0500004c 			@ <UNDEFINED> instruction: 0500004c
     224:	003d8500 			@ <UNDEFINED> instruction: 003d8500
     228:	5a000500 			@ <UNDEFINED> instruction: 5a000500
     22c:	05000002 			@ <UNDEFINED> instruction: 05000002
     230:	002ef800 			@ <UNDEFINED> instruction: 002ef800
     234:	cc000500 			@ <UNDEFINED> instruction: cc000500
     238:	05000055 			@ <UNDEFINED> instruction: 05000055
     23c:	00557000 			@ <UNDEFINED> instruction: 00557000
     240:	70000500 			@ <UNDEFINED> instruction: 70000500
     244:	05000001 			@ <UNDEFINED> instruction: 05000001
     248:	00572b00 			@ <UNDEFINED> instruction: 00572b00
     24c:	a2000500 			@ <UNDEFINED> instruction: a2000500
     250:	05000028 			@ <UNDEFINED> instruction: 05000028
     254:	00277300 			@ <UNDEFINED> instruction: 00277300
     258:	31000500 			@ <UNDEFINED> instruction: 31000500
     25c:	0500004f 			@ <UNDEFINED> instruction: 0500004f
     260:	002e5400 			@ <UNDEFINED> instruction: 002e5400
     264:	58000500 			@ <UNDEFINED> instruction: 58000500
     268:	05000030 			@ <UNDEFINED> instruction: 05000030
     26c:	00586400 			@ <UNDEFINED> instruction: 00586400
     270:	9a000500 			@ <UNDEFINED> instruction: 9a000500
     274:	05000052 			@ <UNDEFINED> instruction: 05000052
     278:	000a9000 			@ <UNDEFINED> instruction: 000a9000
     27c:	11000500 			@ <UNDEFINED> instruction: 11000500
     280:	05000055 			@ <UNDEFINED> instruction: 05000055
     284:	0001d200 			@ <UNDEFINED> instruction: 0001d200
     288:	d0000500 			@ <UNDEFINED> instruction: d0000500
     28c:	05000031 			@ <UNDEFINED> instruction: 05000031
     290:	0059dd00 			@ <UNDEFINED> instruction: 0059dd00
     294:	f0000500 			@ <UNDEFINED> instruction: f0000500
     298:	0500000e 			@ <UNDEFINED> instruction: 0500000e
     29c:	00039900 			@ <UNDEFINED> instruction: 00039900
     2a0:	d3000500 	movwle	r0, #1280	@ 0x500
     2a4:	0500004d 			@ <UNDEFINED> instruction: 0500004d
     2a8:	0020fd00 			@ <UNDEFINED> instruction: 0020fd00
     2ac:	b7000500 			@ <UNDEFINED> instruction: b7000500
     2b0:	0500004f 			@ <UNDEFINED> instruction: 0500004f
     2b4:	0026c700 			@ <UNDEFINED> instruction: 0026c700
     2b8:	0f000500 			@ <UNDEFINED> instruction: 0f000500
     2bc:	0500004f 			@ <UNDEFINED> instruction: 0500004f
     2c0:	00293400 			@ <UNDEFINED> instruction: 00293400
     2c4:	84000500 			@ <UNDEFINED> instruction: 84000500
     2c8:	0500002d 			@ <UNDEFINED> instruction: 0500002d
     2cc:	001b2600 			@ <UNDEFINED> instruction: 001b2600
     2d0:	01000500 			@ <UNDEFINED> instruction: 01000500
     2d4:	05000017 			@ <UNDEFINED> instruction: 05000017
     2d8:	00245100 			@ <UNDEFINED> instruction: 00245100
     2dc:	e5000500 			@ <UNDEFINED> instruction: e5000500
     2e0:	05000023 			@ <UNDEFINED> instruction: 05000023
     2e4:	00249600 			@ <UNDEFINED> instruction: 00249600
     2e8:	60000500 			@ <UNDEFINED> instruction: 60000500
     2ec:	0500003e 			@ <UNDEFINED> instruction: 0500003e
     2f0:	0055e500 			@ <UNDEFINED> instruction: 0055e500
     2f4:	b3000500 	movwlt	r0, #1280	@ 0x500
     2f8:	0500001b 			@ <UNDEFINED> instruction: 0500001b
     2fc:	0058b300 			@ <UNDEFINED> instruction: 0058b300
     300:	7e000500 			@ <UNDEFINED> instruction: 7e000500
     304:	05000022 			@ <UNDEFINED> instruction: 05000022
     308:	00134400 			@ <UNDEFINED> instruction: 00134400
     30c:	30000500 			@ <UNDEFINED> instruction: 30000500
     310:	05000009 			@ <UNDEFINED> instruction: 05000009
     314:	00121b00 			@ <UNDEFINED> instruction: 00121b00
     318:	7b000500 			@ <UNDEFINED> instruction: 7b000500
     31c:	05000029 			@ <UNDEFINED> instruction: 05000029
     320:	0013da00 			@ <UNDEFINED> instruction: 0013da00
     324:	57000500 			@ <UNDEFINED> instruction: 57000500
     328:	05000026 			@ <UNDEFINED> instruction: 05000026
     32c:	00215800 			@ <UNDEFINED> instruction: 00215800
     330:	f0000500 			@ <UNDEFINED> instruction: f0000500
     334:	05000004 			@ <UNDEFINED> instruction: 05000004
     338:	0055b000 			@ <UNDEFINED> instruction: 0055b000
     33c:	e6000500 			@ <UNDEFINED> instruction: e6000500
     340:	0500004c 			@ <UNDEFINED> instruction: 0500004c
     344:	0025c200 			@ <UNDEFINED> instruction: 0025c200
     348:	ce000500 			@ <UNDEFINED> instruction: ce000500
     34c:	0500001c 			@ <UNDEFINED> instruction: 0500001c
     350:	0040b200 			@ <UNDEFINED> instruction: 0040b200
     354:	01000500 			@ <UNDEFINED> instruction: 01000500
     358:	0500002b 			@ <UNDEFINED> instruction: 0500002b
     35c:	0050f700 			@ <UNDEFINED> instruction: 0050f700
     360:	74000500 			@ <UNDEFINED> instruction: 74000500
     364:	05000037 			@ <UNDEFINED> instruction: 05000037
     368:	0044c600 			@ <UNDEFINED> instruction: 0044c600
     36c:	1b000500 			@ <UNDEFINED> instruction: 1b000500
     370:	0500000b 			@ <UNDEFINED> instruction: 0500000b
     374:	00166b00 			@ <UNDEFINED> instruction: 00166b00
     378:	80000500 			@ <UNDEFINED> instruction: 80000500
     37c:	05000051 			@ <UNDEFINED> instruction: 05000051
     380:	000d8300 			@ <UNDEFINED> instruction: 000d8300
     384:	1d000500 			@ <UNDEFINED> instruction: 1d000500
     388:	05000008 			@ <UNDEFINED> instruction: 05000008
     38c:	000abb00 			@ <UNDEFINED> instruction: 000abb00
     390:	a3000500 	movwge	r0, #1280	@ 0x500
     394:	0500000b 			@ <UNDEFINED> instruction: 0500000b
     398:	00117300 			@ <UNDEFINED> instruction: 00117300
     39c:	a3000500 	movwge	r0, #1280	@ 0x500
     3a0:	05000030 			@ <UNDEFINED> instruction: 05000030
     3a4:	000bd600 			@ <UNDEFINED> instruction: 000bd600
     3a8:	0d000500 			@ <UNDEFINED> instruction: 0d000500
     3ac:	05000031 			@ <UNDEFINED> instruction: 05000031
     3b0:	00070500 			@ <UNDEFINED> instruction: 00070500
     3b4:	f7000500 			@ <UNDEFINED> instruction: f7000500
     3b8:	05000037 			@ <UNDEFINED> instruction: 05000037
     3bc:	00278500 			@ <UNDEFINED> instruction: 00278500
     3c0:	3b000500 			@ <UNDEFINED> instruction: 3b000500
     3c4:	05000037 			@ <UNDEFINED> instruction: 05000037
     3c8:	00285100 			@ <UNDEFINED> instruction: 00285100
     3cc:	97000500 			@ <UNDEFINED> instruction: 97000500
     3d0:	05000022 			@ <UNDEFINED> instruction: 05000022
     3d4:	002fdc00 			@ <UNDEFINED> instruction: 002fdc00
     3d8:	42000500 			@ <UNDEFINED> instruction: 42000500
     3dc:	0500002c 			@ <UNDEFINED> instruction: 0500002c
     3e0:	00150900 			@ <UNDEFINED> instruction: 00150900
     3e4:	e6000500 			@ <UNDEFINED> instruction: e6000500
     3e8:	05000031 			@ <UNDEFINED> instruction: 05000031
     3ec:	0011ee00 			@ <UNDEFINED> instruction: 0011ee00
     3f0:	93000500 	movwls	r0, #1280	@ 0x500
     3f4:	05000011 			@ <UNDEFINED> instruction: 05000011
     3f8:	0015e400 			@ <UNDEFINED> instruction: 0015e400
     3fc:	22000500 			@ <UNDEFINED> instruction: 22000500
     400:	05000013 			@ <UNDEFINED> instruction: 05000013
     404:	00512b00 			@ <UNDEFINED> instruction: 00512b00
     408:	63000500 	movwvs	r0, #1280	@ 0x500
     40c:	05000041 			@ <UNDEFINED> instruction: 05000041
     410:	0019d300 			@ <UNDEFINED> instruction: 0019d300
     414:	01000500 			@ <UNDEFINED> instruction: 01000500
     418:	0500001d 			@ <UNDEFINED> instruction: 0500001d
     41c:	001c3100 			@ <UNDEFINED> instruction: 001c3100
     420:	0a000500 			@ <UNDEFINED> instruction: 0a000500
     424:	05000004 			@ <UNDEFINED> instruction: 05000004
     428:	00267000 			@ <UNDEFINED> instruction: 00267000
     42c:	8b000500 			@ <UNDEFINED> instruction: 8b000500
     430:	0500003a 			@ <UNDEFINED> instruction: 0500003a
     434:	0021fa00 			@ <UNDEFINED> instruction: 0021fa00
     438:	ec000500 			@ <UNDEFINED> instruction: ec000500
     43c:	05000047 			@ <UNDEFINED> instruction: 05000047
     440:	005a0300 			@ <UNDEFINED> instruction: 005a0300
     444:	70000500 			@ <UNDEFINED> instruction: 70000500
     448:	0500004b 			@ <UNDEFINED> instruction: 0500004b
     44c:	003ecd00 			@ <UNDEFINED> instruction: 003ecd00
     450:	44000500 			@ <UNDEFINED> instruction: 44000500
     454:	05000059 			@ <UNDEFINED> instruction: 05000059
     458:	002bdc00 			@ <UNDEFINED> instruction: 002bdc00
     45c:	0c000500 			@ <UNDEFINED> instruction: 0c000500
     460:	05000003 			@ <UNDEFINED> instruction: 05000003
     464:	004ea900 			@ <UNDEFINED> instruction: 004ea900
     468:	2b000500 			@ <UNDEFINED> instruction: 2b000500
     46c:	05000056 			@ <UNDEFINED> instruction: 05000056
     470:	0034b200 			@ <UNDEFINED> instruction: 0034b200
     474:	c5000500 			@ <UNDEFINED> instruction: c5000500
     478:	0500000d 			@ <UNDEFINED> instruction: 0500000d
     47c:	0025e400 			@ <UNDEFINED> instruction: 0025e400
     480:	a0000500 			@ <UNDEFINED> instruction: a0000500
     484:	05000035 			@ <UNDEFINED> instruction: 05000035
     488:	001b4f00 			@ <UNDEFINED> instruction: 001b4f00
     48c:	96000500 			@ <UNDEFINED> instruction: 96000500
     490:	0500004d 			@ <UNDEFINED> instruction: 0500004d
     494:	004a5e00 			@ <UNDEFINED> instruction: 004a5e00
     498:	5c000500 			@ <UNDEFINED> instruction: 5c000500
     49c:	05000011 			@ <UNDEFINED> instruction: 05000011
     4a0:	0004a900 			@ <UNDEFINED> instruction: 0004a900
     4a4:	c3000500 	movwgt	r0, #1280	@ 0x500
     4a8:	05000054 			@ <UNDEFINED> instruction: 05000054
     4ac:	00049000 			@ <UNDEFINED> instruction: 00049000
     4b0:	49000500 			@ <UNDEFINED> instruction: 49000500
     4b4:	0500003a 			@ <UNDEFINED> instruction: 0500003a
     4b8:	001b3900 			@ <UNDEFINED> instruction: 001b3900
     4bc:	14000500 			@ <UNDEFINED> instruction: 14000500
     4c0:	05000035 			@ <UNDEFINED> instruction: 05000035
     4c4:	00002000 			@ <UNDEFINED> instruction: 00002000
     4c8:	96000500 			@ <UNDEFINED> instruction: 96000500
     4cc:	05000050 			@ <UNDEFINED> instruction: 05000050
     4d0:	002f8f00 			@ <UNDEFINED> instruction: 002f8f00
     4d4:	c8000500 			@ <UNDEFINED> instruction: c8000500
     4d8:	0500003c 			@ <UNDEFINED> instruction: 0500003c
     4dc:	00171700 			@ <UNDEFINED> instruction: 00171700
     4e0:	57000500 			@ <UNDEFINED> instruction: 57000500
     4e4:	0500002b 			@ <UNDEFINED> instruction: 0500002b
     4e8:	002d5700 			@ <UNDEFINED> instruction: 002d5700
     4ec:	9e000500 			@ <UNDEFINED> instruction: 9e000500
     4f0:	0500003f 			@ <UNDEFINED> instruction: 0500003f
     4f4:	001fe900 			@ <UNDEFINED> instruction: 001fe900
     4f8:	79000500 			@ <UNDEFINED> instruction: 79000500
     4fc:	0500000c 			@ <UNDEFINED> instruction: 0500000c
     500:	0041f400 			@ <UNDEFINED> instruction: 0041f400
     504:	6b000500 			@ <UNDEFINED> instruction: 6b000500
     508:	0500002a 			@ <UNDEFINED> instruction: 0500002a
     50c:	003f2000 			@ <UNDEFINED> instruction: 003f2000
     510:	30000500 			@ <UNDEFINED> instruction: 30000500
     514:	05000007 			@ <UNDEFINED> instruction: 05000007
     518:	003be100 			@ <UNDEFINED> instruction: 003be100
     51c:	d5000500 			@ <UNDEFINED> instruction: d5000500
     520:	0500000f 			@ <UNDEFINED> instruction: 0500000f
     524:	00067000 			@ <UNDEFINED> instruction: 00067000
     528:	78000500 			@ <UNDEFINED> instruction: 78000500
     52c:	05000004 			@ <UNDEFINED> instruction: 05000004
     530:	004b4800 			@ <UNDEFINED> instruction: 004b4800
     534:	75000500 			@ <UNDEFINED> instruction: 75000500
     538:	05000059 			@ <UNDEFINED> instruction: 05000059
     53c:	00043900 			@ <UNDEFINED> instruction: 00043900
     540:	94000500 			@ <UNDEFINED> instruction: 94000500
     544:	05000033 			@ <UNDEFINED> instruction: 05000033
     548:	002a9a00 			@ <UNDEFINED> instruction: 002a9a00
     54c:	14000500 			@ <UNDEFINED> instruction: 14000500
     550:	05000051 			@ <UNDEFINED> instruction: 05000051
     554:	00567800 			@ <UNDEFINED> instruction: 00567800
     558:	bc000500 			@ <UNDEFINED> instruction: bc000500
     55c:	0500001f 			@ <UNDEFINED> instruction: 0500001f
     560:	0006f200 			@ <UNDEFINED> instruction: 0006f200
     564:	2a000500 			@ <UNDEFINED> instruction: 2a000500
     568:	0500001a 			@ <UNDEFINED> instruction: 0500001a
     56c:	004e1700 			@ <UNDEFINED> instruction: 004e1700
     570:	9f000500 			@ <UNDEFINED> instruction: 9f000500
     574:	05000055 			@ <UNDEFINED> instruction: 05000055
     578:	000a5b00 			@ <UNDEFINED> instruction: 000a5b00
     57c:	f7000500 			@ <UNDEFINED> instruction: f7000500
     580:	05000007 			@ <UNDEFINED> instruction: 05000007
     584:	00318500 			@ <UNDEFINED> instruction: 00318500
     588:	d7000500 			@ <UNDEFINED> instruction: d7000500
     58c:	0500000e 			@ <UNDEFINED> instruction: 0500000e
     590:	00020400 			@ <UNDEFINED> instruction: 00020400
     594:	34000500 			@ <UNDEFINED> instruction: 34000500
     598:	05000005 			@ <UNDEFINED> instruction: 05000005
     59c:	002cdc00 			@ <UNDEFINED> instruction: 002cdc00
     5a0:	a7000500 			@ <UNDEFINED> instruction: a7000500
     5a4:	05000031 			@ <UNDEFINED> instruction: 05000031
     5a8:	00290800 			@ <UNDEFINED> instruction: 00290800
     5ac:	57000500 			@ <UNDEFINED> instruction: 57000500
     5b0:	05000000 			@ <UNDEFINED> instruction: 05000000
     5b4:	0036b000 			@ <UNDEFINED> instruction: 0036b000
     5b8:	f9000500 			@ <UNDEFINED> instruction: f9000500
     5bc:	05000000 			@ <UNDEFINED> instruction: 05000000
     5c0:	00367100 			@ <UNDEFINED> instruction: 00367100
     5c4:	ee000500 			@ <UNDEFINED> instruction: ee000500
     5c8:	05000040 			@ <UNDEFINED> instruction: 05000040
     5cc:	00584d00 			@ <UNDEFINED> instruction: 00584d00
     5d0:	0c000500 			@ <UNDEFINED> instruction: 0c000500
     5d4:	05000044 			@ <UNDEFINED> instruction: 05000044
     5d8:	00123400 			@ <UNDEFINED> instruction: 00123400
     5dc:	23000500 	movwcs	r0, #1280	@ 0x500
     5e0:	05000049 			@ <UNDEFINED> instruction: 05000049
     5e4:	0025aa00 			@ <UNDEFINED> instruction: 0025aa00
     5e8:	74000500 			@ <UNDEFINED> instruction: 74000500
     5ec:	05000020 			@ <UNDEFINED> instruction: 05000020
     5f0:	000dab00 			@ <UNDEFINED> instruction: 000dab00
     5f4:	7d000500 			@ <UNDEFINED> instruction: 7d000500
     5f8:	05000047 			@ <UNDEFINED> instruction: 05000047
     5fc:	003b6c00 			@ <UNDEFINED> instruction: 003b6c00
     600:	40000500 			@ <UNDEFINED> instruction: 40000500
     604:	05000031 			@ <UNDEFINED> instruction: 05000031
     608:	000e0f00 			@ <UNDEFINED> instruction: 000e0f00
     60c:	a7000500 			@ <UNDEFINED> instruction: a7000500
     610:	05000015 			@ <UNDEFINED> instruction: 05000015
     614:	00514f00 			@ <UNDEFINED> instruction: 00514f00
     618:	aa000500 			@ <UNDEFINED> instruction: aa000500
     61c:	0500000c 			@ <UNDEFINED> instruction: 0500000c
     620:	000df400 			@ <UNDEFINED> instruction: 000df400
     624:	0b000500 			@ <UNDEFINED> instruction: 0b000500
     628:	05000022 			@ <UNDEFINED> instruction: 05000022
     62c:	00038700 			@ <UNDEFINED> instruction: 00038700
     630:	53000500 	movwpl	r0, #1280	@ 0x500
     634:	05000033 			@ <UNDEFINED> instruction: 05000033
     638:	00274600 			@ <UNDEFINED> instruction: 00274600
     63c:	34000500 			@ <UNDEFINED> instruction: 34000500
     640:	05000058 			@ <UNDEFINED> instruction: 05000058
     644:	0008be00 			@ <UNDEFINED> instruction: 0008be00
     648:	85000500 			@ <UNDEFINED> instruction: 85000500
     64c:	05000023 			@ <UNDEFINED> instruction: 05000023
     650:	0058f600 			@ <UNDEFINED> instruction: 0058f600
     654:	04000500 			@ <UNDEFINED> instruction: 04000500
     658:	0500001b 			@ <UNDEFINED> instruction: 0500001b
     65c:	0006c800 			@ <UNDEFINED> instruction: 0006c800
     660:	07000500 			@ <UNDEFINED> instruction: 07000500
     664:	05000023 			@ <UNDEFINED> instruction: 05000023
     668:	0013ef00 			@ <UNDEFINED> instruction: 0013ef00
     66c:	dd000500 			@ <UNDEFINED> instruction: dd000500
     670:	05000040 			@ <UNDEFINED> instruction: 05000040
     674:	00032300 			@ <UNDEFINED> instruction: 00032300
     678:	fa000500 	blx	1a80 <_Min_Stack_Size+0x1280>
     67c:	05000015 			@ <UNDEFINED> instruction: 05000015
     680:	003ba600 			@ <UNDEFINED> instruction: 003ba600
     684:	8f000500 			@ <UNDEFINED> instruction: 8f000500
     688:	05000034 			@ <UNDEFINED> instruction: 05000034
     68c:	003e2b00 			@ <UNDEFINED> instruction: 003e2b00
     690:	34000500 			@ <UNDEFINED> instruction: 34000500
     694:	0500000c 			@ <UNDEFINED> instruction: 0500000c
     698:	0032d600 			@ <UNDEFINED> instruction: 0032d600
     69c:	db000500 			@ <UNDEFINED> instruction: db000500
     6a0:	0500002e 			@ <UNDEFINED> instruction: 0500002e
     6a4:	00324200 			@ <UNDEFINED> instruction: 00324200
     6a8:	6e000500 			@ <UNDEFINED> instruction: 6e000500
     6ac:	0500003e 			@ <UNDEFINED> instruction: 0500003e
     6b0:	00263900 			@ <UNDEFINED> instruction: 00263900
     6b4:	6b000500 			@ <UNDEFINED> instruction: 6b000500
     6b8:	05000038 			@ <UNDEFINED> instruction: 05000038
     6bc:	003adb00 			@ <UNDEFINED> instruction: 003adb00
     6c0:	e3000500 	movw	r0, #1280	@ 0x500
     6c4:	05000007 			@ <UNDEFINED> instruction: 05000007
     6c8:	005a1700 			@ <UNDEFINED> instruction: 005a1700
     6cc:	e8000500 			@ <UNDEFINED> instruction: e8000500
     6d0:	05000045 			@ <UNDEFINED> instruction: 05000045
     6d4:	00433100 			@ <UNDEFINED> instruction: 00433100
     6d8:	7f000500 			@ <UNDEFINED> instruction: 7f000500
     6dc:	0500004b 			@ <UNDEFINED> instruction: 0500004b
     6e0:	00566400 			@ <UNDEFINED> instruction: 00566400
     6e4:	14000500 			@ <UNDEFINED> instruction: 14000500
     6e8:	05000053 			@ <UNDEFINED> instruction: 05000053
     6ec:	000b6100 			@ <UNDEFINED> instruction: 000b6100
     6f0:	8a000500 			@ <UNDEFINED> instruction: 8a000500
     6f4:	0500004a 			@ <UNDEFINED> instruction: 0500004a
     6f8:	00581500 			@ <UNDEFINED> instruction: 00581500
     6fc:	c6000500 			@ <UNDEFINED> instruction: c6000500
     700:	05000005 			@ <UNDEFINED> instruction: 05000005
     704:	002dbb00 			@ <UNDEFINED> instruction: 002dbb00
     708:	ac000500 			@ <UNDEFINED> instruction: ac000500
     70c:	05000052 			@ <UNDEFINED> instruction: 05000052
     710:	00103c00 			@ <UNDEFINED> instruction: 00103c00
     714:	23000500 	movwcs	r0, #1280	@ 0x500
     718:	05000050 			@ <UNDEFINED> instruction: 05000050
     71c:	003fd400 			@ <UNDEFINED> instruction: 003fd400
     720:	b7000500 			@ <UNDEFINED> instruction: b7000500
     724:	05000042 			@ <UNDEFINED> instruction: 05000042
     728:	00019f00 			@ <UNDEFINED> instruction: 00019f00
     72c:	d5000500 			@ <UNDEFINED> instruction: d5000500
     730:	0500004a 			@ <UNDEFINED> instruction: 0500004a
     734:	0053ca00 			@ <UNDEFINED> instruction: 0053ca00
     738:	1c000500 			@ <UNDEFINED> instruction: 1c000500
     73c:	0500001f 			@ <UNDEFINED> instruction: 0500001f
     740:	000bc300 			@ <UNDEFINED> instruction: 000bc300
     744:	61000500 			@ <UNDEFINED> instruction: 61000500
     748:	05000004 			@ <UNDEFINED> instruction: 05000004
     74c:	00036a00 			@ <UNDEFINED> instruction: 00036a00
     750:	40000500 			@ <UNDEFINED> instruction: 40000500
     754:	0500004a 			@ <UNDEFINED> instruction: 0500004a
     758:	000d2500 			@ <UNDEFINED> instruction: 000d2500
     75c:	95000500 			@ <UNDEFINED> instruction: 95000500
     760:	0500004c 			@ <UNDEFINED> instruction: 0500004c
     764:	00400200 			@ <UNDEFINED> instruction: 00400200
     768:	a9000500 			@ <UNDEFINED> instruction: a9000500
     76c:	05000026 			@ <UNDEFINED> instruction: 05000026
     770:	00161400 			@ <UNDEFINED> instruction: 00161400
     774:	89000500 			@ <UNDEFINED> instruction: 89000500
     778:	0500002e 			@ <UNDEFINED> instruction: 0500002e
     77c:	0047cf00 			@ <UNDEFINED> instruction: 0047cf00
     780:	ec000500 			@ <UNDEFINED> instruction: ec000500
     784:	0500001c 			@ <UNDEFINED> instruction: 0500001c
     788:	002ca300 			@ <UNDEFINED> instruction: 002ca300
     78c:	dc000500 			@ <UNDEFINED> instruction: dc000500
     790:	05000036 			@ <UNDEFINED> instruction: 05000036
     794:	001f7900 			@ <UNDEFINED> instruction: 001f7900
     798:	f4000500 	vst3.8	{d0,d2,d4}, [r0], r0
     79c:	0500000a 			@ <UNDEFINED> instruction: 0500000a
     7a0:	0050d300 			@ <UNDEFINED> instruction: 0050d300
     7a4:	a9000500 			@ <UNDEFINED> instruction: a9000500
     7a8:	05000043 			@ <UNDEFINED> instruction: 05000043
     7ac:	00015300 			@ <UNDEFINED> instruction: 00015300
     7b0:	46000500 			@ <UNDEFINED> instruction: 46000500
     7b4:	05000002 			@ <UNDEFINED> instruction: 05000002
     7b8:	0041e000 			@ <UNDEFINED> instruction: 0041e000
     7bc:	50000500 			@ <UNDEFINED> instruction: 50000500
     7c0:	0500002f 			@ <UNDEFINED> instruction: 0500002f
     7c4:	00457900 			@ <UNDEFINED> instruction: 00457900
     7c8:	a4000500 			@ <UNDEFINED> instruction: a4000500
     7cc:	05000054 			@ <UNDEFINED> instruction: 05000054
     7d0:	00490f00 			@ <UNDEFINED> instruction: 00490f00
     7d4:	f4000500 	vst3.8	{d0,d2,d4}, [r0], r0
     7d8:	05000028 			@ <UNDEFINED> instruction: 05000028
     7dc:	00011200 			@ <UNDEFINED> instruction: 00011200
     7e0:	98000500 			@ <UNDEFINED> instruction: 98000500
     7e4:	05000023 			@ <UNDEFINED> instruction: 05000023
     7e8:	00141000 			@ <UNDEFINED> instruction: 00141000
     7ec:	8e000500 			@ <UNDEFINED> instruction: 8e000500
     7f0:	05000017 			@ <UNDEFINED> instruction: 05000017
     7f4:	0036c700 			@ <UNDEFINED> instruction: 0036c700
     7f8:	67000500 			@ <UNDEFINED> instruction: 67000500
     7fc:	05000051 			@ <UNDEFINED> instruction: 05000051
     800:	00033e00 			@ <UNDEFINED> instruction: 00033e00
     804:	5b000500 			@ <UNDEFINED> instruction: 5b000500
     808:	05000042 			@ <UNDEFINED> instruction: 05000042
     80c:	004f8600 			@ <UNDEFINED> instruction: 004f8600
     810:	4b000500 			@ <UNDEFINED> instruction: 4b000500
     814:	05000048 			@ <UNDEFINED> instruction: 05000048
     818:	0050c400 			@ <UNDEFINED> instruction: 0050c400
     81c:	36000500 			@ <UNDEFINED> instruction: 36000500
     820:	05000059 			@ <UNDEFINED> instruction: 05000059
     824:	00099700 			@ <UNDEFINED> instruction: 00099700
     828:	c7000500 			@ <UNDEFINED> instruction: c7000500
     82c:	05000003 			@ <UNDEFINED> instruction: 05000003
     830:	00428d00 			@ <UNDEFINED> instruction: 00428d00
     834:	19000500 			@ <UNDEFINED> instruction: 19000500
     838:	05000046 			@ <UNDEFINED> instruction: 05000046
     83c:	00173d00 			@ <UNDEFINED> instruction: 00173d00
     840:	f6000500 			@ <UNDEFINED> instruction: f6000500
     844:	05000001 			@ <UNDEFINED> instruction: 05000001
     848:	0037bd00 			@ <UNDEFINED> instruction: 0037bd00
     84c:	23000500 	movwcs	r0, #1280	@ 0x500
     850:	0500002f 			@ <UNDEFINED> instruction: 0500002f
     854:	000a4b00 			@ <UNDEFINED> instruction: 000a4b00
     858:	d6000500 			@ <UNDEFINED> instruction: d6000500
     85c:	05000042 			@ <UNDEFINED> instruction: 05000042
     860:	0024c600 			@ <UNDEFINED> instruction: 0024c600
     864:	f5000500 			@ <UNDEFINED> instruction: f5000500
     868:	0500003d 			@ <UNDEFINED> instruction: 0500003d
     86c:	0034a200 			@ <UNDEFINED> instruction: 0034a200
     870:	84000500 			@ <UNDEFINED> instruction: 84000500
     874:	0500002c 			@ <UNDEFINED> instruction: 0500002c
     878:	00448800 			@ <UNDEFINED> instruction: 00448800
     87c:	2c000500 			@ <UNDEFINED> instruction: 2c000500
     880:	05000047 			@ <UNDEFINED> instruction: 05000047
     884:	001a1200 			@ <UNDEFINED> instruction: 001a1200
     888:	f2000500 	vrshl.s8	d0, d0, d0
     88c:	05000030 			@ <UNDEFINED> instruction: 05000030
     890:	00475d00 			@ <UNDEFINED> instruction: 00475d00
     894:	64000500 			@ <UNDEFINED> instruction: 64000500
     898:	05000027 			@ <UNDEFINED> instruction: 05000027
     89c:	001b9400 			@ <UNDEFINED> instruction: 001b9400
     8a0:	e7000500 			@ <UNDEFINED> instruction: e7000500
     8a4:	05000058 			@ <UNDEFINED> instruction: 05000058
     8a8:	00203100 			@ <UNDEFINED> instruction: 00203100
     8ac:	48000500 			@ <UNDEFINED> instruction: 48000500
     8b0:	0500003d 			@ <UNDEFINED> instruction: 0500003d
     8b4:	00004800 			@ <UNDEFINED> instruction: 00004800
     8b8:	79000500 			@ <UNDEFINED> instruction: 79000500
     8bc:	05000054 			@ <UNDEFINED> instruction: 05000054
     8c0:	003a0900 			@ <UNDEFINED> instruction: 003a0900
     8c4:	ec000500 			@ <UNDEFINED> instruction: ec000500
     8c8:	05000018 			@ <UNDEFINED> instruction: 05000018
     8cc:	000ebb00 			@ <UNDEFINED> instruction: 000ebb00
     8d0:	0e000500 			@ <UNDEFINED> instruction: 0e000500
     8d4:	0500004d 			@ <UNDEFINED> instruction: 0500004d
     8d8:	0012f800 			@ <UNDEFINED> instruction: 0012f800
     8dc:	ff000500 			@ <UNDEFINED> instruction: ff000500
     8e0:	0500004f 			@ <UNDEFINED> instruction: 0500004f
     8e4:	004b3300 			@ <UNDEFINED> instruction: 004b3300
     8e8:	ce000500 			@ <UNDEFINED> instruction: ce000500
     8ec:	05000023 			@ <UNDEFINED> instruction: 05000023
     8f0:	0013a100 			@ <UNDEFINED> instruction: 0013a100
     8f4:	23000500 	movwcs	r0, #1280	@ 0x500
     8f8:	0500004d 			@ <UNDEFINED> instruction: 0500004d
     8fc:	0000c600 			@ <UNDEFINED> instruction: 0000c600
     900:	8f000500 			@ <UNDEFINED> instruction: 8f000500
     904:	05000005 			@ <UNDEFINED> instruction: 05000005
     908:	0018fc00 			@ <UNDEFINED> instruction: 0018fc00
     90c:	f4000500 	vst3.8	{d0,d2,d4}, [r0], r0
     910:	05000042 			@ <UNDEFINED> instruction: 05000042
     914:	000f8b00 			@ <UNDEFINED> instruction: 000f8b00
     918:	a3000500 	movwge	r0, #1280	@ 0x500
     91c:	0500003a 			@ <UNDEFINED> instruction: 0500003a
     920:	002bb000 			@ <UNDEFINED> instruction: 002bb000
     924:	45000500 			@ <UNDEFINED> instruction: 45000500
     928:	05000014 			@ <UNDEFINED> instruction: 05000014
     92c:	0000a500 			@ <UNDEFINED> instruction: 0000a500
     930:	b9000500 			@ <UNDEFINED> instruction: b9000500
     934:	0500001e 			@ <UNDEFINED> instruction: 0500001e
     938:	0049d400 			@ <UNDEFINED> instruction: 0049d400
     93c:	32000500 			@ <UNDEFINED> instruction: 32000500
     940:	0500002f 			@ <UNDEFINED> instruction: 0500002f
     944:	00312100 			@ <UNDEFINED> instruction: 00312100
     948:	2f000500 			@ <UNDEFINED> instruction: 2f000500
     94c:	0500001f 			@ <UNDEFINED> instruction: 0500001f
     950:	00013900 			@ <UNDEFINED> instruction: 00013900
     954:	eb000500 			@ <UNDEFINED> instruction: eb000500
     958:	05000052 			@ <UNDEFINED> instruction: 05000052
     95c:	000b8200 			@ <UNDEFINED> instruction: 000b8200
     960:	b4000500 			@ <UNDEFINED> instruction: b4000500
     964:	0500003f 			@ <UNDEFINED> instruction: 0500003f
     968:	0026d900 			@ <UNDEFINED> instruction: 0026d900
     96c:	6f000500 			@ <UNDEFINED> instruction: 6f000500
     970:	05000018 			@ <UNDEFINED> instruction: 05000018
     974:	00326400 			@ <UNDEFINED> instruction: 00326400
     978:	5d000500 			@ <UNDEFINED> instruction: 5d000500
     97c:	05000050 			@ <UNDEFINED> instruction: 05000050
     980:	00388b00 			@ <UNDEFINED> instruction: 00388b00
     984:	11000500 			@ <UNDEFINED> instruction: 11000500
     988:	05000048 			@ <UNDEFINED> instruction: 05000048
     98c:	0024d600 			@ <UNDEFINED> instruction: 0024d600
     990:	a7000500 			@ <UNDEFINED> instruction: a7000500
     994:	0600002d 			@ <UNDEFINED> instruction: 0600002d
     998:	00403e00 			@ <UNDEFINED> instruction: 00403e00
     99c:	45000600 			@ <UNDEFINED> instruction: 45000600
     9a0:	0600002b 			@ <UNDEFINED> instruction: 0600002b
     9a4:	00590900 			@ <UNDEFINED> instruction: 00590900
     9a8:	71000500 			@ <UNDEFINED> instruction: 71000500
     9ac:	06000050 			@ <UNDEFINED> instruction: 06000050
     9b0:	003d5700 			@ <UNDEFINED> instruction: 003d5700
     9b4:	0f000600 			@ <UNDEFINED> instruction: 0f000600
     9b8:	06000050 			@ <UNDEFINED> instruction: 06000050
     9bc:	00525100 			@ <UNDEFINED> instruction: 00525100
     9c0:	12000600 			@ <UNDEFINED> instruction: 12000600
     9c4:	05000025 			@ <UNDEFINED> instruction: 05000025
     9c8:	003e3d00 			@ <UNDEFINED> instruction: 003e3d00
     9cc:	1a000600 			@ <UNDEFINED> instruction: 1a000600
     9d0:	06000033 			@ <UNDEFINED> instruction: 06000033
     9d4:	000c2200 			@ <UNDEFINED> instruction: 000c2200
     9d8:	ad000600 			@ <UNDEFINED> instruction: ad000600
     9dc:	06000003 			@ <UNDEFINED> instruction: 06000003
     9e0:	004b9e00 			@ <UNDEFINED> instruction: 004b9e00
     9e4:	9d000600 			@ <UNDEFINED> instruction: 9d000600
     9e8:	06000027 			@ <UNDEFINED> instruction: 06000027
     9ec:	00300f00 			@ <UNDEFINED> instruction: 00300f00
     9f0:	9d000600 			@ <UNDEFINED> instruction: 9d000600
     9f4:	05000037 			@ <UNDEFINED> instruction: 05000037
     9f8:	0057bc00 			@ <UNDEFINED> instruction: 0057bc00
     9fc:	eb000500 			@ <UNDEFINED> instruction: eb000500
     a00:	06000024 			@ <UNDEFINED> instruction: 06000024
     a04:	00499900 			@ <UNDEFINED> instruction: 00499900
     a08:	42000500 			@ <UNDEFINED> instruction: 42000500
     a0c:	0500004f 			@ <UNDEFINED> instruction: 0500004f
     a10:	003b5000 			@ <UNDEFINED> instruction: 003b5000
     a14:	93000500 	movwls	r0, #1280	@ 0x500
     a18:	06000025 			@ <UNDEFINED> instruction: 06000025
     a1c:	0031fd00 			@ <UNDEFINED> instruction: 0031fd00
     a20:	35000500 			@ <UNDEFINED> instruction: 35000500
     a24:	05000036 			@ <UNDEFINED> instruction: 05000036
     a28:	003b9c00 			@ <UNDEFINED> instruction: 003b9c00
     a2c:	71000600 			@ <UNDEFINED> instruction: 71000600
     a30:	05000057 			@ <UNDEFINED> instruction: 05000057
     a34:	002fb500 			@ <UNDEFINED> instruction: 002fb500
     a38:	a4000500 			@ <UNDEFINED> instruction: a4000500
     a3c:	05000029 			@ <UNDEFINED> instruction: 05000029
     a40:	0032a700 			@ <UNDEFINED> instruction: 0032a700
     a44:	38000500 			@ <UNDEFINED> instruction: 38000500
     a48:	05000013 			@ <UNDEFINED> instruction: 05000013
     a4c:	00178100 			@ <UNDEFINED> instruction: 00178100
     a50:	03000500 	movweq	r0, #1280	@ 0x500
     a54:	06000048 			@ <UNDEFINED> instruction: 06000048
     a58:	001e0900 			@ <UNDEFINED> instruction: 001e0900
     a5c:	e6000500 			@ <UNDEFINED> instruction: e6000500
     a60:	05000053 			@ <UNDEFINED> instruction: 05000053
     a64:	0056de00 			@ <UNDEFINED> instruction: 0056de00
     a68:	54000500 			@ <UNDEFINED> instruction: 54000500
     a6c:	0600000b 			@ <UNDEFINED> instruction: 0600000b
     a70:	0030cd00 			@ <UNDEFINED> instruction: 0030cd00
     a74:	31000500 			@ <UNDEFINED> instruction: 31000500
     a78:	06000054 			@ <UNDEFINED> instruction: 06000054
     a7c:	0027df00 			@ <UNDEFINED> instruction: 0027df00
     a80:	92000600 			@ <UNDEFINED> instruction: 92000600
     a84:	0600003c 			@ <UNDEFINED> instruction: 0600003c
     a88:	0037e700 			@ <UNDEFINED> instruction: 0037e700
     a8c:	1b000600 			@ <UNDEFINED> instruction: 1b000600
     a90:	0600004a 			@ <UNDEFINED> instruction: 0600004a
     a94:	00113700 			@ <UNDEFINED> instruction: 00113700
     a98:	ad000600 			@ <UNDEFINED> instruction: ad000600
     a9c:	05000022 			@ <UNDEFINED> instruction: 05000022
     aa0:	00018b00 			@ <UNDEFINED> instruction: 00018b00
     aa4:	c8000600 			@ <UNDEFINED> instruction: c8000600
     aa8:	0600000f 			@ <UNDEFINED> instruction: 0600000f
     aac:	001b1b00 			@ <UNDEFINED> instruction: 001b1b00
     ab0:	bf000600 			@ <UNDEFINED> instruction: bf000600
     ab4:	05000033 			@ <UNDEFINED> instruction: 05000033
     ab8:	00098100 			@ <UNDEFINED> instruction: 00098100
     abc:	9d000500 			@ <UNDEFINED> instruction: 9d000500
     ac0:	05000036 			@ <UNDEFINED> instruction: 05000036
     ac4:	00527d00 			@ <UNDEFINED> instruction: 00527d00
     ac8:	c0000500 			@ <UNDEFINED> instruction: c0000500
     acc:	06000047 			@ <UNDEFINED> instruction: 06000047
     ad0:	001a2000 			@ <UNDEFINED> instruction: 001a2000
     ad4:	be000500 			@ <UNDEFINED> instruction: be000500
     ad8:	05000020 			@ <UNDEFINED> instruction: 05000020
     adc:	0038b700 			@ <UNDEFINED> instruction: 0038b700
     ae0:	c2000500 			@ <UNDEFINED> instruction: c2000500
     ae4:	06000051 			@ <UNDEFINED> instruction: 06000051
     ae8:	004d7200 			@ <UNDEFINED> instruction: 004d7200
     aec:	2c000500 			@ <UNDEFINED> instruction: 2c000500
     af0:	06000035 			@ <UNDEFINED> instruction: 06000035
     af4:	004c8300 			@ <UNDEFINED> instruction: 004c8300
     af8:	d1000600 			@ <UNDEFINED> instruction: d1000600
     afc:	0600005a 			@ <UNDEFINED> instruction: 0600005a
     b00:	001e8200 			@ <UNDEFINED> instruction: 001e8200
     b04:	ea000600 			@ <UNDEFINED> instruction: ea000600
     b08:	06000056 			@ <UNDEFINED> instruction: 06000056
     b0c:	0029b200 			@ <UNDEFINED> instruction: 0029b200
     b10:	27000600 			@ <UNDEFINED> instruction: 27000600
     b14:	05000046 			@ <UNDEFINED> instruction: 05000046
     b18:	00294e00 			@ <UNDEFINED> instruction: 00294e00
     b1c:	e4000500 			@ <UNDEFINED> instruction: e4000500
     b20:	05000010 			@ <UNDEFINED> instruction: 05000010
     b24:	004e5a00 			@ <UNDEFINED> instruction: 004e5a00
     b28:	1d000500 			@ <UNDEFINED> instruction: 1d000500
     b2c:	0500000d 			@ <UNDEFINED> instruction: 0500000d
     b30:	0044e400 			@ <UNDEFINED> instruction: 0044e400
     b34:	00040000 			@ <UNDEFINED> instruction: 00040000
     b38:	511d0500 			@ <UNDEFINED> instruction: 511d0500
     b3c:	0600003e 			@ <UNDEFINED> instruction: 0600003e
     b40:	000d4a64 			@ <UNDEFINED> instruction: 000d4a64
     b44:	7c650500 			@ <UNDEFINED> instruction: 7c650500
     b48:	0600003c 			@ <UNDEFINED> instruction: 0600003c
     b4c:	0039d066 			@ <UNDEFINED> instruction: 0039d066
     b50:	07670500 			@ <UNDEFINED> instruction: 07670500
     b54:	0600003f 			@ <UNDEFINED> instruction: 0600003f
     b58:	000d496a 			@ <UNDEFINED> instruction: 000d496a
     b5c:	ee6b0500 			@ <UNDEFINED> instruction: ee6b0500
     b60:	06000010 			@ <UNDEFINED> instruction: 06000010
     b64:	00319d6e 			@ <UNDEFINED> instruction: 00319d6e
     b68:	e26f0500 			@ <UNDEFINED> instruction: e26f0500
     b6c:	06000021 			@ <UNDEFINED> instruction: 06000021
     b70:	0047e270 			@ <UNDEFINED> instruction: 0047e270
     b74:	ec710500 			@ <UNDEFINED> instruction: ec710500
     b78:	06000022 			@ <UNDEFINED> instruction: 06000022
     b7c:	00319c74 			@ <UNDEFINED> instruction: 00319c74
     b80:	40750500 			@ <UNDEFINED> instruction: 40750500
     b84:	06000020 			@ <UNDEFINED> instruction: 06000020
     b88:	00224478 			@ <UNDEFINED> instruction: 00224478
     b8c:	71790500 			@ <UNDEFINED> instruction: 71790500
     b90:	0600002e 			@ <UNDEFINED> instruction: 0600002e
     b94:	00565a7a 			@ <UNDEFINED> instruction: 00565a7a
     b98:	757b0500 			@ <UNDEFINED> instruction: 757b0500
     b9c:	0600000a 			@ <UNDEFINED> instruction: 0600000a
     ba0:	0022437e 			@ <UNDEFINED> instruction: 0022437e
     ba4:	ad7f0500 			@ <UNDEFINED> instruction: ad7f0500
     ba8:	06000007 			@ <UNDEFINED> instruction: 06000007
     bac:	15da0182 			@ <UNDEFINED> instruction: 15da0182
     bb0:	83050000 	movwhi	r0, #20480	@ 0x5000
     bb4:	0002b901 			@ <UNDEFINED> instruction: 0002b901
     bb8:	01840600 			@ <UNDEFINED> instruction: 01840600
     bbc:	00004acb 			@ <UNDEFINED> instruction: 00004acb
     bc0:	d5018505 			@ <UNDEFINED> instruction: d5018505
     bc4:	06000004 			@ <UNDEFINED> instruction: 06000004
     bc8:	15d90188 			@ <UNDEFINED> instruction: 15d90188
     bcc:	89050000 			@ <UNDEFINED> instruction: 89050000
     bd0:	0039a701 			@ <UNDEFINED> instruction: 0039a701
     bd4:	018c0600 			@ <UNDEFINED> instruction: 018c0600
     bd8:	0000182f 			@ <UNDEFINED> instruction: 0000182f
     bdc:	7d018d05 			@ <UNDEFINED> instruction: 7d018d05
     be0:	0600001c 			@ <UNDEFINED> instruction: 0600001c
     be4:	42e5018e 			@ <UNDEFINED> instruction: 42e5018e
     be8:	8f050000 			@ <UNDEFINED> instruction: 8f050000
     bec:	00382201 			@ <UNDEFINED> instruction: 00382201
     bf0:	01900600 			@ <UNDEFINED> instruction: 01900600
     bf4:	0000182e 			@ <UNDEFINED> instruction: 0000182e
     bf8:	eb019105 			@ <UNDEFINED> instruction: eb019105
     bfc:	0600000f 			@ <UNDEFINED> instruction: 0600000f
     c00:	3e1b0192 			@ <UNDEFINED> instruction: 3e1b0192
     c04:	93050000 	movwls	r0, #20480	@ 0x5000
     c08:	00384701 			@ <UNDEFINED> instruction: 00384701
     c0c:	01940600 			@ <UNDEFINED> instruction: 01940600
     c10:	00005580 			@ <UNDEFINED> instruction: 00005580
     c14:	64019505 			@ <UNDEFINED> instruction: 64019505
     c18:	0600003a 			@ <UNDEFINED> instruction: 0600003a
     c1c:	3e1a0196 			@ <UNDEFINED> instruction: 3e1a0196
     c20:	97050000 			@ <UNDEFINED> instruction: 97050000
     c24:	00468d01 			@ <UNDEFINED> instruction: 00468d01
     c28:	01980600 			@ <UNDEFINED> instruction: 01980600
     c2c:	00004d4f 			@ <UNDEFINED> instruction: 00004d4f
     c30:	2f019905 			@ <UNDEFINED> instruction: 2f019905
     c34:	06000016 			@ <UNDEFINED> instruction: 06000016
     c38:	3764019a 			@ <UNDEFINED> instruction: 3764019a
     c3c:	9b050000 			@ <UNDEFINED> instruction: 9b050000
     c40:	0009a601 			@ <UNDEFINED> instruction: 0009a601
     c44:	019c0600 			@ <UNDEFINED> instruction: 019c0600
     c48:	00004d4e 			@ <UNDEFINED> instruction: 00004d4e
     c4c:	f1019d05 			@ <UNDEFINED> instruction: f1019d05
     c50:	0600004d 			@ <UNDEFINED> instruction: 0600004d
     c54:	3f31019e 			@ <UNDEFINED> instruction: 3f31019e
     c58:	9f050000 			@ <UNDEFINED> instruction: 9f050000
     c5c:	00084e01 			@ <UNDEFINED> instruction: 00084e01
     c60:	01a00600 			@ <UNDEFINED> instruction: 01a00600
     c64:	000052db 	ldrdeq	r5, [r0], -fp
     c68:	a601a105 			@ <UNDEFINED> instruction: a601a105
     c6c:	0600003e 			@ <UNDEFINED> instruction: 0600003e
     c70:	3f3001a2 			@ <UNDEFINED> instruction: 3f3001a2
     c74:	a3050000 	movwge	r0, #20480	@ 0x5000
     c78:	004dad01 			@ <UNDEFINED> instruction: 004dad01
     c7c:	01a50600 			@ <UNDEFINED> instruction: 01a50600
     c80:	00002c34 			@ <UNDEFINED> instruction: 00002c34
     c84:	1801a605 			@ <UNDEFINED> instruction: 1801a605
     c88:	06000024 			@ <UNDEFINED> instruction: 06000024
     c8c:	240a01a7 			@ <UNDEFINED> instruction: 240a01a7
     c90:	a8050000 			@ <UNDEFINED> instruction: a8050000
     c94:	00261601 			@ <UNDEFINED> instruction: 00261601
     c98:	01a90600 			@ <UNDEFINED> instruction: 01a90600
     c9c:	00002c33 			@ <UNDEFINED> instruction: 00002c33
     ca0:	ae01aa05 	vmlage.f32	s20, s2, s10
     ca4:	06000010 			@ <UNDEFINED> instruction: 06000010
     ca8:	28b501ab 			@ <UNDEFINED> instruction: 28b501ab
     cac:	ac050000 			@ <UNDEFINED> instruction: ac050000
     cb0:	0056bc01 			@ <UNDEFINED> instruction: 0056bc01
     cb4:	01ad0600 			@ <UNDEFINED> instruction: 01ad0600
     cb8:	00001772 			@ <UNDEFINED> instruction: 00001772
     cbc:	c201ae05 			@ <UNDEFINED> instruction: c201ae05
     cc0:	06000058 			@ <UNDEFINED> instruction: 06000058
     cc4:	28b401af 			@ <UNDEFINED> instruction: 28b401af
     cc8:	b0050000 			@ <UNDEFINED> instruction: b0050000
     ccc:	000cc401 			@ <UNDEFINED> instruction: 000cc401
     cd0:	01b10600 			@ <UNDEFINED> instruction: 01b10600
     cd4:	0000055e 			@ <UNDEFINED> instruction: 0000055e
     cd8:	3b01b205 			@ <UNDEFINED> instruction: 3b01b205
     cdc:	06000047 			@ <UNDEFINED> instruction: 06000047
     ce0:	283801b3 			@ <UNDEFINED> instruction: 283801b3
     ce4:	b4050000 			@ <UNDEFINED> instruction: b4050000
     ce8:	0017f101 			@ <UNDEFINED> instruction: 0017f101
     cec:	01b50600 			@ <UNDEFINED> instruction: 01b50600
     cf0:	0000055d 			@ <UNDEFINED> instruction: 0000055d
     cf4:	c401b605 			@ <UNDEFINED> instruction: c401b605
     cf8:	06000045 			@ <UNDEFINED> instruction: 06000045
     cfc:	0faa01b7 			@ <UNDEFINED> instruction: 0faa01b7
     d00:	b8050000 			@ <UNDEFINED> instruction: b8050000
     d04:	00056d01 			@ <UNDEFINED> instruction: 00056d01
     d08:	01b90600 			@ <UNDEFINED> instruction: 01b90600
     d0c:	00001ac6 			@ <UNDEFINED> instruction: 00001ac6
     d10:	2e01ba05 	vmlacs.f32	s22, s2, s10
     d14:	06000033 			@ <UNDEFINED> instruction: 06000033
     d18:	0fa901bb 			@ <UNDEFINED> instruction: 0fa901bb
     d1c:	bc050000 			@ <UNDEFINED> instruction: bc050000
     d20:	0033ea01 			@ <UNDEFINED> instruction: 0033ea01
     d24:	01bf0600 			@ <UNDEFINED> instruction: 01bf0600
     d28:	00002d3f 			@ <UNDEFINED> instruction: 00002d3f
     d2c:	3701c005 			@ <UNDEFINED> instruction: 3701c005
     d30:	06000052 			@ <UNDEFINED> instruction: 06000052
     d34:	3d0801c1 			@ <UNDEFINED> instruction: 3d0801c1
     d38:	c2050000 			@ <UNDEFINED> instruction: c2050000
     d3c:	0033cd01 			@ <UNDEFINED> instruction: 0033cd01
     d40:	01c50600 			@ <UNDEFINED> instruction: 01c50600
     d44:	00002d3e 			@ <UNDEFINED> instruction: 00002d3e
     d48:	d601c605 			@ <UNDEFINED> instruction: d601c605
     d4c:	06000014 			@ <UNDEFINED> instruction: 06000014
     d50:	297001c9 			@ <UNDEFINED> instruction: 297001c9
     d54:	ca050000 			@ <UNDEFINED> instruction: ca050000
     d58:	00316b01 			@ <UNDEFINED> instruction: 00316b01
     d5c:	01cb0600 			@ <UNDEFINED> instruction: 01cb0600
     d60:	000002d1 	ldrdeq	r0, [r0], -r1
     d64:	6c01cc05 			@ <UNDEFINED> instruction: 6c01cc05
     d68:	06000013 			@ <UNDEFINED> instruction: 06000013
     d6c:	296f01cd 			@ <UNDEFINED> instruction: 296f01cd
     d70:	ce050000 			@ <UNDEFINED> instruction: ce050000
     d74:	0020e101 			@ <UNDEFINED> instruction: 0020e101
     d78:	01d20600 			@ <UNDEFINED> instruction: 01d20600
     d7c:	000057d2 	ldrdeq	r5, [r0], -r2
     d80:	0201d305 			@ <UNDEFINED> instruction: 0201d305
     d84:	06000045 			@ <UNDEFINED> instruction: 06000045
     d88:	146701d4 			@ <UNDEFINED> instruction: 146701d4
     d8c:	d5050000 			@ <UNDEFINED> instruction: d5050000
     d90:	00192101 			@ <UNDEFINED> instruction: 00192101
     d94:	01d70600 			@ <UNDEFINED> instruction: 01d70600
     d98:	00005523 			@ <UNDEFINED> instruction: 00005523
     d9c:	d301d805 	movwle	sp, #6149	@ 0x1805
     da0:	0600003d 			@ <UNDEFINED> instruction: 0600003d
     da4:	112801d9 	ldrdne	r0, [r8, -r9]!
     da8:	da050000 			@ <UNDEFINED> instruction: da050000
     dac:	00579a01 			@ <UNDEFINED> instruction: 00579a01
     db0:	01dc0600 			@ <UNDEFINED> instruction: 01dc0600
     db4:	00000978 			@ <UNDEFINED> instruction: 00000978
     db8:	5301dd05 	movwpl	sp, #7429	@ 0x1d05
     dbc:	0600000d 			@ <UNDEFINED> instruction: 0600000d
     dc0:	2e4a01df 			@ <UNDEFINED> instruction: 2e4a01df
     dc4:	e0050000 			@ <UNDEFINED> instruction: e0050000
     dc8:	000c9201 			@ <UNDEFINED> instruction: 000c9201
     dcc:	01e10600 			@ <UNDEFINED> instruction: 01e10600
     dd0:	00004683 			@ <UNDEFINED> instruction: 00004683
     dd4:	e501e205 			@ <UNDEFINED> instruction: e501e205
     dd8:	0600004e 			@ <UNDEFINED> instruction: 0600004e
     ddc:	58aa01e4 			@ <UNDEFINED> instruction: 58aa01e4
     de0:	e5050000 			@ <UNDEFINED> instruction: e5050000
     de4:	0018a701 			@ <UNDEFINED> instruction: 0018a701
     de8:	01e60600 			@ <UNDEFINED> instruction: 01e60600
     dec:	00001530 			@ <UNDEFINED> instruction: 00001530
     df0:	1d01e705 			@ <UNDEFINED> instruction: 1d01e705
     df4:	06000002 			@ <UNDEFINED> instruction: 06000002
     df8:	4b0501ef 			@ <UNDEFINED> instruction: 4b0501ef
     dfc:	f0050000 			@ <UNDEFINED> instruction: f0050000
     e00:	000aa501 			@ <UNDEFINED> instruction: 000aa501
     e04:	01f10600 			@ <UNDEFINED> instruction: 01f10600
     e08:	00004b2b 			@ <UNDEFINED> instruction: 00004b2b
     e0c:	cd01f205 			@ <UNDEFINED> instruction: cd01f205
     e10:	0600004e 			@ <UNDEFINED> instruction: 0600004e
     e14:	5b1c01f3 			@ <UNDEFINED> instruction: 5b1c01f3
     e18:	f4050000 	vst4.8	{d0-d3}, [r5], r0
     e1c:	00138901 			@ <UNDEFINED> instruction: 00138901
     e20:	01f50600 			@ <UNDEFINED> instruction: 01f50600
     e24:	00005509 			@ <UNDEFINED> instruction: 00005509
     e28:	f001f605 			@ <UNDEFINED> instruction: f001f605
     e2c:	0600000b 			@ <UNDEFINED> instruction: 0600000b
     e30:	4b0401f7 			@ <UNDEFINED> instruction: 4b0401f7
     e34:	f8050000 			@ <UNDEFINED> instruction: f8050000
     e38:	00183e01 			@ <UNDEFINED> instruction: 00183e01
     e3c:	01f90600 			@ <UNDEFINED> instruction: 01f90600
     e40:	00004b2a 			@ <UNDEFINED> instruction: 00004b2a
     e44:	da01fa05 			@ <UNDEFINED> instruction: da01fa05
     e48:	0600000a 			@ <UNDEFINED> instruction: 0600000a
     e4c:	5b1b01fb 			@ <UNDEFINED> instruction: 5b1b01fb
     e50:	fc050000 	stc2	0, cr0, [r5], {-0}
     e54:	00094401 			@ <UNDEFINED> instruction: 00094401
     e58:	01fd0600 			@ <UNDEFINED> instruction: 01fd0600
     e5c:	00005508 			@ <UNDEFINED> instruction: 00005508
     e60:	c301fe05 	movwgt	pc, #7685	@ 0x1e05	@ <UNPREDICTABLE>
     e64:	06000059 			@ <UNDEFINED> instruction: 06000059
     e68:	569201ff 			@ <UNDEFINED> instruction: 569201ff
     e6c:	80050000 			@ <UNDEFINED> instruction: 80050000
     e70:	00130802 			@ <UNDEFINED> instruction: 00130802
     e74:	02810600 			@ <UNDEFINED> instruction: 02810600
     e78:	00005691 			@ <UNDEFINED> instruction: 00005691
     e7c:	19028205 			@ <UNDEFINED> instruction: 19028205
     e80:	0000003a 			@ <UNDEFINED> instruction: 0000003a
     e84:	05000004 			@ <UNDEFINED> instruction: 05000004
     e88:	002de427 			@ <UNDEFINED> instruction: 002de427
     e8c:	9a280500 			@ <UNDEFINED> instruction: 9a280500
     e90:	0500003e 			@ <UNDEFINED> instruction: 0500003e
     e94:	002ddf2a 			@ <UNDEFINED> instruction: 002ddf2a
     e98:	01930500 			@ <UNDEFINED> instruction: 01930500
     e9c:	00003d3c 			@ <UNDEFINED> instruction: 00003d3c
     ea0:	4a019405 			@ <UNDEFINED> instruction: 4a019405
     ea4:	0500002d 			@ <UNDEFINED> instruction: 0500002d
     ea8:	37b10195 			@ <UNDEFINED> instruction: 37b10195
     eac:	96050000 			@ <UNDEFINED> instruction: 96050000
     eb0:	0042c901 			@ <UNDEFINED> instruction: 0042c901
     eb4:	01970500 			@ <UNDEFINED> instruction: 01970500
     eb8:	000007cb 			@ <UNDEFINED> instruction: 000007cb
     ebc:	c7019805 			@ <UNDEFINED> instruction: c7019805
     ec0:	05000007 			@ <UNDEFINED> instruction: 05000007
     ec4:	10d00199 			@ <UNDEFINED> instruction: 10d00199
     ec8:	9a050000 			@ <UNDEFINED> instruction: 9a050000
     ecc:	003d3801 			@ <UNDEFINED> instruction: 003d3801
     ed0:	019b0500 			@ <UNDEFINED> instruction: 019b0500
     ed4:	000038a2 			@ <UNDEFINED> instruction: 000038a2
     ed8:	7c019c05 			@ <UNDEFINED> instruction: 7c019c05
     edc:	06000057 			@ <UNDEFINED> instruction: 06000057
     ee0:	4e9801ad 			@ <UNDEFINED> instruction: 4e9801ad
     ee4:	c8050000 			@ <UNDEFINED> instruction: c8050000
     ee8:	000ecb01 			@ <UNDEFINED> instruction: 000ecb01
     eec:	01c90500 			@ <UNDEFINED> instruction: 01c90500
     ef0:	00000654 			@ <UNDEFINED> instruction: 00000654
     ef4:	9101ca05 			@ <UNDEFINED> instruction: 9101ca05
     ef8:	05000052 			@ <UNDEFINED> instruction: 05000052
     efc:	0ce801cb 			@ <UNDEFINED> instruction: 0ce801cb
     f00:	cc050000 			@ <UNDEFINED> instruction: cc050000
     f04:	00284701 			@ <UNDEFINED> instruction: 00284701
     f08:	01cd0500 			@ <UNDEFINED> instruction: 01cd0500
     f0c:	00000927 			@ <UNDEFINED> instruction: 00000927
     f10:	e501ce05 			@ <UNDEFINED> instruction: e501ce05
     f14:	0500003e 			@ <UNDEFINED> instruction: 0500003e
     f18:	467901cf 			@ <UNDEFINED> instruction: 467901cf
     f1c:	d0050000 			@ <UNDEFINED> instruction: d0050000
     f20:	00467501 			@ <UNDEFINED> instruction: 00467501
     f24:	01d10500 			@ <UNDEFINED> instruction: 01d10500
     f28:	0000153d 			@ <UNDEFINED> instruction: 0000153d
     f2c:	7c01d205 			@ <UNDEFINED> instruction: 7c01d205
     f30:	05000042 			@ <UNDEFINED> instruction: 05000042
     f34:	153901d3 			@ <UNDEFINED> instruction: 153901d3
     f38:	d4050000 			@ <UNDEFINED> instruction: d4050000
     f3c:	0051df01 			@ <UNDEFINED> instruction: 0051df01
     f40:	01d50500 			@ <UNDEFINED> instruction: 01d50500
     f44:	000016c1 			@ <UNDEFINED> instruction: 000016c1
     f48:	7101d605 			@ <UNDEFINED> instruction: 7101d605
     f4c:	05000015 			@ <UNDEFINED> instruction: 05000015
     f50:	528d01d7 			@ <UNDEFINED> instruction: 528d01d7
     f54:	d8050000 			@ <UNDEFINED> instruction: d8050000
     f58:	00366801 			@ <UNDEFINED> instruction: 00366801
     f5c:	01df0500 			@ <UNDEFINED> instruction: 01df0500
     f60:	00000813 			@ <UNDEFINED> instruction: 00000813
     f64:	8101fc06 			@ <UNDEFINED> instruction: 8101fc06
     f68:	0500002f 			@ <UNDEFINED> instruction: 0500002f
     f6c:	148b029a 			@ <UNDEFINED> instruction: 148b029a
     f70:	9b050000 			@ <UNDEFINED> instruction: 9b050000
     f74:	004f2402 			@ <UNDEFINED> instruction: 004f2402
     f78:	029c0500 			@ <UNDEFINED> instruction: 029c0500
     f7c:	0000392b 			@ <UNDEFINED> instruction: 0000392b
     f80:	66029d05 			@ <UNDEFINED> instruction: 66029d05
     f84:	0500002e 			@ <UNDEFINED> instruction: 0500002e
     f88:	46e5029e 	usatmi	r0, #5, lr, lsl #5
     f8c:	9f050000 			@ <UNDEFINED> instruction: 9f050000
     f90:	0007d802 			@ <UNDEFINED> instruction: 0007d802
     f94:	02a00500 			@ <UNDEFINED> instruction: 02a00500
     f98:	00002175 			@ <UNDEFINED> instruction: 00002175
     f9c:	7102a105 			@ <UNDEFINED> instruction: 7102a105
     fa0:	05000021 			@ <UNDEFINED> instruction: 05000021
     fa4:	1d8b02a2 			@ <UNDEFINED> instruction: 1d8b02a2
     fa8:	a3050000 	movwge	r0, #20480	@ 0x5000
     fac:	00456702 			@ <UNDEFINED> instruction: 00456702
     fb0:	02a40500 			@ <UNDEFINED> instruction: 02a40500
     fb4:	00004771 			@ <UNDEFINED> instruction: 00004771
     fb8:	9802a505 			@ <UNDEFINED> instruction: 9802a505
     fbc:	05000051 			@ <UNDEFINED> instruction: 05000051
     fc0:	476c02a6 			@ <UNDEFINED> instruction: 476c02a6
     fc4:	a7050000 			@ <UNDEFINED> instruction: a7050000
     fc8:	00392702 			@ <UNDEFINED> instruction: 00392702
     fcc:	02a80500 			@ <UNDEFINED> instruction: 02a80500
     fd0:	000036f9 	strdeq	r3, [r0], -r9
     fd4:	9002a905 			@ <UNDEFINED> instruction: 9002a905
     fd8:	06000030 			@ <UNDEFINED> instruction: 06000030
     fdc:	530602b6 	movwpl	r0, #25270	@ 0x62b6
     fe0:	ec060000 			@ <UNDEFINED> instruction: ec060000
     fe4:	00072102 			@ <UNDEFINED> instruction: 00072102
     fe8:	039e0600 			@ <UNDEFINED> instruction: 039e0600
     fec:	000023c9 			@ <UNDEFINED> instruction: 000023c9
     ff0:	2503a305 			@ <UNDEFINED> instruction: 2503a305
     ff4:	06000023 			@ <UNDEFINED> instruction: 06000023
     ff8:	23c203a9 			@ <UNDEFINED> instruction: 23c203a9
     ffc:	ae060000 			@ <UNDEFINED> instruction: ae060000
    1000:	00579103 			@ <UNDEFINED> instruction: 00579103
    1004:	03af0500 			@ <UNDEFINED> instruction: 03af0500
    1008:	00002ac9 			@ <UNDEFINED> instruction: 00002ac9
    100c:	f103b405 			@ <UNDEFINED> instruction: f103b405
    1010:	00000049 			@ <UNDEFINED> instruction: 00000049
    1014:	05000004 			@ <UNDEFINED> instruction: 05000004
    1018:	0006b716 			@ <UNDEFINED> instruction: 0006b716
    101c:	041d0500 			@ <UNDEFINED> instruction: 041d0500
    1020:	0500003e 			@ <UNDEFINED> instruction: 0500003e
    1024:	0046cb1e 			@ <UNDEFINED> instruction: 0046cb1e
    1028:	9c240500 			@ <UNDEFINED> instruction: 9c240500
    102c:	0500002e 			@ <UNDEFINED> instruction: 0500002e
    1030:	004cac29 			@ <UNDEFINED> instruction: 004cac29
    1034:	d72a0500 			@ <UNDEFINED> instruction: d72a0500
    1038:	05000029 			@ <UNDEFINED> instruction: 05000029
    103c:	004c0d2b 			@ <UNDEFINED> instruction: 004c0d2b
    1040:	0e2c0500 			@ <UNDEFINED> instruction: 0e2c0500
    1044:	05000034 			@ <UNDEFINED> instruction: 05000034
    1048:	0034742d 			@ <UNDEFINED> instruction: 0034742d
    104c:	332e0500 			@ <UNDEFINED> instruction: 332e0500
    1050:	0500004d 			@ <UNDEFINED> instruction: 0500004d
    1054:	0038072f 			@ <UNDEFINED> instruction: 0038072f
    1058:	5e310500 			@ <UNDEFINED> instruction: 5e310500
    105c:	05000054 			@ <UNDEFINED> instruction: 05000054
    1060:	00402332 			@ <UNDEFINED> instruction: 00402332
    1064:	c2350500 			@ <UNDEFINED> instruction: c2350500
    1068:	0500002f 			@ <UNDEFINED> instruction: 0500002f
    106c:	00443936 			@ <UNDEFINED> instruction: 00443936
    1070:	6b370500 			@ <UNDEFINED> instruction: 6b370500
    1074:	0500003d 			@ <UNDEFINED> instruction: 0500003d
    1078:	002f6739 			@ <UNDEFINED> instruction: 002f6739
    107c:	7b3a0500 			@ <UNDEFINED> instruction: 7b3a0500
    1080:	05000040 			@ <UNDEFINED> instruction: 05000040
    1084:	003fe63d 			@ <UNDEFINED> instruction: 003fe63d
    1088:	883e0500 			@ <UNDEFINED> instruction: 883e0500
    108c:	05000054 			@ <UNDEFINED> instruction: 05000054
    1090:	000e9f3f 			@ <UNDEFINED> instruction: 000e9f3f
    1094:	80410500 			@ <UNDEFINED> instruction: 80410500
    1098:	0500002b 			@ <UNDEFINED> instruction: 0500002b
    109c:	0041a542 			@ <UNDEFINED> instruction: 0041a542
    10a0:	f2450500 	vrshl.s8	d16, d0, d5
    10a4:	05000014 			@ <UNDEFINED> instruction: 05000014
    10a8:	00526746 			@ <UNDEFINED> instruction: 00526746
    10ac:	d8490500 			@ <UNDEFINED> instruction: d8490500
    10b0:	0500001e 			@ <UNDEFINED> instruction: 0500001e
    10b4:	0040954a 			@ <UNDEFINED> instruction: 0040954a
    10b8:	4b4b0500 			@ <UNDEFINED> instruction: 4b4b0500
    10bc:	05000036 			@ <UNDEFINED> instruction: 05000036
    10c0:	0029f14c 			@ <UNDEFINED> instruction: 0029f14c
    10c4:	1e4d0500 			@ <UNDEFINED> instruction: 1e4d0500
    10c8:	05000044 			@ <UNDEFINED> instruction: 05000044
    10cc:	004c684e 			@ <UNDEFINED> instruction: 004c684e
    10d0:	25530500 			@ <UNDEFINED> instruction: 25530500
    10d4:	05000048 			@ <UNDEFINED> instruction: 05000048
    10d8:	004e6e54 			@ <UNDEFINED> instruction: 004e6e54
    10dc:	36550500 			@ <UNDEFINED> instruction: 36550500
    10e0:	05000023 			@ <UNDEFINED> instruction: 05000023
    10e4:	00200156 			@ <UNDEFINED> instruction: 00200156
    10e8:	49570500 			@ <UNDEFINED> instruction: 49570500
    10ec:	0500000c 			@ <UNDEFINED> instruction: 0500000c
    10f0:	00287258 			@ <UNDEFINED> instruction: 00287258
    10f4:	b0590500 			@ <UNDEFINED> instruction: b0590500
    10f8:	05000021 			@ <UNDEFINED> instruction: 05000021
    10fc:	001bce5a 			@ <UNDEFINED> instruction: 001bce5a
    1100:	405b0500 			@ <UNDEFINED> instruction: 405b0500
    1104:	05000049 			@ <UNDEFINED> instruction: 05000049
    1108:	00539860 			@ <UNDEFINED> instruction: 00539860
    110c:	85610500 			@ <UNDEFINED> instruction: 85610500
    1110:	0500003f 			@ <UNDEFINED> instruction: 0500003f
    1114:	0051f162 			@ <UNDEFINED> instruction: 0051f162
    1118:	ff630500 			@ <UNDEFINED> instruction: ff630500
    111c:	05000045 			@ <UNDEFINED> instruction: 05000045
    1120:	003e8064 			@ <UNDEFINED> instruction: 003e8064
    1124:	36650500 			@ <UNDEFINED> instruction: 36650500
    1128:	0500004c 			@ <UNDEFINED> instruction: 0500004c
    112c:	00424266 			@ <UNDEFINED> instruction: 00424266
    1130:	32670500 			@ <UNDEFINED> instruction: 32670500
    1134:	05000055 			@ <UNDEFINED> instruction: 05000055
    1138:	0030d668 			@ <UNDEFINED> instruction: 0030d668
    113c:	4a690500 			@ <UNDEFINED> instruction: 4a690500
    1140:	05000045 			@ <UNDEFINED> instruction: 05000045
    1144:	0051aa6e 			@ <UNDEFINED> instruction: 0051aa6e
    1148:	406f0500 			@ <UNDEFINED> instruction: 406f0500
    114c:	05000030 			@ <UNDEFINED> instruction: 05000030
    1150:	003cb070 			@ <UNDEFINED> instruction: 003cb070
    1154:	8c710500 			@ <UNDEFINED> instruction: 8c710500
    1158:	05000041 			@ <UNDEFINED> instruction: 05000041
    115c:	00236672 			@ <UNDEFINED> instruction: 00236672
    1160:	72730500 			@ <UNDEFINED> instruction: 72730500
    1164:	05000008 			@ <UNDEFINED> instruction: 05000008
    1168:	00302274 			@ <UNDEFINED> instruction: 00302274
    116c:	d0750500 			@ <UNDEFINED> instruction: d0750500
    1170:	05000011 			@ <UNDEFINED> instruction: 05000011
    1174:	0012717a 			@ <UNDEFINED> instruction: 0012717a
    1178:	a27b0500 			@ <UNDEFINED> instruction: a27b0500
    117c:	0500005a 			@ <UNDEFINED> instruction: 0500005a
    1180:	002e1f7c 			@ <UNDEFINED> instruction: 002e1f7c
    1184:	5b7d0500 			@ <UNDEFINED> instruction: 5b7d0500
    1188:	0500001a 			@ <UNDEFINED> instruction: 0500001a
    118c:	0007497e 			@ <UNDEFINED> instruction: 0007497e
    1190:	a77f0500 			@ <UNDEFINED> instruction: a77f0500
    1194:	0500001a 			@ <UNDEFINED> instruction: 0500001a
    1198:	1dea0180 			@ <UNDEFINED> instruction: 1dea0180
    119c:	85050000 			@ <UNDEFINED> instruction: 85050000
    11a0:	00306f01 			@ <UNDEFINED> instruction: 00306f01
    11a4:	01860500 			@ <UNDEFINED> instruction: 01860500
    11a8:	000059a2 			@ <UNDEFINED> instruction: 000059a2
    11ac:	c1018705 			@ <UNDEFINED> instruction: c1018705
    11b0:	0500003b 			@ <UNDEFINED> instruction: 0500003b
    11b4:	3f650188 			@ <UNDEFINED> instruction: 3f650188
    11b8:	8d050000 			@ <UNDEFINED> instruction: 8d050000
    11bc:	003b3001 			@ <UNDEFINED> instruction: 003b3001
    11c0:	018e0500 			@ <UNDEFINED> instruction: 018e0500
    11c4:	00002559 			@ <UNDEFINED> instruction: 00002559
    11c8:	f0019305 			@ <UNDEFINED> instruction: f0019305
    11cc:	0500001e 			@ <UNDEFINED> instruction: 0500001e
    11d0:	41480194 			@ <UNDEFINED> instruction: 41480194
    11d4:	95050000 			@ <UNDEFINED> instruction: 95050000
    11d8:	001e3a01 			@ <UNDEFINED> instruction: 001e3a01
    11dc:	01960500 			@ <UNDEFINED> instruction: 01960500
    11e0:	00000e3d 			@ <UNDEFINED> instruction: 00000e3d
    11e4:	46019b05 			@ <UNDEFINED> instruction: 46019b05
    11e8:	0500003c 			@ <UNDEFINED> instruction: 0500003c
    11ec:	420c019c 			@ <UNDEFINED> instruction: 420c019c
    11f0:	9d050000 			@ <UNDEFINED> instruction: 9d050000
    11f4:	000f5701 			@ <UNDEFINED> instruction: 000f5701
    11f8:	019e0500 			@ <UNDEFINED> instruction: 019e0500
    11fc:	00003af8 	strdeq	r3, [r0], -r8
    1200:	c101a305 			@ <UNDEFINED> instruction: c101a305
    1204:	05000041 			@ <UNDEFINED> instruction: 05000041
    1208:	345401a4 			@ <UNDEFINED> instruction: 345401a4
    120c:	a5050000 			@ <UNDEFINED> instruction: a5050000
    1210:	0013b801 			@ <UNDEFINED> instruction: 0013b801
    1214:	01a60500 			@ <UNDEFINED> instruction: 01a60500
    1218:	00004f94 			@ <UNDEFINED> instruction: 00004f94
    121c:	f701ab05 			@ <UNDEFINED> instruction: f701ab05
    1220:	0500000c 			@ <UNDEFINED> instruction: 0500000c
    1224:	149801b0 			@ <UNDEFINED> instruction: 149801b0
    1228:	b1050000 			@ <UNDEFINED> instruction: b1050000
    122c:	00281901 			@ <UNDEFINED> instruction: 00281901
    1230:	01b20500 			@ <UNDEFINED> instruction: 01b20500
    1234:	0000470c 			@ <UNDEFINED> instruction: 0000470c
    1238:	00000400 			@ <UNDEFINED> instruction: 00000400
    123c:	53351905 			@ <UNDEFINED> instruction: 53351905
    1240:	1a050000 			@ <UNDEFINED> instruction: 1a050000
    1244:	0000222b 			@ <UNDEFINED> instruction: 0000222b
    1248:	10681b05 			@ <UNDEFINED> instruction: 10681b05
    124c:	1c050000 			@ <UNDEFINED> instruction: 1c050000
    1250:	000046b3 			@ <UNDEFINED> instruction: 000046b3
    1254:	18161d05 			@ <UNDEFINED> instruction: 18161d05
    1258:	22050000 			@ <UNDEFINED> instruction: 22050000
    125c:	00000781 			@ <UNDEFINED> instruction: 00000781
    1260:	3ac12305 			@ <UNDEFINED> instruction: 3ac12305
    1264:	24050000 			@ <UNDEFINED> instruction: 24050000
    1268:	00003575 			@ <UNDEFINED> instruction: 00003575
    126c:	02f32505 			@ <UNDEFINED> instruction: 02f32505
    1270:	26050000 			@ <UNDEFINED> instruction: 26050000
    1274:	00004114 			@ <UNDEFINED> instruction: 00004114
    1278:	4ab42705 			@ <UNDEFINED> instruction: 4ab42705
    127c:	28050000 			@ <UNDEFINED> instruction: 28050000
    1280:	00001473 			@ <UNDEFINED> instruction: 00001473
    1284:	390f2905 			@ <UNDEFINED> instruction: 390f2905
    1288:	2a050000 			@ <UNDEFINED> instruction: 2a050000
    128c:	00001d9e 			@ <UNDEFINED> instruction: 00001d9e
    1290:	43f42b05 			@ <UNDEFINED> instruction: 43f42b05
    1294:	30050000 			@ <UNDEFINED> instruction: 30050000
    1298:	00005aea 			@ <UNDEFINED> instruction: 00005aea
    129c:	3c133105 			@ <UNDEFINED> instruction: 3c133105
    12a0:	32050000 			@ <UNDEFINED> instruction: 32050000
    12a4:	000054d3 	ldrdeq	r5, [r0], -r3
    12a8:	25283305 			@ <UNDEFINED> instruction: 25283305
    12ac:	34050000 			@ <UNDEFINED> instruction: 34050000
    12b0:	00004f59 			@ <UNDEFINED> instruction: 00004f59
    12b4:	1a7a3505 			@ <UNDEFINED> instruction: 1a7a3505
    12b8:	36050000 			@ <UNDEFINED> instruction: 36050000
    12bc:	00000e59 			@ <UNDEFINED> instruction: 00000e59
    12c0:	12c93705 			@ <UNDEFINED> instruction: 12c93705
    12c4:	38050000 			@ <UNDEFINED> instruction: 38050000
    12c8:	00000688 			@ <UNDEFINED> instruction: 00000688
    12cc:	1c003d05 			@ <UNDEFINED> instruction: 1c003d05
    12d0:	3e050000 			@ <UNDEFINED> instruction: 3e050000
    12d4:	00005877 			@ <UNDEFINED> instruction: 00005877
    12d8:	44533f05 			@ <UNDEFINED> instruction: 44533f05
    12dc:	40050000 			@ <UNDEFINED> instruction: 40050000
    12e0:	00003544 			@ <UNDEFINED> instruction: 00003544
    12e4:	35d64105 			@ <UNDEFINED> instruction: 35d64105
    12e8:	42050000 			@ <UNDEFINED> instruction: 42050000
    12ec:	00004353 			@ <UNDEFINED> instruction: 00004353
    12f0:	1c9f4305 			@ <UNDEFINED> instruction: 1c9f4305
    12f4:	44050000 			@ <UNDEFINED> instruction: 44050000
    12f8:	000018bd 			@ <UNDEFINED> instruction: 000018bd
    12fc:	534d4505 	movtpl	r4, #54533	@ 0xd505
    1300:	4b050000 			@ <UNDEFINED> instruction: 4b050000
    1304:	000056a5 			@ <UNDEFINED> instruction: 000056a5
    1308:	16534c05 			@ <UNDEFINED> instruction: 16534c05
    130c:	4d050000 			@ <UNDEFINED> instruction: 4d050000
    1310:	00000b07 			@ <UNDEFINED> instruction: 00000b07
    1314:	1f8c4e05 			@ <UNDEFINED> instruction: 1f8c4e05
    1318:	4f050000 			@ <UNDEFINED> instruction: 4f050000
    131c:	000044b0 			@ <UNDEFINED> instruction: 000044b0
    1320:	32795505 			@ <UNDEFINED> instruction: 32795505
    1324:	56050000 			@ <UNDEFINED> instruction: 56050000
    1328:	00001db6 			@ <UNDEFINED> instruction: 00001db6
    132c:	04be5c05 			@ <UNDEFINED> instruction: 04be5c05
    1330:	5d050000 			@ <UNDEFINED> instruction: 5d050000
    1334:	00005757 			@ <UNDEFINED> instruction: 00005757
    1338:	4a035e05 			@ <UNDEFINED> instruction: 4a035e05
    133c:	5f050000 			@ <UNDEFINED> instruction: 5f050000
    1340:	000005f3 	strdeq	r0, [r0], -r3
    1344:	37236005 			@ <UNDEFINED> instruction: 37236005
    1348:	66050000 			@ <UNDEFINED> instruction: 66050000
    134c:	00004cc1 			@ <UNDEFINED> instruction: 00004cc1
    1350:	3eef6705 			@ <UNDEFINED> instruction: 3eef6705
    1354:	68050000 			@ <UNDEFINED> instruction: 68050000
    1358:	00002f09 			@ <UNDEFINED> instruction: 00002f09
    135c:	50ae6905 			@ <UNDEFINED> instruction: 50ae6905
    1360:	70050000 			@ <UNDEFINED> instruction: 70050000
    1364:	00003f4d 			@ <UNDEFINED> instruction: 00003f4d
    1368:	429c7105 			@ <UNDEFINED> instruction: 429c7105
    136c:	77050000 			@ <UNDEFINED> instruction: 77050000
    1370:	000006e3 			@ <UNDEFINED> instruction: 000006e3
    1374:	0fb97805 			@ <UNDEFINED> instruction: 0fb97805
    1378:	79050000 			@ <UNDEFINED> instruction: 79050000
    137c:	000039c1 			@ <UNDEFINED> instruction: 000039c1
    1380:	55907a05 			@ <UNDEFINED> instruction: 55907a05
    1384:	7b050000 			@ <UNDEFINED> instruction: 7b050000
    1388:	0000060c 			@ <UNDEFINED> instruction: 0000060c
    138c:	30007c05 			@ <UNDEFINED> instruction: 30007c05
    1390:	7d050000 			@ <UNDEFINED> instruction: 7d050000
    1394:	00004cd7 	ldrdeq	r4, [r0], -r7
    1398:	14017e05 			@ <UNDEFINED> instruction: 14017e05
    139c:	7f050000 			@ <UNDEFINED> instruction: 7f050000
    13a0:	000046fd 	strdeq	r4, [r0], -sp
    13a4:	87018005 			@ <UNDEFINED> instruction: 87018005
    13a8:	0500004d 			@ <UNDEFINED> instruction: 0500004d
    13ac:	1ba30181 			@ <UNDEFINED> instruction: 1ba30181
    13b0:	82050000 			@ <UNDEFINED> instruction: 82050000
    13b4:	00246d01 			@ <UNDEFINED> instruction: 00246d01
    13b8:	01830500 			@ <UNDEFINED> instruction: 01830500
    13bc:	00002dcf 			@ <UNDEFINED> instruction: 00002dcf
    13c0:	90018405 			@ <UNDEFINED> instruction: 90018405
    13c4:	05000035 			@ <UNDEFINED> instruction: 05000035
    13c8:	44f20185 			@ <UNDEFINED> instruction: 44f20185
    13cc:	86050000 			@ <UNDEFINED> instruction: 86050000
    13d0:	0017b901 			@ <UNDEFINED> instruction: 0017b901
    13d4:	018b0500 			@ <UNDEFINED> instruction: 018b0500
    13d8:	00005ac1 			@ <UNDEFINED> instruction: 00005ac1
    13dc:	c1018c05 			@ <UNDEFINED> instruction: c1018c05
    13e0:	00000001 			@ <UNDEFINED> instruction: 00000001
    13e4:	05000004 			@ <UNDEFINED> instruction: 05000004
    13e8:	00328e20 			@ <UNDEFINED> instruction: 00328e20
    13ec:	c3210500 			@ <UNDEFINED> instruction: c3210500
    13f0:	0500002c 			@ <UNDEFINED> instruction: 0500002c
    13f4:	001d7222 			@ <UNDEFINED> instruction: 001d7222
    13f8:	be230500 			@ <UNDEFINED> instruction: be230500
    13fc:	05000014 			@ <UNDEFINED> instruction: 05000014
    1400:	00465d24 			@ <UNDEFINED> instruction: 00465d24
    1404:	31250500 			@ <UNDEFINED> instruction: 31250500
    1408:	05000045 			@ <UNDEFINED> instruction: 05000045
    140c:	002d272a 			@ <UNDEFINED> instruction: 002d272a
    1410:	1c2b0500 			@ <UNDEFINED> instruction: 1c2b0500
    1414:	0500002c 			@ <UNDEFINED> instruction: 0500002c
    1418:	00398f2c 			@ <UNDEFINED> instruction: 00398f2c
    141c:	072d0500 			@ <UNDEFINED> instruction: 072d0500
    1420:	0500002e 			@ <UNDEFINED> instruction: 0500002e
    1424:	001fa42e 			@ <UNDEFINED> instruction: 001fa42e
    1428:	612f0500 			@ <UNDEFINED> instruction: 612f0500
    142c:	0500001f 			@ <UNDEFINED> instruction: 0500001f
    1430:	002a8130 			@ <UNDEFINED> instruction: 002a8130
    1434:	d3350500 			@ <UNDEFINED> instruction: d3350500
    1438:	05000016 			@ <UNDEFINED> instruction: 05000016
    143c:	001e5436 			@ <UNDEFINED> instruction: 001e5436
    1440:	80370500 			@ <UNDEFINED> instruction: 80370500
    1444:	05000021 			@ <UNDEFINED> instruction: 05000021
    1448:	001d2838 			@ <UNDEFINED> instruction: 001d2838
    144c:	e5390500 			@ <UNDEFINED> instruction: e5390500
    1450:	05000009 			@ <UNDEFINED> instruction: 05000009
    1454:	00208e3a 			@ <UNDEFINED> instruction: 00208e3a
    1458:	e63f0500 			@ <UNDEFINED> instruction: e63f0500
    145c:	05000034 			@ <UNDEFINED> instruction: 05000034
    1460:	002c5640 			@ <UNDEFINED> instruction: 002c5640
    1464:	af410500 			@ <UNDEFINED> instruction: af410500
    1468:	05000027 			@ <UNDEFINED> instruction: 05000027
    146c:	004fcf42 			@ <UNDEFINED> instruction: 004fcf42
    1470:	38430500 			@ <UNDEFINED> instruction: 38430500
    1474:	0500005a 			@ <UNDEFINED> instruction: 0500005a
    1478:	00224e44 			@ <UNDEFINED> instruction: 00224e44
    147c:	2a490500 			@ <UNDEFINED> instruction: 2a490500
    1480:	05000021 			@ <UNDEFINED> instruction: 05000021
    1484:	0008904a 			@ <UNDEFINED> instruction: 0008904a
    1488:	244b0500 			@ <UNDEFINED> instruction: 244b0500
    148c:	05000034 			@ <UNDEFINED> instruction: 05000034
    1490:	002a0b4c 			@ <UNDEFINED> instruction: 002a0b4c
    1494:	3b4d0500 			@ <UNDEFINED> instruction: 3b4d0500
    1498:	0500002a 			@ <UNDEFINED> instruction: 0500002a
    149c:	0039d94e 			@ <UNDEFINED> instruction: 0039d94e
    14a0:	fc540500 	mrrc2	5, 0, r0, r4, cr0
    14a4:	0500003b 			@ <UNDEFINED> instruction: 0500003b
    14a8:	0011b955 			@ <UNDEFINED> instruction: 0011b955
    14ac:	5e560500 			@ <UNDEFINED> instruction: 5e560500
    14b0:	05000059 			@ <UNDEFINED> instruction: 05000059
    14b4:	0024ae57 			@ <UNDEFINED> instruction: 0024ae57
    14b8:	17580500 			@ <UNDEFINED> instruction: 17580500
    14bc:	05000015 			@ <UNDEFINED> instruction: 05000015
    14c0:	00504459 			@ <UNDEFINED> instruction: 00504459
    14c4:	a25a0500 			@ <UNDEFINED> instruction: a25a0500
    14c8:	05000019 			@ <UNDEFINED> instruction: 05000019
    14cc:	0022c45b 			@ <UNDEFINED> instruction: 0022c45b
    14d0:	f15c0500 			@ <UNDEFINED> instruction: f15c0500
    14d4:	0500002b 			@ <UNDEFINED> instruction: 0500002b
    14d8:	0039355d 			@ <UNDEFINED> instruction: 0039355d
    14dc:	4c630500 			@ <UNDEFINED> instruction: 4c630500
    14e0:	05000055 			@ <UNDEFINED> instruction: 05000055
    14e4:	0017cd64 			@ <UNDEFINED> instruction: 0017cd64
    14e8:	00650500 			@ <UNDEFINED> instruction: 00650500
    14ec:	05000000 			@ <UNDEFINED> instruction: 05000000
    14f0:	0008f06f 			@ <UNDEFINED> instruction: 0008f06f
    14f4:	68750500 			@ <UNDEFINED> instruction: 68750500
    14f8:	05000007 			@ <UNDEFINED> instruction: 05000007
    14fc:	00243876 			@ <UNDEFINED> instruction: 00243876
    1500:	43770500 			@ <UNDEFINED> instruction: 43770500
    1504:	0500001a 			@ <UNDEFINED> instruction: 0500001a
    1508:	002def78 			@ <UNDEFINED> instruction: 002def78
    150c:	f9790500 			@ <UNDEFINED> instruction: f9790500
    1510:	05000057 			@ <UNDEFINED> instruction: 05000057
    1514:	001b787a 			@ <UNDEFINED> instruction: 001b787a
    1518:	cc7b0500 			@ <UNDEFINED> instruction: cc7b0500
    151c:	0500004b 			@ <UNDEFINED> instruction: 0500004b
    1520:	0002747c 			@ <UNDEFINED> instruction: 0002747c
    1524:	5a7d0500 			@ <UNDEFINED> instruction: 5a7d0500
    1528:	05000020 			@ <UNDEFINED> instruction: 05000020
    152c:	0047a87e 			@ <UNDEFINED> instruction: 0047a87e
    1530:	587f0500 			@ <UNDEFINED> instruction: 587f0500
    1534:	0500001d 			@ <UNDEFINED> instruction: 0500001d
    1538:	1ad50180 			@ <UNDEFINED> instruction: 1ad50180
    153c:	81050000 			@ <UNDEFINED> instruction: 81050000
    1540:	00125901 			@ <UNDEFINED> instruction: 00125901
    1544:	01820500 			@ <UNDEFINED> instruction: 01820500
    1548:	00000835 			@ <UNDEFINED> instruction: 00000835
    154c:	40018305 			@ <UNDEFINED> instruction: 40018305
    1550:	05000019 			@ <UNDEFINED> instruction: 05000019
    1554:	19b90189 			@ <UNDEFINED> instruction: 19b90189
    1558:	8a050000 			@ <UNDEFINED> instruction: 8a050000
    155c:	000f3d01 			@ <UNDEFINED> instruction: 000f3d01
    1560:	018b0500 			@ <UNDEFINED> instruction: 018b0500
    1564:	000057de 	ldrdeq	r5, [r0], -lr
    1568:	17018c05 			@ <UNDEFINED> instruction: 17018c05
    156c:	05000054 			@ <UNDEFINED> instruction: 05000054
    1570:	0c08018d 			@ <UNDEFINED> instruction: 0c08018d
    1574:	8e050000 			@ <UNDEFINED> instruction: 8e050000
    1578:	0019f701 			@ <UNDEFINED> instruction: 0019f701
    157c:	018f0500 			@ <UNDEFINED> instruction: 018f0500
    1580:	00000518 			@ <UNDEFINED> instruction: 00000518
    1584:	87019005 			@ <UNDEFINED> instruction: 87019005
    1588:	05000026 			@ <UNDEFINED> instruction: 05000026
    158c:	4e2d0191 			@ <UNDEFINED> instruction: 4e2d0191
    1590:	92050000 			@ <UNDEFINED> instruction: 92050000
    1594:	000b3301 			@ <UNDEFINED> instruction: 000b3301
    1598:	01930500 			@ <UNDEFINED> instruction: 01930500
    159c:	00003970 			@ <UNDEFINED> instruction: 00003970
    15a0:	a3019405 	movwge	r9, #5125	@ 0x1405
    15a4:	05000045 			@ <UNDEFINED> instruction: 05000045
    15a8:	1e1e0195 			@ <UNDEFINED> instruction: 1e1e0195
    15ac:	9b050000 			@ <UNDEFINED> instruction: 9b050000
    15b0:	00028f01 			@ <UNDEFINED> instruction: 00028f01
    15b4:	019c0500 			@ <UNDEFINED> instruction: 019c0500
    15b8:	00000d69 			@ <UNDEFINED> instruction: 00000d69
    15bc:	fd019d05 	stc2	13, cr9, [r1, #-20]	@ 0xffffffec
    15c0:	05000053 			@ <UNDEFINED> instruction: 05000053
    15c4:	3db8019e 			@ <UNDEFINED> instruction: 3db8019e
    15c8:	9f050000 			@ <UNDEFINED> instruction: 9f050000
    15cc:	0053b001 			@ <UNDEFINED> instruction: 0053b001
    15d0:	01a00500 			@ <UNDEFINED> instruction: 01a00500
    15d4:	00000a31 			@ <UNDEFINED> instruction: 00000a31
    15d8:	5c01a105 			@ <UNDEFINED> instruction: 5c01a105
    15dc:	05000019 			@ <UNDEFINED> instruction: 05000019
    15e0:	16a701a2 			@ <UNDEFINED> instruction: 16a701a2
    15e4:	a3050000 	movwge	r0, #20480	@ 0x5000
    15e8:	00361b01 			@ <UNDEFINED> instruction: 00361b01
    15ec:	01a40500 			@ <UNDEFINED> instruction: 01a40500
    15f0:	00002579 			@ <UNDEFINED> instruction: 00002579
    15f4:	1501a505 			@ <UNDEFINED> instruction: 1501a505
    15f8:	0500000a 			@ <UNDEFINED> instruction: 0500000a
    15fc:	2d0a01a6 			@ <UNDEFINED> instruction: 2d0a01a6
    1600:	ab050000 			@ <UNDEFINED> instruction: ab050000
    1604:	00322d01 			@ <UNDEFINED> instruction: 00322d01
    1608:	01ac0500 			@ <UNDEFINED> instruction: 01ac0500
    160c:	00000033 			@ <UNDEFINED> instruction: 00000033
    1610:	9001ae05 			@ <UNDEFINED> instruction: 9001ae05
    1614:	05000012 			@ <UNDEFINED> instruction: 05000012
    1618:	538501af 			@ <UNDEFINED> instruction: 538501af
    161c:	b1050000 			@ <UNDEFINED> instruction: b1050000
    1620:	002b9c01 			@ <UNDEFINED> instruction: 002b9c01
    1624:	01b20500 			@ <UNDEFINED> instruction: 01b20500
    1628:	00002fec 			@ <UNDEFINED> instruction: 00002fec
    162c:	d601b305 			@ <UNDEFINED> instruction: d601b305
    1630:	0500001f 			@ <UNDEFINED> instruction: 0500001f
    1634:	2c9301b5 			@ <UNDEFINED> instruction: 2c9301b5
    1638:	b6050000 			@ <UNDEFINED> instruction: b6050000
    163c:	0055fc01 			@ <UNDEFINED> instruction: 0055fc01
    1640:	01b70500 			@ <UNDEFINED> instruction: 01b70500
    1644:	00005744 			@ <UNDEFINED> instruction: 00005744
    1648:	da01b905 			@ <UNDEFINED> instruction: da01b905
    164c:	05000000 			@ <UNDEFINED> instruction: 05000000
    1650:	1c6901ba 			@ <UNDEFINED> instruction: 1c6901ba
    1654:	bb050000 			@ <UNDEFINED> instruction: bb050000
    1658:	004a7601 			@ <UNDEFINED> instruction: 004a7601
    165c:	01bc0500 			@ <UNDEFINED> instruction: 01bc0500
    1660:	000009cd 			@ <UNDEFINED> instruction: 000009cd
    1664:	02000400 			@ <UNDEFINED> instruction: 02000400
    1668:	0000015b 			@ <UNDEFINED> instruction: 0000015b
    166c:	00006407 			@ <UNDEFINED> instruction: 00006407
    1670:	01000300 			@ <UNDEFINED> instruction: 01000300
    1674:	05031003 			@ <UNDEFINED> instruction: 05031003
    1678:	004efd10 			@ <UNDEFINED> instruction: 004efd10
    167c:	04120300 			@ <UNDEFINED> instruction: 04120300
    1680:	07020b03 			@ <UNDEFINED> instruction: 07020b03
    1684:	00000b36 			@ <UNDEFINED> instruction: 00000b36
    1688:	f00d0504 			@ <UNDEFINED> instruction: f00d0504
    168c:	0400001a 			@ <UNDEFINED> instruction: 0400001a
    1690:	07051303 			@ <UNDEFINED> instruction: 07051303
    1694:	00000e84 			@ <UNDEFINED> instruction: 00000e84
    1698:	06140304 			@ <UNDEFINED> instruction: 06140304
    169c:	00101407 			@ <UNDEFINED> instruction: 00101407
    16a0:	39070400 			@ <UNDEFINED> instruction: 39070400
    16a4:	04000012 			@ <UNDEFINED> instruction: 04000012
    16a8:	00040004 			@ <UNDEFINED> instruction: 00040004
    16ac:	00053302 			@ <UNDEFINED> instruction: 00053302
    16b0:	00640700 			@ <UNDEFINED> instruction: 00640700
    16b4:	00030000 			@ <UNDEFINED> instruction: 00030000
    16b8:	030f0301 	movweq	r0, #62209	@ 0xf301
    16bc:	06b71605 			@ <UNDEFINED> instruction: 06b71605
    16c0:	18030000 			@ <UNDEFINED> instruction: 18030000
    16c4:	020b0304 			@ <UNDEFINED> instruction: 020b0304
    16c8:	000b3607 			@ <UNDEFINED> instruction: 000b3607
    16cc:	0d050400 			@ <UNDEFINED> instruction: 0d050400
    16d0:	00001af0 	strdeq	r1, [r0], -r0
    16d4:	16e30704 			@ <UNDEFINED> instruction: 16e30704
    16d8:	05040000 			@ <UNDEFINED> instruction: 05040000
    16dc:	005d381d 			@ <UNDEFINED> instruction: 005d381d
    16e0:	04000400 			@ <UNDEFINED> instruction: 04000400
    16e4:	1d050000 			@ <UNDEFINED> instruction: 1d050000
    16e8:	00003e04 			@ <UNDEFINED> instruction: 00003e04
    16ec:	46cb1e05 			@ <UNDEFINED> instruction: 46cb1e05
    16f0:	24050000 			@ <UNDEFINED> instruction: 24050000
    16f4:	00002e9c 			@ <UNDEFINED> instruction: 00002e9c
    16f8:	4cac2905 			@ <UNDEFINED> instruction: 4cac2905
    16fc:	2a050000 			@ <UNDEFINED> instruction: 2a050000
    1700:	000029d7 	ldrdeq	r2, [r0], -r7
    1704:	4c0d2b05 			@ <UNDEFINED> instruction: 4c0d2b05
    1708:	2c050000 			@ <UNDEFINED> instruction: 2c050000
    170c:	0000340e 			@ <UNDEFINED> instruction: 0000340e
    1710:	34742d05 			@ <UNDEFINED> instruction: 34742d05
    1714:	2e050000 			@ <UNDEFINED> instruction: 2e050000
    1718:	00004d33 			@ <UNDEFINED> instruction: 00004d33
    171c:	38072f05 			@ <UNDEFINED> instruction: 38072f05
    1720:	31050000 			@ <UNDEFINED> instruction: 31050000
    1724:	0000545e 			@ <UNDEFINED> instruction: 0000545e
    1728:	40233205 			@ <UNDEFINED> instruction: 40233205
    172c:	35050000 			@ <UNDEFINED> instruction: 35050000
    1730:	00002fc2 			@ <UNDEFINED> instruction: 00002fc2
    1734:	44393605 			@ <UNDEFINED> instruction: 44393605
    1738:	37050000 			@ <UNDEFINED> instruction: 37050000
    173c:	00003d6b 			@ <UNDEFINED> instruction: 00003d6b
    1740:	2f673905 			@ <UNDEFINED> instruction: 2f673905
    1744:	3a050000 			@ <UNDEFINED> instruction: 3a050000
    1748:	0000407b 			@ <UNDEFINED> instruction: 0000407b
    174c:	3fe63d05 			@ <UNDEFINED> instruction: 3fe63d05
    1750:	3e050000 			@ <UNDEFINED> instruction: 3e050000
    1754:	00005488 			@ <UNDEFINED> instruction: 00005488
    1758:	0e9f3f05 			@ <UNDEFINED> instruction: 0e9f3f05
    175c:	41050000 			@ <UNDEFINED> instruction: 41050000
    1760:	00002b80 			@ <UNDEFINED> instruction: 00002b80
    1764:	41a54205 			@ <UNDEFINED> instruction: 41a54205
    1768:	45050000 			@ <UNDEFINED> instruction: 45050000
    176c:	000014f2 	strdeq	r1, [r0], -r2
    1770:	52674605 			@ <UNDEFINED> instruction: 52674605
    1774:	49050000 			@ <UNDEFINED> instruction: 49050000
    1778:	00001ed8 	ldrdeq	r1, [r0], -r8
    177c:	40954a05 			@ <UNDEFINED> instruction: 40954a05
    1780:	4b050000 			@ <UNDEFINED> instruction: 4b050000
    1784:	0000364b 			@ <UNDEFINED> instruction: 0000364b
    1788:	29f14c05 			@ <UNDEFINED> instruction: 29f14c05
    178c:	4d050000 			@ <UNDEFINED> instruction: 4d050000
    1790:	0000441e 			@ <UNDEFINED> instruction: 0000441e
    1794:	4c684e05 			@ <UNDEFINED> instruction: 4c684e05
    1798:	53050000 	movwpl	r0, #20480	@ 0x5000
    179c:	00004825 			@ <UNDEFINED> instruction: 00004825
    17a0:	4e6e5405 			@ <UNDEFINED> instruction: 4e6e5405
    17a4:	55050000 			@ <UNDEFINED> instruction: 55050000
    17a8:	00002336 			@ <UNDEFINED> instruction: 00002336
    17ac:	20015605 			@ <UNDEFINED> instruction: 20015605
    17b0:	57050000 			@ <UNDEFINED> instruction: 57050000
    17b4:	00000c49 			@ <UNDEFINED> instruction: 00000c49
    17b8:	28725805 			@ <UNDEFINED> instruction: 28725805
    17bc:	59050000 			@ <UNDEFINED> instruction: 59050000
    17c0:	000021b0 			@ <UNDEFINED> instruction: 000021b0
    17c4:	1bce5a05 			@ <UNDEFINED> instruction: 1bce5a05
    17c8:	5b050000 			@ <UNDEFINED> instruction: 5b050000
    17cc:	00004940 			@ <UNDEFINED> instruction: 00004940
    17d0:	53986005 			@ <UNDEFINED> instruction: 53986005
    17d4:	61050000 			@ <UNDEFINED> instruction: 61050000
    17d8:	00003f85 			@ <UNDEFINED> instruction: 00003f85
    17dc:	51f16205 			@ <UNDEFINED> instruction: 51f16205
    17e0:	63050000 	movwvs	r0, #20480	@ 0x5000
    17e4:	000045ff 	strdeq	r4, [r0], -pc	@ <UNPREDICTABLE>
    17e8:	3e806405 			@ <UNDEFINED> instruction: 3e806405
    17ec:	65050000 			@ <UNDEFINED> instruction: 65050000
    17f0:	00004c36 			@ <UNDEFINED> instruction: 00004c36
    17f4:	42426605 			@ <UNDEFINED> instruction: 42426605
    17f8:	67050000 			@ <UNDEFINED> instruction: 67050000
    17fc:	00005532 			@ <UNDEFINED> instruction: 00005532
    1800:	30d66805 			@ <UNDEFINED> instruction: 30d66805
    1804:	69050000 			@ <UNDEFINED> instruction: 69050000
    1808:	0000454a 			@ <UNDEFINED> instruction: 0000454a
    180c:	51aa6e05 			@ <UNDEFINED> instruction: 51aa6e05
    1810:	6f050000 			@ <UNDEFINED> instruction: 6f050000
    1814:	00003040 			@ <UNDEFINED> instruction: 00003040
    1818:	3cb07005 			@ <UNDEFINED> instruction: 3cb07005
    181c:	71050000 			@ <UNDEFINED> instruction: 71050000
    1820:	0000418c 			@ <UNDEFINED> instruction: 0000418c
    1824:	23667205 			@ <UNDEFINED> instruction: 23667205
    1828:	73050000 	movwvc	r0, #20480	@ 0x5000
    182c:	00000872 			@ <UNDEFINED> instruction: 00000872
    1830:	30227405 			@ <UNDEFINED> instruction: 30227405
    1834:	75050000 			@ <UNDEFINED> instruction: 75050000
    1838:	000011d0 	ldrdeq	r1, [r0], -r0
    183c:	12717a05 			@ <UNDEFINED> instruction: 12717a05
    1840:	7b050000 			@ <UNDEFINED> instruction: 7b050000
    1844:	00005aa2 			@ <UNDEFINED> instruction: 00005aa2
    1848:	2e1f7c05 			@ <UNDEFINED> instruction: 2e1f7c05
    184c:	7d050000 			@ <UNDEFINED> instruction: 7d050000
    1850:	00001a5b 			@ <UNDEFINED> instruction: 00001a5b
    1854:	07497e05 			@ <UNDEFINED> instruction: 07497e05
    1858:	7f050000 			@ <UNDEFINED> instruction: 7f050000
    185c:	00001aa7 			@ <UNDEFINED> instruction: 00001aa7
    1860:	ea018005 			@ <UNDEFINED> instruction: ea018005
    1864:	0500001d 			@ <UNDEFINED> instruction: 0500001d
    1868:	306f0185 			@ <UNDEFINED> instruction: 306f0185
    186c:	86050000 			@ <UNDEFINED> instruction: 86050000
    1870:	0059a201 			@ <UNDEFINED> instruction: 0059a201
    1874:	01870500 			@ <UNDEFINED> instruction: 01870500
    1878:	00003bc1 			@ <UNDEFINED> instruction: 00003bc1
    187c:	65018805 			@ <UNDEFINED> instruction: 65018805
    1880:	0500003f 			@ <UNDEFINED> instruction: 0500003f
    1884:	3b30018d 			@ <UNDEFINED> instruction: 3b30018d
    1888:	8e050000 			@ <UNDEFINED> instruction: 8e050000
    188c:	00255901 			@ <UNDEFINED> instruction: 00255901
    1890:	01930500 			@ <UNDEFINED> instruction: 01930500
    1894:	00001ef0 	strdeq	r1, [r0], -r0
    1898:	48019405 			@ <UNDEFINED> instruction: 48019405
    189c:	05000041 			@ <UNDEFINED> instruction: 05000041
    18a0:	1e3a0195 			@ <UNDEFINED> instruction: 1e3a0195
    18a4:	96050000 			@ <UNDEFINED> instruction: 96050000
    18a8:	000e3d01 			@ <UNDEFINED> instruction: 000e3d01
    18ac:	019b0500 			@ <UNDEFINED> instruction: 019b0500
    18b0:	00003c46 			@ <UNDEFINED> instruction: 00003c46
    18b4:	0c019c05 			@ <UNDEFINED> instruction: 0c019c05
    18b8:	05000042 			@ <UNDEFINED> instruction: 05000042
    18bc:	0f57019d 			@ <UNDEFINED> instruction: 0f57019d
    18c0:	9e050000 			@ <UNDEFINED> instruction: 9e050000
    18c4:	003af801 			@ <UNDEFINED> instruction: 003af801
    18c8:	01a30500 			@ <UNDEFINED> instruction: 01a30500
    18cc:	000041c1 			@ <UNDEFINED> instruction: 000041c1
    18d0:	5401a405 			@ <UNDEFINED> instruction: 5401a405
    18d4:	05000034 			@ <UNDEFINED> instruction: 05000034
    18d8:	13b801a5 			@ <UNDEFINED> instruction: 13b801a5
    18dc:	a6050000 			@ <UNDEFINED> instruction: a6050000
    18e0:	004f9401 			@ <UNDEFINED> instruction: 004f9401
    18e4:	01ab0500 			@ <UNDEFINED> instruction: 01ab0500
    18e8:	00000cf7 	strdeq	r0, [r0], -r7
    18ec:	9801b005 			@ <UNDEFINED> instruction: 9801b005
    18f0:	05000014 			@ <UNDEFINED> instruction: 05000014
    18f4:	281901b1 			@ <UNDEFINED> instruction: 281901b1
    18f8:	b2050000 			@ <UNDEFINED> instruction: b2050000
    18fc:	00470c01 			@ <UNDEFINED> instruction: 00470c01
    1900:	00040000 			@ <UNDEFINED> instruction: 00040000
    1904:	0007be02 			@ <UNDEFINED> instruction: 0007be02
    1908:	00640700 			@ <UNDEFINED> instruction: 00640700
    190c:	00030000 			@ <UNDEFINED> instruction: 00030000
    1910:	03120301 			@ <UNDEFINED> instruction: 03120301
    1914:	0d371605 			@ <UNDEFINED> instruction: 0d371605
    1918:	18030000 			@ <UNDEFINED> instruction: 18030000
    191c:	020b0304 			@ <UNDEFINED> instruction: 020b0304
    1920:	000b3607 			@ <UNDEFINED> instruction: 000b3607
    1924:	0d050400 			@ <UNDEFINED> instruction: 0d050400
    1928:	00001af0 	strdeq	r1, [r0], -r0
    192c:	05190304 			@ <UNDEFINED> instruction: 05190304
    1930:	000e8407 			@ <UNDEFINED> instruction: 000e8407
    1934:	1a030400 			@ <UNDEFINED> instruction: 1a030400
    1938:	10140706 			@ <UNDEFINED> instruction: 10140706
    193c:	03040000 	movweq	r0, #16384	@ 0x4000
    1940:	1005071b 			@ <UNDEFINED> instruction: 1005071b
    1944:	00004efd 	strdeq	r4, [r0], -sp
    1948:	04051303 			@ <UNDEFINED> instruction: 04051303
    194c:	00123907 			@ <UNDEFINED> instruction: 00123907
    1950:	e4070400 			@ <UNDEFINED> instruction: e4070400
    1954:	04000013 			@ <UNDEFINED> instruction: 04000013
    1958:	5df91d05 			@ <UNDEFINED> instruction: 5df91d05
    195c:	00040000 			@ <UNDEFINED> instruction: 00040000
    1960:	33020004 	movwcc	r0, #8196	@ 0x2004
    1964:	0700000c 			@ <UNDEFINED> instruction: 0700000c
    1968:	00000064 			@ <UNDEFINED> instruction: 00000064
    196c:	03010003 	movweq	r0, #4099	@ 0x1003
    1970:	0b030320 			@ <UNDEFINED> instruction: 0b030320
    1974:	0b360702 			@ <UNDEFINED> instruction: 0b360702
    1978:	05040000 			@ <UNDEFINED> instruction: 05040000
    197c:	001af00d 			@ <UNDEFINED> instruction: 001af00d
    1980:	21030400 			@ <UNDEFINED> instruction: 21030400
    1984:	0e840704 			@ <UNDEFINED> instruction: 0e840704
    1988:	05040000 			@ <UNDEFINED> instruction: 05040000
    198c:	005e266b 			@ <UNDEFINED> instruction: 005e266b
    1990:	Address 0x1990 is out of bounds.


Disassembly of section .debug_line:

00000000 <.debug_line>:
{
   0:	00000157 			@ <UNDEFINED> instruction: 00000157
   4:	00ee0003 			@ <UNDEFINED> instruction: 00ee0003
    GPIO_Status_t status = gpio_validate_config(cfg);
   8:	01020000 			@ <UNDEFINED> instruction: 01020000
   c:	000d0efb 	strdeq	r0, [sp], -fp
  10:	01010101 			@ <UNDEFINED> instruction: 01010101
    if (status != GPIO_OK) {
  14:	01000000 			@ <UNDEFINED> instruction: 01000000
  18:	73010000 	movwvc	r0, #4096	@ 0x1000
        return status;
  1c:	43006372 	movwmi	r6, #882	@ 0x372
    volatile uint32_t *moder   =
  20:	72502f3a 			@ <UNDEFINED> instruction: 72502f3a
  24:	6172676f 			@ <UNDEFINED> instruction: 6172676f
        (volatile uint32_t *)((uintptr_t)cfg->port_base + GPIO_OTYPER_OFFSET);
  28:	6946206d 			@ <UNDEFINED> instruction: 6946206d
    volatile uint32_t *otyper  =
  2c:	2073656c 			@ <UNDEFINED> instruction: 2073656c
        (volatile uint32_t *)((uintptr_t)cfg->port_base + GPIO_OSPEEDR_OFFSET);
  30:	36387828 			@ <UNDEFINED> instruction: 36387828
    volatile uint32_t *ospeedr =
  34:	72412f29 			@ <UNDEFINED> instruction: 72412f29
        (volatile uint32_t *)((uintptr_t)cfg->port_base + GPIO_PUPDR_OFFSET);
  38:	4e47206d 			@ <UNDEFINED> instruction: 4e47206d
    volatile uint32_t *pupdr   =
  3c:	6f542055 			@ <UNDEFINED> instruction: 6f542055
    gpio_set_2bit_field(moder,   cfg->pin, GPIO_MODER_MASK,   GPIO_MODER_ANALOG);
  40:	68636c6f 			@ <UNDEFINED> instruction: 68636c6f
  44:	206e6961 			@ <UNDEFINED> instruction: 206e6961
  48:	2d6d7261 			@ <UNDEFINED> instruction: 2d6d7261
    gpio_set_2bit_field(ospeedr, cfg->pin, GPIO_OSPEEDR_MASK, GPIO_OSPEEDR_LOW);
  4c:	656e6f6e 			@ <UNDEFINED> instruction: 656e6f6e
  50:	6261652d 			@ <UNDEFINED> instruction: 6261652d
  54:	34312f69 			@ <UNDEFINED> instruction: 34312f69
  58:	7220332e 			@ <UNDEFINED> instruction: 7220332e
    gpio_set_2bit_field(pupdr,   cfg->pin, GPIO_PUPDR_MASK,   GPIO_PUPDR_NONE);
  5c:	2f316c65 			@ <UNDEFINED> instruction: 2f316c65
  60:	2f62696c 			@ <UNDEFINED> instruction: 2f62696c
  64:	2f636367 			@ <UNDEFINED> instruction: 2f636367
    *otyper &= ~(1UL << cfg->pin);
  68:	2d6d7261 			@ <UNDEFINED> instruction: 2d6d7261
  6c:	656e6f6e 			@ <UNDEFINED> instruction: 656e6f6e
  70:	6261652d 			@ <UNDEFINED> instruction: 6261652d
  74:	34312f69 			@ <UNDEFINED> instruction: 34312f69
  78:	312e332e 			@ <UNDEFINED> instruction: 312e332e
  7c:	636e692f 			@ <UNDEFINED> instruction: 636e692f
}
  80:	6564756c 			@ <UNDEFINED> instruction: 6564756c
  84:	636e6900 			@ <UNDEFINED> instruction: 636e6900
        return UART_ERR_OVERRUN;
  88:	616d0000 			@ <UNDEFINED> instruction: 616d0000
  8c:	632e6e69 			@ <UNDEFINED> instruction: 632e6e69
    if (sr_snapshot & USART_SR_FE) {
  90:	00000100 			@ <UNDEFINED> instruction: 00000100
  94:	69647473 			@ <UNDEFINED> instruction: 69647473
        return UART_ERR_FRAMING;
  98:	672d746e 			@ <UNDEFINED> instruction: 672d746e
  9c:	682e6363 			@ <UNDEFINED> instruction: 682e6363
}
  a0:	00000200 			@ <UNDEFINED> instruction: 00000200
  a4:	336d7473 			@ <UNDEFINED> instruction: 336d7473
  a8:	78346632 			@ <UNDEFINED> instruction: 78346632
  ac:	70675f78 			@ <UNDEFINED> instruction: 70675f78
  b0:	682e6f69 			@ <UNDEFINED> instruction: 682e6f69
  b4:	00000300 			@ <UNDEFINED> instruction: 00000300
  b8:	336d7473 			@ <UNDEFINED> instruction: 336d7473
  bc:	78346632 			@ <UNDEFINED> instruction: 78346632
  c0:	61755f78 			@ <UNDEFINED> instruction: 61755f78
  c4:	682e7472 			@ <UNDEFINED> instruction: 682e7472
  c8:	00000300 			@ <UNDEFINED> instruction: 00000300
  cc:	336d7473 			@ <UNDEFINED> instruction: 336d7473
  d0:	78346632 			@ <UNDEFINED> instruction: 78346632
  d4:	63725f78 			@ <UNDEFINED> instruction: 63725f78
  d8:	00682e63 			@ <UNDEFINED> instruction: 00682e63
  dc:	73000003 	movwvc	r0, #3
  e0:	6e696474 			@ <UNDEFINED> instruction: 6e696474
  e4:	00682e74 			@ <UNDEFINED> instruction: 00682e74
  e8:	73000002 	movwvc	r0, #2
  ec:	65646474 			@ <UNDEFINED> instruction: 65646474
  f0:	00682e66 			@ <UNDEFINED> instruction: 00682e66
  f4:	00000002 			@ <UNDEFINED> instruction: 00000002
  f8:	05000105 			@ <UNDEFINED> instruction: 05000105
  fc:	0001c402 			@ <UNDEFINED> instruction: 0001c402
 100:	01890308 			@ <UNDEFINED> instruction: 01890308
 104:	2f0b0501 			@ <UNDEFINED> instruction: 2f0b0501
 108:	01000202 			@ <UNDEFINED> instruction: 01000202
 10c:	00010501 			@ <UNDEFINED> instruction: 00010501
 110:	01cc0205 			@ <UNDEFINED> instruction: 01cc0205
 114:	91030800 			@ <UNDEFINED> instruction: 91030800
 118:	05050101 			@ <UNDEFINED> instruction: 05050101
 11c:	44090530 			@ <UNDEFINED> instruction: 44090530
 120:	02000805 			@ <UNDEFINED> instruction: 02000805
 124:	054a0104 			@ <UNDEFINED> instruction: 054a0104
 128:	0b032f09 			@ <UNDEFINED> instruction: 0b032f09
 12c:	0008052e 			@ <UNDEFINED> instruction: 0008052e
 130:	4a010402 			@ <UNDEFINED> instruction: 4a010402
 134:	032f0905 			@ <UNDEFINED> instruction: 032f0905
 138:	08052e0b 			@ <UNDEFINED> instruction: 08052e0b
 13c:	01040200 			@ <UNDEFINED> instruction: 01040200
 140:	2f09054a 			@ <UNDEFINED> instruction: 2f09054a
 144:	0b030505 			@ <UNDEFINED> instruction: 0b030505
 148:	4b4b4b2e 			@ <UNDEFINED> instruction: 4b4b4b2e
 14c:	4e09054b 			@ <UNDEFINED> instruction: 4e09054b
 150:	01040200 			@ <UNDEFINED> instruction: 01040200
 154:	1502474d 			@ <UNDEFINED> instruction: 1502474d
 158:	d4010100 			@ <UNDEFINED> instruction: d4010100
 15c:	03000003 	movweq	r0, #3
 160:	0000e400 			@ <UNDEFINED> instruction: 0000e400
 164:	fb010200 	blx	4096e <_Min_Stack_Size+0x4016e>
 168:	01000d0e 			@ <UNDEFINED> instruction: 01000d0e
 16c:	00010101 			@ <UNDEFINED> instruction: 00010101
 170:	00010000 			@ <UNDEFINED> instruction: 00010000
 174:	72730100 			@ <UNDEFINED> instruction: 72730100
 178:	3a430063 			@ <UNDEFINED> instruction: 3a430063
 17c:	6f72502f 			@ <UNDEFINED> instruction: 6f72502f
 180:	6d617267 			@ <UNDEFINED> instruction: 6d617267
 184:	6c694620 			@ <UNDEFINED> instruction: 6c694620
 188:	28207365 			@ <UNDEFINED> instruction: 28207365
 18c:	29363878 			@ <UNDEFINED> instruction: 29363878
 190:	6d72412f 			@ <UNDEFINED> instruction: 6d72412f
 194:	554e4720 			@ <UNDEFINED> instruction: 554e4720
 198:	6f6f5420 			@ <UNDEFINED> instruction: 6f6f5420
 19c:	6168636c 			@ <UNDEFINED> instruction: 6168636c
 1a0:	61206e69 			@ <UNDEFINED> instruction: 61206e69
 1a4:	6e2d6d72 			@ <UNDEFINED> instruction: 6e2d6d72
 1a8:	2d656e6f 			@ <UNDEFINED> instruction: 2d656e6f
 1ac:	69626165 			@ <UNDEFINED> instruction: 69626165
 1b0:	2e34312f 			@ <UNDEFINED> instruction: 2e34312f
 1b4:	65722033 			@ <UNDEFINED> instruction: 65722033
 1b8:	6c2f316c 			@ <UNDEFINED> instruction: 6c2f316c
 1bc:	672f6269 			@ <UNDEFINED> instruction: 672f6269
 1c0:	612f6363 			@ <UNDEFINED> instruction: 612f6363
 1c4:	6e2d6d72 			@ <UNDEFINED> instruction: 6e2d6d72
 1c8:	2d656e6f 			@ <UNDEFINED> instruction: 2d656e6f
 1cc:	69626165 			@ <UNDEFINED> instruction: 69626165
 1d0:	2e34312f 			@ <UNDEFINED> instruction: 2e34312f
 1d4:	2f312e33 			@ <UNDEFINED> instruction: 2f312e33
 1d8:	6c636e69 			@ <UNDEFINED> instruction: 6c636e69
 1dc:	00656475 			@ <UNDEFINED> instruction: 00656475
 1e0:	00636e69 			@ <UNDEFINED> instruction: 00636e69
 1e4:	6d747300 			@ <UNDEFINED> instruction: 6d747300
 1e8:	34663233 			@ <UNDEFINED> instruction: 34663233
 1ec:	675f7878 			@ <UNDEFINED> instruction: 675f7878
 1f0:	2e6f6970 			@ <UNDEFINED> instruction: 2e6f6970
 1f4:	00010063 			@ <UNDEFINED> instruction: 00010063
 1f8:	64747300 			@ <UNDEFINED> instruction: 64747300
 1fc:	2d746e69 			@ <UNDEFINED> instruction: 2d746e69
 200:	2e636367 			@ <UNDEFINED> instruction: 2e636367
 204:	00020068 			@ <UNDEFINED> instruction: 00020068
 208:	6d747300 			@ <UNDEFINED> instruction: 6d747300
 20c:	34663233 			@ <UNDEFINED> instruction: 34663233
 210:	675f7878 			@ <UNDEFINED> instruction: 675f7878
 214:	2e6f6970 			@ <UNDEFINED> instruction: 2e6f6970
 218:	00030068 			@ <UNDEFINED> instruction: 00030068
 21c:	64747300 			@ <UNDEFINED> instruction: 64747300
 220:	2e746e69 			@ <UNDEFINED> instruction: 2e746e69
 224:	00020068 			@ <UNDEFINED> instruction: 00020068
 228:	64747300 			@ <UNDEFINED> instruction: 64747300
 22c:	2e666564 			@ <UNDEFINED> instruction: 2e666564
 230:	00020068 			@ <UNDEFINED> instruction: 00020068
 234:	6d747300 			@ <UNDEFINED> instruction: 6d747300
 238:	34663233 			@ <UNDEFINED> instruction: 34663233
 23c:	725f7878 			@ <UNDEFINED> instruction: 725f7878
 240:	682e6363 			@ <UNDEFINED> instruction: 682e6363
 244:	00000300 			@ <UNDEFINED> instruction: 00000300
 248:	00010500 			@ <UNDEFINED> instruction: 00010500
 24c:	02680205 			@ <UNDEFINED> instruction: 02680205
 250:	1b030800 			@ <UNDEFINED> instruction: 1b030800
 254:	4b080501 			@ <UNDEFINED> instruction: 4b080501
 258:	02001b05 			@ <UNDEFINED> instruction: 02001b05
 25c:	053c0104 			@ <UNDEFINED> instruction: 053c0104
 260:	04020015 			@ <UNDEFINED> instruction: 04020015
 264:	10052e01 			@ <UNDEFINED> instruction: 10052e01
 268:	3e0c052f 			@ <UNDEFINED> instruction: 3e0c052f
 26c:	052e0805 			@ <UNDEFINED> instruction: 052e0805
 270:	0c052f10 			@ <UNDEFINED> instruction: 0c052f10
 274:	2e08053e 			@ <UNDEFINED> instruction: 2e08053e
 278:	052f0c05 			@ <UNDEFINED> instruction: 052f0c05
 27c:	04020029 			@ <UNDEFINED> instruction: 04020029
 280:	0c052d01 			@ <UNDEFINED> instruction: 0c052d01
 284:	2d290530 			@ <UNDEFINED> instruction: 2d290530
 288:	05300c05 			@ <UNDEFINED> instruction: 05300c05
 28c:	10052d29 			@ <UNDEFINED> instruction: 10052d29
 290:	3e0c0530 			@ <UNDEFINED> instruction: 3e0c0530
 294:	052e0805 			@ <UNDEFINED> instruction: 052e0805
 298:	0402002a 			@ <UNDEFINED> instruction: 0402002a
 29c:	24052e01 			@ <UNDEFINED> instruction: 24052e01
 2a0:	01040200 			@ <UNDEFINED> instruction: 01040200
 2a4:	2f10052e 			@ <UNDEFINED> instruction: 2f10052e
 2a8:	053e0c05 			@ <UNDEFINED> instruction: 053e0c05
 2ac:	06022101 			@ <UNDEFINED> instruction: 06022101
 2b0:	05010100 			@ <UNDEFINED> instruction: 05010100
 2b4:	02050001 			@ <UNDEFINED> instruction: 02050001
 2b8:	080002dc 			@ <UNDEFINED> instruction: 080002dc
 2bc:	05013d03 			@ <UNDEFINED> instruction: 05013d03
 2c0:	0e058316 			@ <UNDEFINED> instruction: 0e058316
 2c4:	2f0d0520 			@ <UNDEFINED> instruction: 2f0d0520
 2c8:	052e1b05 			@ <UNDEFINED> instruction: 052e1b05
 2cc:	12054a14 			@ <UNDEFINED> instruction: 12054a14
 2d0:	20300520 			@ <UNDEFINED> instruction: 20300520
 2d4:	053c3805 			@ <UNDEFINED> instruction: 053c3805
 2d8:	0a053c26 			@ <UNDEFINED> instruction: 0a053c26
 2dc:	2f010520 			@ <UNDEFINED> instruction: 2f010520
 2e0:	01000602 			@ <UNDEFINED> instruction: 01000602
 2e4:	00010501 			@ <UNDEFINED> instruction: 00010501
 2e8:	03200205 			@ <UNDEFINED> instruction: 03200205
 2ec:	cf030800 			@ <UNDEFINED> instruction: cf030800
 2f0:	39050100 			@ <UNDEFINED> instruction: 39050100
 2f4:	04020083 			@ <UNDEFINED> instruction: 04020083
 2f8:	003c0601 			@ <UNDEFINED> instruction: 003c0601
 2fc:	2e020402 			@ <UNDEFINED> instruction: 2e020402
 300:	02000e05 			@ <UNDEFINED> instruction: 02000e05
 304:	20060404 			@ <UNDEFINED> instruction: 20060404
 308:	05211b05 			@ <UNDEFINED> instruction: 05211b05
 30c:	053d200e 			@ <UNDEFINED> instruction: 053d200e
 310:	34053f1f 			@ <UNDEFINED> instruction: 34053f1f
 314:	2d180520 			@ <UNDEFINED> instruction: 2d180520
 318:	05230d05 			@ <UNDEFINED> instruction: 05230d05
 31c:	14052e2e 			@ <UNDEFINED> instruction: 14052e2e
 320:	2012054a 			@ <UNDEFINED> instruction: 2012054a
 324:	05211b05 			@ <UNDEFINED> instruction: 05211b05
 328:	0a053c2c 			@ <UNDEFINED> instruction: 0a053c2c
 32c:	01051f3c 			@ <UNDEFINED> instruction: 01051f3c
 330:	00060230 			@ <UNDEFINED> instruction: 00060230
 334:	01050101 			@ <UNDEFINED> instruction: 01050101
 338:	84020500 			@ <UNDEFINED> instruction: 84020500
 33c:	03080003 	movweq	r0, #32771	@ 0x8003
 340:	050100ec 			@ <UNDEFINED> instruction: 050100ec
 344:	08054b1c 			@ <UNDEFINED> instruction: 08054b1c
 348:	4b100559 			@ <UNDEFINED> instruction: 4b100559
 34c:	05400505 			@ <UNDEFINED> instruction: 05400505
 350:	05052e17 			@ <UNDEFINED> instruction: 05052e17
 354:	2011052e 			@ <UNDEFINED> instruction: 2011052e
 358:	052f0505 			@ <UNDEFINED> instruction: 052f0505
 35c:	0805330c 			@ <UNDEFINED> instruction: 0805330c
 360:	3031052e 			@ <UNDEFINED> instruction: 3031052e
 364:	052e3d05 			@ <UNDEFINED> instruction: 052e3d05
 368:	10051f1c 			@ <UNDEFINED> instruction: 10051f1c
 36c:	2e0c0523 			@ <UNDEFINED> instruction: 2e0c0523
 370:	052f2005 			@ <UNDEFINED> instruction: 052f2005
 374:	13053c1a 	movwne	r3, #23578	@ 0x5c1a
 378:	3e21053c 			@ <UNDEFINED> instruction: 3e21053c
 37c:	052e2705 			@ <UNDEFINED> instruction: 052e2705
 380:	1305201a 	movwne	r2, #20506	@ 0x501a
 384:	342d052e 			@ <UNDEFINED> instruction: 342d052e
 388:	052e3905 			@ <UNDEFINED> instruction: 052e3905
 38c:	0c051f18 			@ <UNDEFINED> instruction: 0c051f18
 390:	2e080522 			@ <UNDEFINED> instruction: 2e080522
 394:	052f0905 			@ <UNDEFINED> instruction: 052f0905
 398:	1a052e20 			@ <UNDEFINED> instruction: 1a052e20
 39c:	2e11053c 			@ <UNDEFINED> instruction: 2e11053c
 3a0:	054c0905 			@ <UNDEFINED> instruction: 054c0905
 3a4:	1a052e20 			@ <UNDEFINED> instruction: 1a052e20
 3a8:	2e14053c 			@ <UNDEFINED> instruction: 2e14053c
 3ac:	05201105 			@ <UNDEFINED> instruction: 05201105
 3b0:	3905412d 			@ <UNDEFINED> instruction: 3905412d
 3b4:	1f18052e 			@ <UNDEFINED> instruction: 1f18052e
 3b8:	05222505 			@ <UNDEFINED> instruction: 05222505
 3bc:	05052e42 			@ <UNDEFINED> instruction: 05052e42
 3c0:	4e2d052e 			@ <UNDEFINED> instruction: 4e2d052e
 3c4:	052e3905 			@ <UNDEFINED> instruction: 052e3905
 3c8:	23051f18 	movwcs	r1, #24344	@ 0x5f18
 3cc:	2e3e0522 			@ <UNDEFINED> instruction: 2e3e0522
 3d0:	052e0505 			@ <UNDEFINED> instruction: 052e0505
 3d4:	08054d0c 			@ <UNDEFINED> instruction: 08054d0c
 3d8:	2f18052e 			@ <UNDEFINED> instruction: 2f18052e
 3dc:	052e2805 			@ <UNDEFINED> instruction: 052e2805
 3e0:	09052e32 			@ <UNDEFINED> instruction: 09052e32
 3e4:	4018052e 			@ <UNDEFINED> instruction: 4018052e
 3e8:	053e2305 			@ <UNDEFINED> instruction: 053e2305
 3ec:	05052e3e 			@ <UNDEFINED> instruction: 05052e3e
 3f0:	4c0c052e 			@ <UNDEFINED> instruction: 4c0c052e
 3f4:	02210105 			@ <UNDEFINED> instruction: 02210105
 3f8:	01010006 			@ <UNDEFINED> instruction: 01010006
 3fc:	05000105 			@ <UNDEFINED> instruction: 05000105
 400:	00000002 			@ <UNDEFINED> instruction: 00000002
 404:	01ab0300 			@ <UNDEFINED> instruction: 01ab0300
 408:	671c0501 			@ <UNDEFINED> instruction: 671c0501
 40c:	05590805 			@ <UNDEFINED> instruction: 05590805
 410:	2d054b10 	vstrcs	d4, [r5, #-64]	@ 0xffffffc0
 414:	2e390540 			@ <UNDEFINED> instruction: 2e390540
 418:	051f1805 			@ <UNDEFINED> instruction: 051f1805
 41c:	1c052308 			@ <UNDEFINED> instruction: 1c052308
 420:	3c16053d 			@ <UNDEFINED> instruction: 3c16053d
 424:	053c0f05 			@ <UNDEFINED> instruction: 053c0f05
 428:	23053e1d 	movwcs	r3, #24093	@ 0x5e1d
 42c:	2016052e 			@ <UNDEFINED> instruction: 2016052e
 430:	052e0f05 			@ <UNDEFINED> instruction: 052e0f05
 434:	0105310c 			@ <UNDEFINED> instruction: 0105310c
 438:	00040221 			@ <UNDEFINED> instruction: 00040221
 43c:	01050101 			@ <UNDEFINED> instruction: 01050101
 440:	00020500 			@ <UNDEFINED> instruction: 00020500
 444:	03000000 	movweq	r0, #0
 448:	050101c3 			@ <UNDEFINED> instruction: 050101c3
 44c:	10055908 			@ <UNDEFINED> instruction: 10055908
 450:	3f1c053d 			@ <UNDEFINED> instruction: 3f1c053d
 454:	05590805 			@ <UNDEFINED> instruction: 05590805
 458:	2d054b10 	vstrcs	d4, [r5, #-64]	@ 0xffffffc0
 45c:	2e390540 			@ <UNDEFINED> instruction: 2e390540
 460:	051f1805 			@ <UNDEFINED> instruction: 051f1805
 464:	1b052310 			@ <UNDEFINED> instruction: 1b052310
 468:	2e15052e 			@ <UNDEFINED> instruction: 2e15052e
 46c:	05202205 			@ <UNDEFINED> instruction: 05202205
 470:	0c052e37 			@ <UNDEFINED> instruction: 0c052e37
 474:	01053066 			@ <UNDEFINED> instruction: 01053066
 478:	00040221 			@ <UNDEFINED> instruction: 00040221
 47c:	01050101 			@ <UNDEFINED> instruction: 01050101
 480:	00020500 			@ <UNDEFINED> instruction: 00020500
 484:	03000000 	movweq	r0, #0
 488:	050101dd 			@ <UNDEFINED> instruction: 050101dd
 48c:	08054b1c 			@ <UNDEFINED> instruction: 08054b1c
 490:	4b100559 			@ <UNDEFINED> instruction: 4b100559
 494:	05402d05 			@ <UNDEFINED> instruction: 05402d05
 498:	18052e39 			@ <UNDEFINED> instruction: 18052e39
 49c:	232d051f 			@ <UNDEFINED> instruction: 232d051f
 4a0:	052e3905 			@ <UNDEFINED> instruction: 052e3905
 4a4:	0a051f18 			@ <UNDEFINED> instruction: 0a051f18
 4a8:	2e150524 			@ <UNDEFINED> instruction: 2e150524
 4ac:	052e0f05 			@ <UNDEFINED> instruction: 052e0f05
 4b0:	0805201c 			@ <UNDEFINED> instruction: 0805201c
 4b4:	2f1d052e 			@ <UNDEFINED> instruction: 2f1d052e
 4b8:	052e2305 			@ <UNDEFINED> instruction: 052e2305
 4bc:	0f052016 			@ <UNDEFINED> instruction: 0f052016
 4c0:	3e1c052e 			@ <UNDEFINED> instruction: 3e1c052e
 4c4:	053c1605 			@ <UNDEFINED> instruction: 053c1605
 4c8:	0c053c0f 			@ <UNDEFINED> instruction: 0c053c0f
 4cc:	21010531 			@ <UNDEFINED> instruction: 21010531
 4d0:	01000402 			@ <UNDEFINED> instruction: 01000402
 4d4:	00010501 			@ <UNDEFINED> instruction: 00010501
 4d8:	00000205 			@ <UNDEFINED> instruction: 00000205
 4dc:	fa030000 	blx	c04e4 <_Min_Stack_Size+0xbfce4>
 4e0:	1c050101 			@ <UNDEFINED> instruction: 1c050101
 4e4:	5908054b 			@ <UNDEFINED> instruction: 5908054b
 4e8:	054b1005 			@ <UNDEFINED> instruction: 054b1005
 4ec:	2d053f18 			@ <UNDEFINED> instruction: 2d053f18
 4f0:	2e39053f 			@ <UNDEFINED> instruction: 2e39053f
 4f4:	051f1805 			@ <UNDEFINED> instruction: 051f1805
 4f8:	3905232d 			@ <UNDEFINED> instruction: 3905232d
 4fc:	1f18052e 			@ <UNDEFINED> instruction: 1f18052e
 500:	05232d05 			@ <UNDEFINED> instruction: 05232d05
 504:	18052e39 			@ <UNDEFINED> instruction: 18052e39
 508:	2425051f 			@ <UNDEFINED> instruction: 2425051f
 50c:	052e0505 			@ <UNDEFINED> instruction: 052e0505
 510:	05055a25 			@ <UNDEFINED> instruction: 05055a25
 514:	5a25052e 			@ <UNDEFINED> instruction: 5a25052e
 518:	5a2e0505 			@ <UNDEFINED> instruction: 5a2e0505
 51c:	052e1c05 			@ <UNDEFINED> instruction: 052e1c05
 520:	10053c16 			@ <UNDEFINED> instruction: 10053c16
 524:	200d052e 			@ <UNDEFINED> instruction: 200d052e
 528:	053e0c05 			@ <UNDEFINED> instruction: 053e0c05
 52c:	04022101 			@ <UNDEFINED> instruction: 04022101
 530:	87010100 			@ <UNDEFINED> instruction: 87010100
 534:	03000002 	movweq	r0, #2
 538:	0000c300 			@ <UNDEFINED> instruction: 0000c300
 53c:	fb010200 	blx	40d46 <_Min_Stack_Size+0x40546>
 540:	01000d0e 			@ <UNDEFINED> instruction: 01000d0e
 544:	00010101 			@ <UNDEFINED> instruction: 00010101
 548:	00010000 			@ <UNDEFINED> instruction: 00010000
 54c:	72730100 			@ <UNDEFINED> instruction: 72730100
 550:	3a430063 			@ <UNDEFINED> instruction: 3a430063
 554:	6f72502f 			@ <UNDEFINED> instruction: 6f72502f
 558:	6d617267 			@ <UNDEFINED> instruction: 6d617267
 55c:	6c694620 			@ <UNDEFINED> instruction: 6c694620
 560:	28207365 			@ <UNDEFINED> instruction: 28207365
 564:	29363878 			@ <UNDEFINED> instruction: 29363878
 568:	6d72412f 			@ <UNDEFINED> instruction: 6d72412f
 56c:	554e4720 			@ <UNDEFINED> instruction: 554e4720
 570:	6f6f5420 			@ <UNDEFINED> instruction: 6f6f5420
 574:	6168636c 			@ <UNDEFINED> instruction: 6168636c
 578:	61206e69 			@ <UNDEFINED> instruction: 61206e69
 57c:	6e2d6d72 			@ <UNDEFINED> instruction: 6e2d6d72
 580:	2d656e6f 			@ <UNDEFINED> instruction: 2d656e6f
 584:	69626165 			@ <UNDEFINED> instruction: 69626165
 588:	2e34312f 			@ <UNDEFINED> instruction: 2e34312f
 58c:	65722033 			@ <UNDEFINED> instruction: 65722033
 590:	6c2f316c 			@ <UNDEFINED> instruction: 6c2f316c
 594:	672f6269 			@ <UNDEFINED> instruction: 672f6269
 598:	612f6363 			@ <UNDEFINED> instruction: 612f6363
 59c:	6e2d6d72 			@ <UNDEFINED> instruction: 6e2d6d72
 5a0:	2d656e6f 			@ <UNDEFINED> instruction: 2d656e6f
 5a4:	69626165 			@ <UNDEFINED> instruction: 69626165
 5a8:	2e34312f 			@ <UNDEFINED> instruction: 2e34312f
 5ac:	2f312e33 			@ <UNDEFINED> instruction: 2f312e33
 5b0:	6c636e69 			@ <UNDEFINED> instruction: 6c636e69
 5b4:	00656475 			@ <UNDEFINED> instruction: 00656475
 5b8:	00636e69 			@ <UNDEFINED> instruction: 00636e69
 5bc:	6d747300 			@ <UNDEFINED> instruction: 6d747300
 5c0:	34663233 			@ <UNDEFINED> instruction: 34663233
 5c4:	725f7878 			@ <UNDEFINED> instruction: 725f7878
 5c8:	632e6363 			@ <UNDEFINED> instruction: 632e6363
 5cc:	00000100 			@ <UNDEFINED> instruction: 00000100
 5d0:	69647473 			@ <UNDEFINED> instruction: 69647473
 5d4:	672d746e 			@ <UNDEFINED> instruction: 672d746e
 5d8:	682e6363 			@ <UNDEFINED> instruction: 682e6363
 5dc:	00000200 			@ <UNDEFINED> instruction: 00000200
 5e0:	336d7473 			@ <UNDEFINED> instruction: 336d7473
 5e4:	78346632 			@ <UNDEFINED> instruction: 78346632
 5e8:	63725f78 			@ <UNDEFINED> instruction: 63725f78
 5ec:	00682e63 			@ <UNDEFINED> instruction: 00682e63
 5f0:	73000003 	movwvc	r0, #3
 5f4:	6e696474 			@ <UNDEFINED> instruction: 6e696474
 5f8:	00682e74 			@ <UNDEFINED> instruction: 00682e74
 5fc:	00000002 			@ <UNDEFINED> instruction: 00000002
 600:	05000105 			@ <UNDEFINED> instruction: 05000105
 604:	00000002 			@ <UNDEFINED> instruction: 00000002
 608:	01260300 			@ <UNDEFINED> instruction: 01260300
 60c:	054b0e05 			@ <UNDEFINED> instruction: 054b0e05
 610:	0c052f0b 			@ <UNDEFINED> instruction: 0c052f0b
 614:	67140521 			@ <UNDEFINED> instruction: 67140521
 618:	052c0d05 			@ <UNDEFINED> instruction: 052c0d05
 61c:	2b052e16 			@ <UNDEFINED> instruction: 2b052e16
 620:	410c052e 			@ <UNDEFINED> instruction: 410c052e
 624:	02210105 			@ <UNDEFINED> instruction: 02210105
 628:	0101000b 			@ <UNDEFINED> instruction: 0101000b
 62c:	05000105 			@ <UNDEFINED> instruction: 05000105
 630:	00000002 			@ <UNDEFINED> instruction: 00000002
 634:	013e0300 			@ <UNDEFINED> instruction: 013e0300
 638:	054b0505 			@ <UNDEFINED> instruction: 054b0505
 63c:	05053c11 			@ <UNDEFINED> instruction: 05053c11
 640:	01052f3d 			@ <UNDEFINED> instruction: 01052f3d
 644:	0008022f 			@ <UNDEFINED> instruction: 0008022f
 648:	01050101 			@ <UNDEFINED> instruction: 01050101
 64c:	00020500 			@ <UNDEFINED> instruction: 00020500
 650:	03000000 	movweq	r0, #0
 654:	050100ca 			@ <UNDEFINED> instruction: 050100ca
 658:	14054b05 			@ <UNDEFINED> instruction: 14054b05
 65c:	2e05052e 			@ <UNDEFINED> instruction: 2e05052e
 660:	05201105 			@ <UNDEFINED> instruction: 05201105
 664:	09022f01 			@ <UNDEFINED> instruction: 09022f01
 668:	05010100 			@ <UNDEFINED> instruction: 05010100
 66c:	02050001 			@ <UNDEFINED> instruction: 02050001
 670:	00000000 			@ <UNDEFINED> instruction: 00000000
 674:	0100d403 			@ <UNDEFINED> instruction: 0100d403
 678:	054b0505 			@ <UNDEFINED> instruction: 054b0505
 67c:	05053c11 			@ <UNDEFINED> instruction: 05053c11
 680:	01052f3d 			@ <UNDEFINED> instruction: 01052f3d
 684:	0008022f 			@ <UNDEFINED> instruction: 0008022f
 688:	01050101 			@ <UNDEFINED> instruction: 01050101
 68c:	00020500 			@ <UNDEFINED> instruction: 00020500
 690:	03000000 	movweq	r0, #0
 694:	050100e0 			@ <UNDEFINED> instruction: 050100e0
 698:	14054b05 			@ <UNDEFINED> instruction: 14054b05
 69c:	2e05052e 			@ <UNDEFINED> instruction: 2e05052e
 6a0:	05201105 			@ <UNDEFINED> instruction: 05201105
 6a4:	09022f01 			@ <UNDEFINED> instruction: 09022f01
 6a8:	05010100 			@ <UNDEFINED> instruction: 05010100
 6ac:	02050001 			@ <UNDEFINED> instruction: 02050001
 6b0:	00000000 			@ <UNDEFINED> instruction: 00000000
 6b4:	0100ea03 			@ <UNDEFINED> instruction: 0100ea03
 6b8:	054b0505 			@ <UNDEFINED> instruction: 054b0505
 6bc:	05053c11 			@ <UNDEFINED> instruction: 05053c11
 6c0:	01052f3d 			@ <UNDEFINED> instruction: 01052f3d
 6c4:	0008022f 			@ <UNDEFINED> instruction: 0008022f
 6c8:	01050101 			@ <UNDEFINED> instruction: 01050101
 6cc:	00020500 			@ <UNDEFINED> instruction: 00020500
 6d0:	03000000 	movweq	r0, #0
 6d4:	050100f6 			@ <UNDEFINED> instruction: 050100f6
 6d8:	14054b05 			@ <UNDEFINED> instruction: 14054b05
 6dc:	2e05052e 			@ <UNDEFINED> instruction: 2e05052e
 6e0:	05201105 			@ <UNDEFINED> instruction: 05201105
 6e4:	09022f01 			@ <UNDEFINED> instruction: 09022f01
 6e8:	05010100 			@ <UNDEFINED> instruction: 05010100
 6ec:	02050001 			@ <UNDEFINED> instruction: 02050001
 6f0:	00000000 			@ <UNDEFINED> instruction: 00000000
 6f4:	01018103 			@ <UNDEFINED> instruction: 01018103
 6f8:	054b1405 			@ <UNDEFINED> instruction: 054b1405
 6fc:	0905200e 			@ <UNDEFINED> instruction: 0905200e
 700:	4b10052f 			@ <UNDEFINED> instruction: 4b10052f
 704:	053c0905 			@ <UNDEFINED> instruction: 053c0905
 708:	0e053d05 			@ <UNDEFINED> instruction: 0e053d05
 70c:	2f0c0520 			@ <UNDEFINED> instruction: 2f0c0520
 710:	02670105 			@ <UNDEFINED> instruction: 02670105
 714:	01010006 			@ <UNDEFINED> instruction: 01010006
 718:	05000105 			@ <UNDEFINED> instruction: 05000105
 71c:	00000002 			@ <UNDEFINED> instruction: 00000002
 720:	018f0300 			@ <UNDEFINED> instruction: 018f0300
 724:	2f0d0501 			@ <UNDEFINED> instruction: 2f0d0501
 728:	052e2b05 			@ <UNDEFINED> instruction: 052e2b05
 72c:	07023d01 			@ <UNDEFINED> instruction: 07023d01
 730:	05010100 			@ <UNDEFINED> instruction: 05010100
 734:	02050001 			@ <UNDEFINED> instruction: 02050001
 738:	08000498 			@ <UNDEFINED> instruction: 08000498
 73c:	0101a103 			@ <UNDEFINED> instruction: 0101a103
 740:	054b1f05 			@ <UNDEFINED> instruction: 054b1f05
 744:	0505580e 			@ <UNDEFINED> instruction: 0505580e
 748:	20130530 			@ <UNDEFINED> instruction: 20130530
 74c:	052f0505 			@ <UNDEFINED> instruction: 052f0505
 750:	1305201c 	movwne	r2, #20508	@ 0x501c
 754:	2105053c 			@ <UNDEFINED> instruction: 2105053c
 758:	05201305 			@ <UNDEFINED> instruction: 05201305
 75c:	13053105 	movwne	r3, #20741	@ 0x5105
 760:	31010520 			@ <UNDEFINED> instruction: 31010520
 764:	01000f02 			@ <UNDEFINED> instruction: 01000f02
 768:	00010501 			@ <UNDEFINED> instruction: 00010501
 76c:	04e80205 			@ <UNDEFINED> instruction: 04e80205
 770:	b7030800 			@ <UNDEFINED> instruction: b7030800
 774:	0e050101 			@ <UNDEFINED> instruction: 0e050101
 778:	3f1d0550 			@ <UNDEFINED> instruction: 3f1d0550
 77c:	052e1105 			@ <UNDEFINED> instruction: 052e1105
 780:	04020016 			@ <UNDEFINED> instruction: 04020016
 784:	01053d01 			@ <UNDEFINED> instruction: 01053d01
 788:	000a024b 			@ <UNDEFINED> instruction: 000a024b
 78c:	01050101 			@ <UNDEFINED> instruction: 01050101
 790:	00020500 			@ <UNDEFINED> instruction: 00020500
 794:	03000000 	movweq	r0, #0
 798:	050101ca 			@ <UNDEFINED> instruction: 050101ca
 79c:	01052f0c 			@ <UNDEFINED> instruction: 01052f0c
 7a0:	0008022f 			@ <UNDEFINED> instruction: 0008022f
 7a4:	01050101 			@ <UNDEFINED> instruction: 01050101
 7a8:	1c020500 			@ <UNDEFINED> instruction: 1c020500
 7ac:	03080005 	movweq	r0, #32773	@ 0x8005
 7b0:	050101d6 			@ <UNDEFINED> instruction: 050101d6
 7b4:	01052f0e 			@ <UNDEFINED> instruction: 01052f0e
 7b8:	00070259 			@ <UNDEFINED> instruction: 00070259
 7bc:	04710101 			@ <UNDEFINED> instruction: 04710101
 7c0:	00030000 			@ <UNDEFINED> instruction: 00030000
 7c4:	000000f8 	strdeq	r0, [r0], -r8
 7c8:	0efb0102 			@ <UNDEFINED> instruction: 0efb0102
 7cc:	0101000d 			@ <UNDEFINED> instruction: 0101000d
 7d0:	00000101 			@ <UNDEFINED> instruction: 00000101
 7d4:	00000100 			@ <UNDEFINED> instruction: 00000100
 7d8:	63727301 			@ <UNDEFINED> instruction: 63727301
 7dc:	2f3a4300 			@ <UNDEFINED> instruction: 2f3a4300
 7e0:	676f7250 			@ <UNDEFINED> instruction: 676f7250
 7e4:	206d6172 			@ <UNDEFINED> instruction: 206d6172
 7e8:	656c6946 			@ <UNDEFINED> instruction: 656c6946
 7ec:	78282073 			@ <UNDEFINED> instruction: 78282073
 7f0:	2f293638 			@ <UNDEFINED> instruction: 2f293638
 7f4:	206d7241 			@ <UNDEFINED> instruction: 206d7241
 7f8:	20554e47 			@ <UNDEFINED> instruction: 20554e47
 7fc:	6c6f6f54 			@ <UNDEFINED> instruction: 6c6f6f54
 800:	69616863 			@ <UNDEFINED> instruction: 69616863
 804:	7261206e 			@ <UNDEFINED> instruction: 7261206e
 808:	6f6e2d6d 			@ <UNDEFINED> instruction: 6f6e2d6d
 80c:	652d656e 			@ <UNDEFINED> instruction: 652d656e
 810:	2f696261 			@ <UNDEFINED> instruction: 2f696261
 814:	332e3431 			@ <UNDEFINED> instruction: 332e3431
 818:	6c657220 			@ <UNDEFINED> instruction: 6c657220
 81c:	696c2f31 			@ <UNDEFINED> instruction: 696c2f31
 820:	63672f62 			@ <UNDEFINED> instruction: 63672f62
 824:	72612f63 			@ <UNDEFINED> instruction: 72612f63
 828:	6f6e2d6d 			@ <UNDEFINED> instruction: 6f6e2d6d
 82c:	652d656e 			@ <UNDEFINED> instruction: 652d656e
 830:	2f696261 			@ <UNDEFINED> instruction: 2f696261
 834:	332e3431 			@ <UNDEFINED> instruction: 332e3431
 838:	692f312e 			@ <UNDEFINED> instruction: 692f312e
 83c:	756c636e 			@ <UNDEFINED> instruction: 756c636e
 840:	69006564 			@ <UNDEFINED> instruction: 69006564
 844:	0000636e 			@ <UNDEFINED> instruction: 0000636e
 848:	336d7473 			@ <UNDEFINED> instruction: 336d7473
 84c:	78346632 			@ <UNDEFINED> instruction: 78346632
 850:	61755f78 			@ <UNDEFINED> instruction: 61755f78
 854:	632e7472 			@ <UNDEFINED> instruction: 632e7472
 858:	00000100 			@ <UNDEFINED> instruction: 00000100
 85c:	69647473 			@ <UNDEFINED> instruction: 69647473
 860:	672d746e 			@ <UNDEFINED> instruction: 672d746e
 864:	682e6363 			@ <UNDEFINED> instruction: 682e6363
 868:	00000200 			@ <UNDEFINED> instruction: 00000200
 86c:	336d7473 			@ <UNDEFINED> instruction: 336d7473
 870:	78346632 			@ <UNDEFINED> instruction: 78346632
 874:	61755f78 			@ <UNDEFINED> instruction: 61755f78
 878:	682e7472 			@ <UNDEFINED> instruction: 682e7472
 87c:	00000300 			@ <UNDEFINED> instruction: 00000300
 880:	69647473 			@ <UNDEFINED> instruction: 69647473
 884:	682e746e 			@ <UNDEFINED> instruction: 682e746e
 888:	00000200 			@ <UNDEFINED> instruction: 00000200
 88c:	64647473 			@ <UNDEFINED> instruction: 64647473
 890:	682e6665 			@ <UNDEFINED> instruction: 682e6665
 894:	00000200 			@ <UNDEFINED> instruction: 00000200
 898:	336d7473 			@ <UNDEFINED> instruction: 336d7473
 89c:	78346632 			@ <UNDEFINED> instruction: 78346632
 8a0:	63725f78 			@ <UNDEFINED> instruction: 63725f78
 8a4:	00682e63 			@ <UNDEFINED> instruction: 00682e63
 8a8:	73000003 	movwvc	r0, #3
 8ac:	32336d74 			@ <UNDEFINED> instruction: 32336d74
 8b0:	78783466 			@ <UNDEFINED> instruction: 78783466
 8b4:	6970675f 			@ <UNDEFINED> instruction: 6970675f
 8b8:	00682e6f 			@ <UNDEFINED> instruction: 00682e6f
 8bc:	00000003 			@ <UNDEFINED> instruction: 00000003
 8c0:	05000105 			@ <UNDEFINED> instruction: 05000105
 8c4:	00053802 			@ <UNDEFINED> instruction: 00053802
 8c8:	01270308 			@ <UNDEFINED> instruction: 01270308
 8cc:	054b0805 			@ <UNDEFINED> instruction: 054b0805
 8d0:	0402001b 			@ <UNDEFINED> instruction: 0402001b
 8d4:	15053c01 			@ <UNDEFINED> instruction: 15053c01
 8d8:	01040200 			@ <UNDEFINED> instruction: 01040200
 8dc:	0035052e 			@ <UNDEFINED> instruction: 0035052e
 8e0:	2e020402 			@ <UNDEFINED> instruction: 2e020402
 8e4:	02002f05 			@ <UNDEFINED> instruction: 02002f05
 8e8:	052e0204 			@ <UNDEFINED> instruction: 052e0204
 8ec:	0c052f10 			@ <UNDEFINED> instruction: 0c052f10
 8f0:	2e08053e 			@ <UNDEFINED> instruction: 2e08053e
 8f4:	052f1005 			@ <UNDEFINED> instruction: 052f1005
 8f8:	08053e0c 			@ <UNDEFINED> instruction: 08053e0c
 8fc:	2f10052e 			@ <UNDEFINED> instruction: 2f10052e
 900:	053e0c05 			@ <UNDEFINED> instruction: 053e0c05
 904:	10052e08 			@ <UNDEFINED> instruction: 10052e08
 908:	3e0c052f 			@ <UNDEFINED> instruction: 3e0c052f
 90c:	052e0805 			@ <UNDEFINED> instruction: 052e0805
 910:	0c052f10 			@ <UNDEFINED> instruction: 0c052f10
 914:	2e08053e 			@ <UNDEFINED> instruction: 2e08053e
 918:	052f1005 			@ <UNDEFINED> instruction: 052f1005
 91c:	01053e0c 			@ <UNDEFINED> instruction: 01053e0c
 920:	00060221 			@ <UNDEFINED> instruction: 00060221
 924:	01050101 			@ <UNDEFINED> instruction: 01050101
 928:	b0020500 			@ <UNDEFINED> instruction: b0020500
 92c:	03080005 	movweq	r0, #32773	@ 0x8005
 930:	050100c5 			@ <UNDEFINED> instruction: 050100c5
 934:	37055922 			@ <UNDEFINED> instruction: 37055922
 938:	2f010520 			@ <UNDEFINED> instruction: 2f010520
 93c:	01000602 			@ <UNDEFINED> instruction: 01000602
 940:	00010501 			@ <UNDEFINED> instruction: 00010501
 944:	05cc0205 			@ <UNDEFINED> instruction: 05cc0205
 948:	da030800 			@ <UNDEFINED> instruction: da030800
 94c:	1c050100 			@ <UNDEFINED> instruction: 1c050100
 950:	5908054b 			@ <UNDEFINED> instruction: 5908054b
 954:	054b1005 			@ <UNDEFINED> instruction: 054b1005
 958:	05054009 			@ <UNDEFINED> instruction: 05054009
 95c:	201d052e 			@ <UNDEFINED> instruction: 201d052e
 960:	052e0905 			@ <UNDEFINED> instruction: 052e0905
 964:	0f052e17 			@ <UNDEFINED> instruction: 0f052e17
 968:	2e05052f 			@ <UNDEFINED> instruction: 2e05052f
 96c:	05231205 			@ <UNDEFINED> instruction: 05231205
 970:	05052e06 			@ <UNDEFINED> instruction: 05052e06
 974:	01040200 			@ <UNDEFINED> instruction: 01040200
 978:	00310558 			@ <UNDEFINED> instruction: 00310558
 97c:	20010402 			@ <UNDEFINED> instruction: 20010402
 980:	05400905 			@ <UNDEFINED> instruction: 05400905
 984:	06054912 			@ <UNDEFINED> instruction: 06054912
 988:	5909052e 			@ <UNDEFINED> instruction: 5909052e
 98c:	052d3105 			@ <UNDEFINED> instruction: 052d3105
 990:	15052421 			@ <UNDEFINED> instruction: 15052421
 994:	000e052e 			@ <UNDEFINED> instruction: 000e052e
 998:	58010402 			@ <UNDEFINED> instruction: 58010402
 99c:	052f0905 			@ <UNDEFINED> instruction: 052f0905
 9a0:	08054b0c 			@ <UNDEFINED> instruction: 08054b0c
 9a4:	2f0d052e 			@ <UNDEFINED> instruction: 2f0d052e
 9a8:	054d1205 			@ <UNDEFINED> instruction: 054d1205
 9ac:	31052e06 			@ <UNDEFINED> instruction: 31052e06
 9b0:	01040200 			@ <UNDEFINED> instruction: 01040200
 9b4:	31210558 			@ <UNDEFINED> instruction: 31210558
 9b8:	052e1505 			@ <UNDEFINED> instruction: 052e1505
 9bc:	0402000e 			@ <UNDEFINED> instruction: 0402000e
 9c0:	09055801 			@ <UNDEFINED> instruction: 09055801
 9c4:	4b0c052f 			@ <UNDEFINED> instruction: 4b0c052f
 9c8:	052e0805 			@ <UNDEFINED> instruction: 052e0805
 9cc:	2f052f0c 			@ <UNDEFINED> instruction: 2f052f0c
 9d0:	01040200 			@ <UNDEFINED> instruction: 01040200
 9d4:	300d052d 			@ <UNDEFINED> instruction: 300d052d
 9d8:	054c0c05 			@ <UNDEFINED> instruction: 054c0c05
 9dc:	0c052e08 			@ <UNDEFINED> instruction: 0c052e08
 9e0:	002f052f 			@ <UNDEFINED> instruction: 002f052f
 9e4:	2d010402 			@ <UNDEFINED> instruction: 2d010402
 9e8:	05300d05 			@ <UNDEFINED> instruction: 05300d05
 9ec:	06054c12 			@ <UNDEFINED> instruction: 06054c12
 9f0:	0031052e 			@ <UNDEFINED> instruction: 0031052e
 9f4:	58010402 			@ <UNDEFINED> instruction: 58010402
 9f8:	05310e05 			@ <UNDEFINED> instruction: 05310e05
 9fc:	0805310c 			@ <UNDEFINED> instruction: 0805310c
 a00:	2f0d052e 			@ <UNDEFINED> instruction: 2f0d052e
 a04:	054e0c05 			@ <UNDEFINED> instruction: 054e0c05
 a08:	0d052e08 			@ <UNDEFINED> instruction: 0d052e08
 a0c:	5913052f 			@ <UNDEFINED> instruction: 5913052f
 a10:	052e0f05 			@ <UNDEFINED> instruction: 052e0f05
 a14:	0c052f0d 			@ <UNDEFINED> instruction: 0c052f0d
 a18:	2e08054e 			@ <UNDEFINED> instruction: 2e08054e
 a1c:	02002905 			@ <UNDEFINED> instruction: 02002905
 a20:	052e0104 			@ <UNDEFINED> instruction: 052e0104
 a24:	04020023 			@ <UNDEFINED> instruction: 04020023
 a28:	0d052e01 			@ <UNDEFINED> instruction: 0d052e01
 a2c:	4c0c052f 			@ <UNDEFINED> instruction: 4c0c052f
 a30:	052e0805 			@ <UNDEFINED> instruction: 052e0805
 a34:	04020029 			@ <UNDEFINED> instruction: 04020029
 a38:	23052e01 	movwcs	r2, #24065	@ 0x5e01
 a3c:	01040200 			@ <UNDEFINED> instruction: 01040200
 a40:	2f0d052e 			@ <UNDEFINED> instruction: 2f0d052e
 a44:	054d1205 			@ <UNDEFINED> instruction: 054d1205
 a48:	31052e06 			@ <UNDEFINED> instruction: 31052e06
 a4c:	01040200 			@ <UNDEFINED> instruction: 01040200
 a50:	31120558 			@ <UNDEFINED> instruction: 31120558
 a54:	052e0605 			@ <UNDEFINED> instruction: 052e0605
 a58:	04020005 			@ <UNDEFINED> instruction: 04020005
 a5c:	31055801 			@ <UNDEFINED> instruction: 31055801
 a60:	01040200 			@ <UNDEFINED> instruction: 01040200
 a64:	3e0c0520 			@ <UNDEFINED> instruction: 3e0c0520
 a68:	02210105 			@ <UNDEFINED> instruction: 02210105
 a6c:	01010004 			@ <UNDEFINED> instruction: 01010004
 a70:	05000105 			@ <UNDEFINED> instruction: 05000105
 a74:	00076802 			@ <UNDEFINED> instruction: 00076802
 a78:	01a80308 			@ <UNDEFINED> instruction: 01a80308
 a7c:	671c0501 			@ <UNDEFINED> instruction: 671c0501
 a80:	05590805 			@ <UNDEFINED> instruction: 05590805
 a84:	29054b10 			@ <UNDEFINED> instruction: 29054b10
 a88:	2e1d053f 			@ <UNDEFINED> instruction: 2e1d053f
 a8c:	05592905 			@ <UNDEFINED> instruction: 05592905
 a90:	0e052e1d 			@ <UNDEFINED> instruction: 0e052e1d
 a94:	2f0b055b 			@ <UNDEFINED> instruction: 2f0b055b
 a98:	05210c05 			@ <UNDEFINED> instruction: 05210c05
 a9c:	0e056714 			@ <UNDEFINED> instruction: 0e056714
 aa0:	2e12053a 			@ <UNDEFINED> instruction: 2e12053a
 aa4:	052e0c05 			@ <UNDEFINED> instruction: 052e0c05
 aa8:	0905341a 			@ <UNDEFINED> instruction: 0905341a
 aac:	2f0c0520 			@ <UNDEFINED> instruction: 2f0c0520
 ab0:	02210105 			@ <UNDEFINED> instruction: 02210105
 ab4:	01010006 			@ <UNDEFINED> instruction: 01010006
 ab8:	05000105 			@ <UNDEFINED> instruction: 05000105
 abc:	00000002 			@ <UNDEFINED> instruction: 00000002
 ac0:	01c30300 			@ <UNDEFINED> instruction: 01c30300
 ac4:	67080501 			@ <UNDEFINED> instruction: 67080501
 ac8:	053d1005 			@ <UNDEFINED> instruction: 053d1005
 acc:	05054013 			@ <UNDEFINED> instruction: 05054013
 ad0:	212c052e 			@ <UNDEFINED> instruction: 212c052e
 ad4:	053c1205 			@ <UNDEFINED> instruction: 053c1205
 ad8:	1405750c 			@ <UNDEFINED> instruction: 1405750c
 adc:	0025054b 			@ <UNDEFINED> instruction: 0025054b
 ae0:	39020402 			@ <UNDEFINED> instruction: 39020402
 ae4:	02001d05 			@ <UNDEFINED> instruction: 02001d05
 ae8:	053c0104 			@ <UNDEFINED> instruction: 053c0104
 aec:	0105500c 			@ <UNDEFINED> instruction: 0105500c
 af0:	00040221 			@ <UNDEFINED> instruction: 00040221
 af4:	01050101 			@ <UNDEFINED> instruction: 01050101
 af8:	00020500 			@ <UNDEFINED> instruction: 00020500
 afc:	03000000 	movweq	r0, #0
 b00:	050101db 			@ <UNDEFINED> instruction: 050101db
 b04:	10055908 			@ <UNDEFINED> instruction: 10055908
 b08:	3f1c053d 			@ <UNDEFINED> instruction: 3f1c053d
 b0c:	05590805 			@ <UNDEFINED> instruction: 05590805
 b10:	29054b10 			@ <UNDEFINED> instruction: 29054b10
 b14:	2e1d053f 			@ <UNDEFINED> instruction: 2e1d053f
 b18:	05592905 			@ <UNDEFINED> instruction: 05592905
 b1c:	0e052e1d 			@ <UNDEFINED> instruction: 0e052e1d
 b20:	2f0b055b 			@ <UNDEFINED> instruction: 2f0b055b
 b24:	05210c05 			@ <UNDEFINED> instruction: 05210c05
 b28:	0e056714 			@ <UNDEFINED> instruction: 0e056714
 b2c:	2e12053a 			@ <UNDEFINED> instruction: 2e12053a
 b30:	052e0c05 			@ <UNDEFINED> instruction: 052e0c05
 b34:	1705350e 			@ <UNDEFINED> instruction: 1705350e
 b38:	2e0d053d 			@ <UNDEFINED> instruction: 2e0d053d
 b3c:	05200b05 			@ <UNDEFINED> instruction: 05200b05
 b40:	08053115 			@ <UNDEFINED> instruction: 08053115
 b44:	2f10053c 			@ <UNDEFINED> instruction: 2f10053c
 b48:	053e1505 			@ <UNDEFINED> instruction: 053e1505
 b4c:	10053c08 			@ <UNDEFINED> instruction: 10053c08
 b50:	3f0c052f 			@ <UNDEFINED> instruction: 3f0c052f
 b54:	02210105 			@ <UNDEFINED> instruction: 02210105
 b58:	01010006 			@ <UNDEFINED> instruction: 01010006
 b5c:	05000105 			@ <UNDEFINED> instruction: 05000105
 b60:	00000002 			@ <UNDEFINED> instruction: 00000002
 b64:	02850300 			@ <UNDEFINED> instruction: 02850300
 b68:	67080501 			@ <UNDEFINED> instruction: 67080501
 b6c:	053d1005 			@ <UNDEFINED> instruction: 053d1005
 b70:	05054013 			@ <UNDEFINED> instruction: 05054013
 b74:	2112052e 			@ <UNDEFINED> instruction: 2112052e
 b78:	05910c05 			@ <UNDEFINED> instruction: 05910c05
 b7c:	25054b14 			@ <UNDEFINED> instruction: 25054b14
 b80:	02040200 			@ <UNDEFINED> instruction: 02040200
 b84:	001d0539 			@ <UNDEFINED> instruction: 001d0539
 b88:	3c010402 			@ <UNDEFINED> instruction: 3c010402
 b8c:	05500c05 			@ <UNDEFINED> instruction: 05500c05
 b90:	04022101 			@ <UNDEFINED> instruction: 04022101
 b94:	05010100 			@ <UNDEFINED> instruction: 05010100
 b98:	02050001 			@ <UNDEFINED> instruction: 02050001
 b9c:	080007e0 			@ <UNDEFINED> instruction: 080007e0
 ba0:	01029b03 			@ <UNDEFINED> instruction: 01029b03
 ba4:	05590805 			@ <UNDEFINED> instruction: 05590805
 ba8:	12053d10 			@ <UNDEFINED> instruction: 12053d10
 bac:	830c0541 	movwhi	r0, #50497	@ 0xc541
 bb0:	054b1405 			@ <UNDEFINED> instruction: 054b1405
 bb4:	05373e0c 			@ <UNDEFINED> instruction: 05373e0c
 bb8:	0c052e11 			@ <UNDEFINED> instruction: 0c052e11
 bbc:	21010535 			@ <UNDEFINED> instruction: 21010535
 bc0:	01000402 			@ <UNDEFINED> instruction: 01000402
 bc4:	00010501 			@ <UNDEFINED> instruction: 00010501
 bc8:	00000205 			@ <UNDEFINED> instruction: 00000205
 bcc:	b2030000 			@ <UNDEFINED> instruction: b2030000
 bd0:	1c050102 			@ <UNDEFINED> instruction: 1c050102
 bd4:	5908054b 			@ <UNDEFINED> instruction: 5908054b
 bd8:	054b1005 			@ <UNDEFINED> instruction: 054b1005
 bdc:	06054012 			@ <UNDEFINED> instruction: 06054012
 be0:	0005052e 			@ <UNDEFINED> instruction: 0005052e
 be4:	58010402 			@ <UNDEFINED> instruction: 58010402
 be8:	02003105 			@ <UNDEFINED> instruction: 02003105
 bec:	05200104 			@ <UNDEFINED> instruction: 05200104
 bf0:	06055c12 			@ <UNDEFINED> instruction: 06055c12
 bf4:	0031052e 			@ <UNDEFINED> instruction: 0031052e
 bf8:	58010402 			@ <UNDEFINED> instruction: 58010402
 bfc:	05311205 			@ <UNDEFINED> instruction: 05311205
 c00:	31052e06 			@ <UNDEFINED> instruction: 31052e06
 c04:	01040200 			@ <UNDEFINED> instruction: 01040200
 c08:	2f120558 			@ <UNDEFINED> instruction: 2f120558
 c0c:	052e0605 			@ <UNDEFINED> instruction: 052e0605
 c10:	04020031 			@ <UNDEFINED> instruction: 04020031
 c14:	09055801 			@ <UNDEFINED> instruction: 09055801
 c18:	2e050531 			@ <UNDEFINED> instruction: 2e050531
 c1c:	05201e05 			@ <UNDEFINED> instruction: 05201e05
 c20:	09052e1a 			@ <UNDEFINED> instruction: 09052e1a
 c24:	2e170520 			@ <UNDEFINED> instruction: 2e170520
 c28:	05300c05 			@ <UNDEFINED> instruction: 05300c05
 c2c:	04022101 			@ <UNDEFINED> instruction: 04022101
 c30:	5d010100 			@ <UNDEFINED> instruction: 5d010100
 c34:	03000001 	movweq	r0, #1
 c38:	0000bd00 			@ <UNDEFINED> instruction: 0000bd00
 c3c:	fb010200 	blx	41446 <_Min_Stack_Size+0x40c46>
 c40:	01000d0e 			@ <UNDEFINED> instruction: 01000d0e
 c44:	00010101 			@ <UNDEFINED> instruction: 00010101
 c48:	00010000 			@ <UNDEFINED> instruction: 00010000
 c4c:	74730100 			@ <UNDEFINED> instruction: 74730100
 c50:	75747261 			@ <UNDEFINED> instruction: 75747261
 c54:	3a430070 			@ <UNDEFINED> instruction: 3a430070
 c58:	6f72502f 			@ <UNDEFINED> instruction: 6f72502f
 c5c:	6d617267 			@ <UNDEFINED> instruction: 6d617267
 c60:	6c694620 			@ <UNDEFINED> instruction: 6c694620
 c64:	28207365 			@ <UNDEFINED> instruction: 28207365
 c68:	29363878 			@ <UNDEFINED> instruction: 29363878
 c6c:	6d72412f 			@ <UNDEFINED> instruction: 6d72412f
 c70:	554e4720 			@ <UNDEFINED> instruction: 554e4720
 c74:	6f6f5420 			@ <UNDEFINED> instruction: 6f6f5420
 c78:	6168636c 			@ <UNDEFINED> instruction: 6168636c
 c7c:	61206e69 			@ <UNDEFINED> instruction: 61206e69
 c80:	6e2d6d72 			@ <UNDEFINED> instruction: 6e2d6d72
 c84:	2d656e6f 			@ <UNDEFINED> instruction: 2d656e6f
 c88:	69626165 			@ <UNDEFINED> instruction: 69626165
 c8c:	2e34312f 			@ <UNDEFINED> instruction: 2e34312f
 c90:	65722033 			@ <UNDEFINED> instruction: 65722033
 c94:	6c2f316c 			@ <UNDEFINED> instruction: 6c2f316c
 c98:	672f6269 			@ <UNDEFINED> instruction: 672f6269
 c9c:	612f6363 			@ <UNDEFINED> instruction: 612f6363
 ca0:	6e2d6d72 			@ <UNDEFINED> instruction: 6e2d6d72
 ca4:	2d656e6f 			@ <UNDEFINED> instruction: 2d656e6f
 ca8:	69626165 			@ <UNDEFINED> instruction: 69626165
 cac:	2e34312f 			@ <UNDEFINED> instruction: 2e34312f
 cb0:	2f312e33 			@ <UNDEFINED> instruction: 2f312e33
 cb4:	6c636e69 			@ <UNDEFINED> instruction: 6c636e69
 cb8:	00656475 			@ <UNDEFINED> instruction: 00656475
 cbc:	61747300 			@ <UNDEFINED> instruction: 61747300
 cc0:	70757472 			@ <UNDEFINED> instruction: 70757472
 cc4:	3434665f 			@ <UNDEFINED> instruction: 3434665f
 cc8:	2e657236 			@ <UNDEFINED> instruction: 2e657236
 ccc:	00010063 			@ <UNDEFINED> instruction: 00010063
 cd0:	64747300 			@ <UNDEFINED> instruction: 64747300
 cd4:	2d746e69 			@ <UNDEFINED> instruction: 2d746e69
 cd8:	2e636367 			@ <UNDEFINED> instruction: 2e636367
 cdc:	00020068 			@ <UNDEFINED> instruction: 00020068
 ce0:	64747300 			@ <UNDEFINED> instruction: 64747300
 ce4:	2e746e69 			@ <UNDEFINED> instruction: 2e746e69
 ce8:	00020068 			@ <UNDEFINED> instruction: 00020068
 cec:	64747300 			@ <UNDEFINED> instruction: 64747300
 cf0:	2e666564 			@ <UNDEFINED> instruction: 2e666564
 cf4:	00020068 			@ <UNDEFINED> instruction: 00020068
 cf8:	01050000 			@ <UNDEFINED> instruction: 01050000
 cfc:	2c020500 			@ <UNDEFINED> instruction: 2c020500
 d00:	03080008 	movweq	r0, #32776	@ 0x8008
 d04:	310103aa 	smlatbcc	r1, sl, r3, r0
 d08:	01000502 			@ <UNDEFINED> instruction: 01000502
 d0c:	00010501 			@ <UNDEFINED> instruction: 00010501
 d10:	083c0205 			@ <UNDEFINED> instruction: 083c0205
 d14:	bb030800 			@ <UNDEFINED> instruction: bb030800
 d18:	1a050103 			@ <UNDEFINED> instruction: 1a050103
 d1c:	053c0b03 			@ <UNDEFINED> instruction: 053c0b03
 d20:	0e05202e 			@ <UNDEFINED> instruction: 0e05202e
 d24:	052f2f20 			@ <UNDEFINED> instruction: 052f2f20
 d28:	05053013 			@ <UNDEFINED> instruction: 05053013
 d2c:	2116052e 			@ <UNDEFINED> instruction: 2116052e
 d30:	053c0d05 			@ <UNDEFINED> instruction: 053c0d05
 d34:	11053c16 			@ <UNDEFINED> instruction: 11053c16
 d38:	002b0520 			@ <UNDEFINED> instruction: 002b0520
 d3c:	1f030402 			@ <UNDEFINED> instruction: 1f030402
 d40:	02001d05 			@ <UNDEFINED> instruction: 02001d05
 d44:	053c0104 			@ <UNDEFINED> instruction: 053c0104
 d48:	4a0a0319 			@ <UNDEFINED> instruction: 4a0a0319
 d4c:	05202c05 			@ <UNDEFINED> instruction: 05202c05
 d50:	052f200e 			@ <UNDEFINED> instruction: 052f200e
 d54:	05053013 			@ <UNDEFINED> instruction: 05053013
 d58:	210c052e 			@ <UNDEFINED> instruction: 210c052e
 d5c:	053c1005 			@ <UNDEFINED> instruction: 053c1005
 d60:	0402002a 			@ <UNDEFINED> instruction: 0402002a
 d64:	1d052d03 			@ <UNDEFINED> instruction: 1d052d03
 d68:	01040200 			@ <UNDEFINED> instruction: 01040200
 d6c:	0305053c 	movweq	r0, #21820	@ 0x553c
 d70:	0b054a0a 			@ <UNDEFINED> instruction: 0b054a0a
 d74:	052e0903 			@ <UNDEFINED> instruction: 052e0903
 d78:	0c023105 			@ <UNDEFINED> instruction: 0c023105
 d7c:	05010100 			@ <UNDEFINED> instruction: 05010100
 d80:	02050001 			@ <UNDEFINED> instruction: 02050001
 d84:	080008c0 			@ <UNDEFINED> instruction: 080008c0
 d88:	0103f803 			@ <UNDEFINED> instruction: 0103f803
 d8c:	02330505 			@ <UNDEFINED> instruction: 02330505
 d90:	01010002 			@ <UNDEFINED> instruction: 01010002

Disassembly of section .debug_str:

00000000 <.debug_str>:
{
       0:	52415355 			@ <UNDEFINED> instruction: 52415355
       4:	52425f54 			@ <UNDEFINED> instruction: 52425f54
    GPIO_Status_t status = gpio_validate_config(cfg);
       8:	49445f52 			@ <UNDEFINED> instruction: 49445f52
       c:	414d5f56 			@ <UNDEFINED> instruction: 414d5f56
      10:	5349544e 	movtpl	r5, #37966	@ 0x944e
    if (status != GPIO_OK) {
      14:	535f4153 			@ <UNDEFINED> instruction: 535f4153
      18:	54464948 			@ <UNDEFINED> instruction: 54464948
        return status;
      1c:	00553420 			@ <UNDEFINED> instruction: 00553420
    volatile uint32_t *moder   =
      20:	45445f5f 			@ <UNDEFINED> instruction: 45445f5f
      24:	414d4943 			@ <UNDEFINED> instruction: 414d4943
        (volatile uint32_t *)((uintptr_t)cfg->port_base + GPIO_OTYPER_OFFSET);
      28:	49445f4c 			@ <UNDEFINED> instruction: 49445f4c
    volatile uint32_t *otyper  =
      2c:	205f5f47 			@ <UNDEFINED> instruction: 205f5f47
        (volatile uint32_t *)((uintptr_t)cfg->port_base + GPIO_OSPEEDR_OFFSET);
      30:	55003731 			@ <UNDEFINED> instruction: 55003731
    volatile uint32_t *ospeedr =
      34:	5f545241 			@ <UNDEFINED> instruction: 5f545241
        (volatile uint32_t *)((uintptr_t)cfg->port_base + GPIO_PUPDR_OFFSET);
      38:	44524f57 			@ <UNDEFINED> instruction: 44524f57
    volatile uint32_t *pupdr   =
      3c:	5f4e454c 			@ <UNDEFINED> instruction: 5f4e454c
    gpio_set_2bit_field(moder,   cfg->pin, GPIO_MODER_MASK,   GPIO_MODER_ANALOG);
      40:	54494239 			@ <UNDEFINED> instruction: 54494239
      44:	00553120 			@ <UNDEFINED> instruction: 00553120
      48:	48555f5f 			@ <UNDEFINED> instruction: 48555f5f
    gpio_set_2bit_field(ospeedr, cfg->pin, GPIO_OSPEEDR_MASK, GPIO_OSPEEDR_LOW);
      4c:	42465f41 			@ <UNDEFINED> instruction: 42465f41
      50:	5f5f5449 			@ <UNDEFINED> instruction: 5f5f5449
      54:	5f003820 			@ <UNDEFINED> instruction: 5f003820
      58:	544c465f 			@ <UNDEFINED> instruction: 544c465f
    gpio_set_2bit_field(pupdr,   cfg->pin, GPIO_PUPDR_MASK,   GPIO_PUPDR_NONE);
      5c:	445f3436 			@ <UNDEFINED> instruction: 445f3436
      60:	524f4e45 			@ <UNDEFINED> instruction: 524f4e45
      64:	494d5f4d 			@ <UNDEFINED> instruction: 494d5f4d
    *otyper &= ~(1UL << cfg->pin);
      68:	205f5f4e 			@ <UNDEFINED> instruction: 205f5f4e
      6c:	34392e34 			@ <UNDEFINED> instruction: 34392e34
      70:	36353630 			@ <UNDEFINED> instruction: 36353630
      74:	34383534 			@ <UNDEFINED> instruction: 34383534
      78:	36343231 			@ <UNDEFINED> instruction: 36343231
      7c:	2d653435 			@ <UNDEFINED> instruction: 2d653435
}
      80:	46343233 			@ <UNDEFINED> instruction: 46343233
      84:	5f003436 			@ <UNDEFINED> instruction: 5f003436
        return UART_ERR_OVERRUN;
      88:	5245565f 			@ <UNDEFINED> instruction: 5245565f
      8c:	4e4f4953 			@ <UNDEFINED> instruction: 4e4f4953
    if (sr_snapshot & USART_SR_FE) {
      90:	22205f5f 			@ <UNDEFINED> instruction: 22205f5f
      94:	332e3431 			@ <UNDEFINED> instruction: 332e3431
        return UART_ERR_FRAMING;
      98:	3220312e 			@ <UNDEFINED> instruction: 3220312e
      9c:	30353230 			@ <UNDEFINED> instruction: 30353230
}
      a0:	22333236 			@ <UNDEFINED> instruction: 22333236
      a4:	475f5f00 			@ <UNDEFINED> instruction: 475f5f00
      a8:	415f4343 			@ <UNDEFINED> instruction: 415f4343
      ac:	494d4f54 			@ <UNDEFINED> instruction: 494d4f54
      b0:	43575f43 			@ <UNDEFINED> instruction: 43575f43
      b4:	5f524148 			@ <UNDEFINED> instruction: 5f524148
      b8:	4f4c5f54 			@ <UNDEFINED> instruction: 4f4c5f54
      bc:	465f4b43 			@ <UNDEFINED> instruction: 465f4b43
      c0:	20454552 			@ <UNDEFINED> instruction: 20454552
      c4:	5f5f0032 			@ <UNDEFINED> instruction: 5f5f0032
      c8:	52414843 			@ <UNDEFINED> instruction: 52414843
      cc:	534e555f 	movtpl	r5, #58719	@ 0xe55f
      d0:	454e4749 			@ <UNDEFINED> instruction: 454e4749
      d4:	205f5f44 			@ <UNDEFINED> instruction: 205f5f44
      d8:	41550031 			@ <UNDEFINED> instruction: 41550031
      dc:	485f5452 			@ <UNDEFINED> instruction: 485f5452
      e0:	4c465f57 	mcrrmi	15, 5, r5, r6, cr7
      e4:	4e5f574f 			@ <UNDEFINED> instruction: 4e5f574f
      e8:	20454e4f 			@ <UNDEFINED> instruction: 20454e4f
      ec:	73005530 	movwvc	r5, #1328	@ 0x530
      f0:	5f706f74 			@ <UNDEFINED> instruction: 5f706f74
      f4:	73746962 			@ <UNDEFINED> instruction: 73746962
      f8:	465f5f00 			@ <UNDEFINED> instruction: 465f5f00
      fc:	3436544c 			@ <UNDEFINED> instruction: 3436544c
     100:	5341485f 	movtpl	r4, #6239	@ 0x185f
     104:	464e495f 			@ <UNDEFINED> instruction: 464e495f
     108:	54494e49 			@ <UNDEFINED> instruction: 54494e49
     10c:	205f5f59 			@ <UNDEFINED> instruction: 205f5f59
     110:	5f5f0031 			@ <UNDEFINED> instruction: 5f5f0031
     114:	43414c4c 	movtmi	r4, #7244	@ 0x1c4c
     118:	5f4d5543 			@ <UNDEFINED> instruction: 5f4d5543
     11c:	5f4e494d 			@ <UNDEFINED> instruction: 5f4e494d
     120:	2d28205f 			@ <UNDEFINED> instruction: 2d28205f
     124:	50315830 			@ <UNDEFINED> instruction: 50315830
     128:	4c4c3133 	mcrrmi	1, 3, r3, ip, cr3
     12c:	58302d4b 			@ <UNDEFINED> instruction: 58302d4b
     130:	31335031 			@ <UNDEFINED> instruction: 31335031
     134:	294b4c4c 			@ <UNDEFINED> instruction: 294b4c4c
     138:	475f5f00 			@ <UNDEFINED> instruction: 475f5f00
     13c:	445f4343 			@ <UNDEFINED> instruction: 445f4343
     140:	52545345 			@ <UNDEFINED> instruction: 52545345
     144:	49544355 			@ <UNDEFINED> instruction: 49544355
     148:	535f4556 			@ <UNDEFINED> instruction: 535f4556
     14c:	20455a49 			@ <UNDEFINED> instruction: 20455a49
     150:	5f003436 			@ <UNDEFINED> instruction: 5f003436
     154:	43414c5f 	movtmi	r4, #7263	@ 0x1c5f
     158:	5f4d5543 			@ <UNDEFINED> instruction: 5f4d5543
     15c:	49535045 			@ <UNDEFINED> instruction: 49535045
     160:	5f4e4f4c 			@ <UNDEFINED> instruction: 5f4e4f4c
     164:	7830205f 			@ <UNDEFINED> instruction: 7830205f
     168:	332d5031 			@ <UNDEFINED> instruction: 332d5031
     16c:	004b4c31 			@ <UNDEFINED> instruction: 004b4c31
     170:	54505f5f 			@ <UNDEFINED> instruction: 54505f5f
     174:	46494452 			@ <UNDEFINED> instruction: 46494452
     178:	414d5f46 			@ <UNDEFINED> instruction: 414d5f46
     17c:	205f5f58 			@ <UNDEFINED> instruction: 205f5f58
     180:	66377830 			@ <UNDEFINED> instruction: 66377830
     184:	66666666 			@ <UNDEFINED> instruction: 66666666
     188:	5f006666 			@ <UNDEFINED> instruction: 5f006666
     18c:	4d52415f 			@ <UNDEFINED> instruction: 4d52415f
     190:	4145465f 			@ <UNDEFINED> instruction: 4145465f
     194:	45525554 			@ <UNDEFINED> instruction: 45525554
     198:	414d465f 			@ <UNDEFINED> instruction: 414d465f
     19c:	5f003120 			@ <UNDEFINED> instruction: 5f003120
     1a0:	4341535f 	movtmi	r5, #4959	@ 0x135f
     1a4:	5f4d5543 			@ <UNDEFINED> instruction: 5f4d5543
     1a8:	5f4e494d 			@ <UNDEFINED> instruction: 5f4e494d
     1ac:	2d28205f 			@ <UNDEFINED> instruction: 2d28205f
     1b0:	50315830 			@ <UNDEFINED> instruction: 50315830
     1b4:	2d4b4837 			@ <UNDEFINED> instruction: 2d4b4837
     1b8:	50315830 			@ <UNDEFINED> instruction: 50315830
     1bc:	294b4837 			@ <UNDEFINED> instruction: 294b4837
     1c0:	49504700 			@ <UNDEFINED> instruction: 49504700
     1c4:	49505f4f 			@ <UNDEFINED> instruction: 49505f4f
     1c8:	414d5f4e 			@ <UNDEFINED> instruction: 414d5f4e
     1cc:	35312058 			@ <UNDEFINED> instruction: 35312058
     1d0:	5f5f0055 			@ <UNDEFINED> instruction: 5f5f0055
     1d4:	4d544e49 			@ <UNDEFINED> instruction: 4d544e49
     1d8:	4d5f5841 			@ <UNDEFINED> instruction: 4d5f5841
     1dc:	5f5f5841 			@ <UNDEFINED> instruction: 5f5f5841
     1e0:	37783020 			@ <UNDEFINED> instruction: 37783020
     1e4:	66666666 			@ <UNDEFINED> instruction: 66666666
     1e8:	66666666 			@ <UNDEFINED> instruction: 66666666
     1ec:	66666666 			@ <UNDEFINED> instruction: 66666666
     1f0:	4c666666 			@ <UNDEFINED> instruction: 4c666666
     1f4:	5f5f004c 			@ <UNDEFINED> instruction: 5f5f004c
     1f8:	495f5154 			@ <UNDEFINED> instruction: 495f5154
     1fc:	5f544942 			@ <UNDEFINED> instruction: 5f544942
     200:	0030205f 			@ <UNDEFINED> instruction: 0030205f
     204:	4c465f5f 	mcrrmi	15, 5, r5, r6, cr15
     208:	5f343654 			@ <UNDEFINED> instruction: 5f343654
     20c:	49434544 			@ <UNDEFINED> instruction: 49434544
     210:	5f4c414d 			@ <UNDEFINED> instruction: 5f4c414d
     214:	5f474944 			@ <UNDEFINED> instruction: 5f474944
     218:	3731205f 			@ <UNDEFINED> instruction: 3731205f
     21c:	4e495700 			@ <UNDEFINED> instruction: 4e495700
     220:	494d5f54 			@ <UNDEFINED> instruction: 494d5f54
     224:	5f5f204e 			@ <UNDEFINED> instruction: 5f5f204e
     228:	544e4957 			@ <UNDEFINED> instruction: 544e4957
     22c:	4e494d5f 			@ <UNDEFINED> instruction: 4e494d5f
     230:	5f005f5f 			@ <UNDEFINED> instruction: 5f005f5f
     234:	4f54415f 			@ <UNDEFINED> instruction: 4f54415f
     238:	5f43494d 			@ <UNDEFINED> instruction: 5f43494d
     23c:	534e4f43 	movtpl	r4, #61251	@ 0xef43
     240:	20454d55 			@ <UNDEFINED> instruction: 20454d55
     244:	5f5f0031 			@ <UNDEFINED> instruction: 5f5f0031
     248:	43414c55 	movtmi	r4, #7253	@ 0x1c55
     24c:	5f4d5543 			@ <UNDEFINED> instruction: 5f4d5543
     250:	54494246 			@ <UNDEFINED> instruction: 54494246
     254:	33205f5f 			@ <UNDEFINED> instruction: 33205f5f
     258:	5f5f0032 			@ <UNDEFINED> instruction: 5f5f0032
     25c:	41484357 			@ <UNDEFINED> instruction: 41484357
     260:	414d5f52 			@ <UNDEFINED> instruction: 414d5f52
     264:	205f5f58 			@ <UNDEFINED> instruction: 205f5f58
     268:	66667830 			@ <UNDEFINED> instruction: 66667830
     26c:	66666666 			@ <UNDEFINED> instruction: 66666666
     270:	00556666 			@ <UNDEFINED> instruction: 00556666
     274:	52415355 			@ <UNDEFINED> instruction: 52415355
     278:	52435f54 			@ <UNDEFINED> instruction: 52435f54
     27c:	58545f31 			@ <UNDEFINED> instruction: 58545f31
     280:	20454945 			@ <UNDEFINED> instruction: 20454945
     284:	4c553128 	mrrcmi	1, 2, r3, r5, cr8
     288:	203c3c20 			@ <UNDEFINED> instruction: 203c3c20
     28c:	55002937 			@ <UNDEFINED> instruction: 55002937
     290:	54524153 			@ <UNDEFINED> instruction: 54524153
     294:	3352435f 			@ <UNDEFINED> instruction: 3352435f
     298:	4549455f 			@ <UNDEFINED> instruction: 4549455f
     29c:	55312820 			@ <UNDEFINED> instruction: 55312820
     2a0:	3c3c204c 			@ <UNDEFINED> instruction: 3c3c204c
     2a4:	00293020 			@ <UNDEFINED> instruction: 00293020
     2a8:	49535f5f 			@ <UNDEFINED> instruction: 49535f5f
     2ac:	464f455a 			@ <UNDEFINED> instruction: 464f455a
     2b0:	544e495f 			@ <UNDEFINED> instruction: 544e495f
     2b4:	34205f5f 			@ <UNDEFINED> instruction: 34205f5f
     2b8:	544e4900 			@ <UNDEFINED> instruction: 544e4900
     2bc:	4d5f3436 			@ <UNDEFINED> instruction: 4d5f3436
     2c0:	5f205841 			@ <UNDEFINED> instruction: 5f205841
     2c4:	544e495f 			@ <UNDEFINED> instruction: 544e495f
     2c8:	4d5f3436 			@ <UNDEFINED> instruction: 4d5f3436
     2cc:	5f5f5841 			@ <UNDEFINED> instruction: 5f5f5841
     2d0:	544e4900 			@ <UNDEFINED> instruction: 544e4900
     2d4:	5f58414d 			@ <UNDEFINED> instruction: 5f58414d
     2d8:	004e494d 			@ <UNDEFINED> instruction: 004e494d
     2dc:	49535f5f 			@ <UNDEFINED> instruction: 49535f5f
     2e0:	464f455a 			@ <UNDEFINED> instruction: 464f455a
     2e4:	4e4f4c5f 			@ <UNDEFINED> instruction: 4e4f4c5f
     2e8:	4f4c5f47 			@ <UNDEFINED> instruction: 4f4c5f47
     2ec:	5f5f474e 			@ <UNDEFINED> instruction: 5f5f474e
     2f0:	47003820 			@ <UNDEFINED> instruction: 47003820
     2f4:	5f4f4950 			@ <UNDEFINED> instruction: 5f4f4950
     2f8:	44505550 			@ <UNDEFINED> instruction: 44505550
     2fc:	464f5f52 			@ <UNDEFINED> instruction: 464f5f52
     300:	54455346 			@ <UNDEFINED> instruction: 54455346
     304:	30783020 			@ <UNDEFINED> instruction: 30783020
     308:	004c5543 			@ <UNDEFINED> instruction: 004c5543
     30c:	42445f5f 			@ <UNDEFINED> instruction: 42445f5f
     310:	414d5f4c 			@ <UNDEFINED> instruction: 414d5f4c
     314:	30315f58 			@ <UNDEFINED> instruction: 30315f58
     318:	5058455f 			@ <UNDEFINED> instruction: 5058455f
     31c:	33205f5f 			@ <UNDEFINED> instruction: 33205f5f
     320:	5f003830 			@ <UNDEFINED> instruction: 5f003830
     324:	4152465f 			@ <UNDEFINED> instruction: 4152465f
     328:	4d5f5443 			@ <UNDEFINED> instruction: 4d5f5443
     32c:	5f5f4e49 			@ <UNDEFINED> instruction: 5f5f4e49
     330:	302d2820 			@ <UNDEFINED> instruction: 302d2820
     334:	2d52352e 			@ <UNDEFINED> instruction: 2d52352e
     338:	52352e30 			@ <UNDEFINED> instruction: 52352e30
     33c:	5f5f0029 			@ <UNDEFINED> instruction: 5f5f0029
     340:	414c4c55 			@ <UNDEFINED> instruction: 414c4c55
     344:	4d554343 			@ <UNDEFINED> instruction: 4d554343
     348:	58414d5f 			@ <UNDEFINED> instruction: 58414d5f
     34c:	30205f5f 			@ <UNDEFINED> instruction: 30205f5f
     350:	46464658 			@ <UNDEFINED> instruction: 46464658
     354:	46464646 			@ <UNDEFINED> instruction: 46464646
     358:	46464646 			@ <UNDEFINED> instruction: 46464646
     35c:	46464646 			@ <UNDEFINED> instruction: 46464646
     360:	332d5046 			@ <UNDEFINED> instruction: 332d5046
     364:	4c4c5532 	mcrrmi	5, 3, r5, ip, cr2
     368:	5f5f004b 			@ <UNDEFINED> instruction: 5f5f004b
     36c:	43415355 	movtmi	r5, #4949	@ 0x1355
     370:	5f4d5543 			@ <UNDEFINED> instruction: 5f4d5543
     374:	5f58414d 			@ <UNDEFINED> instruction: 5f58414d
     378:	5830205f 			@ <UNDEFINED> instruction: 5830205f
     37c:	46464646 			@ <UNDEFINED> instruction: 46464646
     380:	55382d50 			@ <UNDEFINED> instruction: 55382d50
     384:	5f004b48 			@ <UNDEFINED> instruction: 5f004b48
     388:	5246535f 			@ <UNDEFINED> instruction: 5246535f
     38c:	5f544341 			@ <UNDEFINED> instruction: 5f544341
     390:	54494246 			@ <UNDEFINED> instruction: 54494246
     394:	37205f5f 			@ <UNDEFINED> instruction: 37205f5f
     398:	495f5f00 			@ <UNDEFINED> instruction: 495f5f00
     39c:	414d544e 			@ <UNDEFINED> instruction: 414d544e
     3a0:	49575f58 			@ <UNDEFINED> instruction: 49575f58
     3a4:	5f485444 			@ <UNDEFINED> instruction: 5f485444
     3a8:	3436205f 			@ <UNDEFINED> instruction: 3436205f
     3ac:	415f5f00 			@ <UNDEFINED> instruction: 415f5f00
     3b0:	465f4d52 			@ <UNDEFINED> instruction: 465f4d52
     3b4:	55544145 			@ <UNDEFINED> instruction: 55544145
     3b8:	425f4552 			@ <UNDEFINED> instruction: 425f4552
     3bc:	445f4954 			@ <UNDEFINED> instruction: 445f4954
     3c0:	55414645 			@ <UNDEFINED> instruction: 55414645
     3c4:	5f00544c 			@ <UNDEFINED> instruction: 5f00544c
     3c8:	5f51535f 			@ <UNDEFINED> instruction: 5f51535f
     3cc:	54494249 			@ <UNDEFINED> instruction: 54494249
     3d0:	30205f5f 			@ <UNDEFINED> instruction: 30205f5f
     3d4:	4f5f5f00 			@ <UNDEFINED> instruction: 4f5f5f00
     3d8:	52454452 			@ <UNDEFINED> instruction: 52454452
     3dc:	5044505f 			@ <UNDEFINED> instruction: 5044505f
     3e0:	444e455f 			@ <UNDEFINED> instruction: 444e455f
     3e4:	5f4e4149 			@ <UNDEFINED> instruction: 5f4e4149
     3e8:	3433205f 			@ <UNDEFINED> instruction: 3433205f
     3ec:	5f003231 			@ <UNDEFINED> instruction: 5f003231
     3f0:	5a49535f 			@ <UNDEFINED> instruction: 5a49535f
     3f4:	59545f45 			@ <UNDEFINED> instruction: 59545f45
     3f8:	5f5f4550 			@ <UNDEFINED> instruction: 5f5f4550
     3fc:	736e7520 			@ <UNDEFINED> instruction: 736e7520
     400:	656e6769 			@ <UNDEFINED> instruction: 656e6769
     404:	6e692064 			@ <UNDEFINED> instruction: 6e692064
     408:	5f5f0074 			@ <UNDEFINED> instruction: 5f5f0074
     40c:	5f544c46 			@ <UNDEFINED> instruction: 5f544c46
     410:	5f534148 			@ <UNDEFINED> instruction: 5f534148
     414:	4f4e4544 			@ <UNDEFINED> instruction: 4f4e4544
     418:	5f5f4d52 			@ <UNDEFINED> instruction: 5f5f4d52
     41c:	5f003120 			@ <UNDEFINED> instruction: 5f003120
     420:	544e495f 			@ <UNDEFINED> instruction: 544e495f
     424:	59545f38 			@ <UNDEFINED> instruction: 59545f38
     428:	5f5f4550 			@ <UNDEFINED> instruction: 5f5f4550
     42c:	67697320 			@ <UNDEFINED> instruction: 67697320
     430:	2064656e 			@ <UNDEFINED> instruction: 2064656e
     434:	72616863 			@ <UNDEFINED> instruction: 72616863
     438:	465f5f00 			@ <UNDEFINED> instruction: 465f5f00
     43c:	3233544c 			@ <UNDEFINED> instruction: 3233544c
     440:	4e494d5f 			@ <UNDEFINED> instruction: 4e494d5f
     444:	31205f5f 			@ <UNDEFINED> instruction: 31205f5f
     448:	3537312e 			@ <UNDEFINED> instruction: 3537312e
     44c:	33343934 			@ <UNDEFINED> instruction: 33343934
     450:	32383035 			@ <UNDEFINED> instruction: 32383035
     454:	37383232 			@ <UNDEFINED> instruction: 37383232
     458:	332d6535 			@ <UNDEFINED> instruction: 332d6535
     45c:	32334638 			@ <UNDEFINED> instruction: 32334638
     460:	555f5f00 			@ <UNDEFINED> instruction: 555f5f00
     464:	43434153 	movtmi	r4, #12627	@ 0x3153
     468:	4d5f4d55 			@ <UNDEFINED> instruction: 4d5f4d55
     46c:	5f5f4e49 			@ <UNDEFINED> instruction: 5f5f4e49
     470:	302e3020 			@ <UNDEFINED> instruction: 302e3020
     474:	004b4855 			@ <UNDEFINED> instruction: 004b4855
     478:	4c465f5f 	mcrrmi	15, 5, r5, r6, cr15
     47c:	5f323354 			@ <UNDEFINED> instruction: 5f323354
     480:	49434544 			@ <UNDEFINED> instruction: 49434544
     484:	5f4c414d 			@ <UNDEFINED> instruction: 5f4c414d
     488:	5f474944 			@ <UNDEFINED> instruction: 5f474944
     48c:	0039205f 			@ <UNDEFINED> instruction: 0039205f
     490:	444c5f5f 			@ <UNDEFINED> instruction: 444c5f5f
     494:	4d5f4c42 			@ <UNDEFINED> instruction: 4d5f4c42
     498:	455f4e49 			@ <UNDEFINED> instruction: 455f4e49
     49c:	5f5f5058 			@ <UNDEFINED> instruction: 5f5f5058
     4a0:	312d2820 			@ <UNDEFINED> instruction: 312d2820
     4a4:	29313230 			@ <UNDEFINED> instruction: 29313230
     4a8:	4c5f5f00 	mrrcmi	15, 0, r5, pc, cr0	@ <UNPREDICTABLE>
     4ac:	5f4c4244 			@ <UNDEFINED> instruction: 5f4c4244
     4b0:	544e414d 			@ <UNDEFINED> instruction: 544e414d
     4b4:	4749445f 	smlsldmi	r4, r9, pc, r4	@ <UNPREDICTABLE>
     4b8:	35205f5f 			@ <UNDEFINED> instruction: 35205f5f
     4bc:	50470033 			@ <UNDEFINED> instruction: 50470033
     4c0:	4f5f4f49 			@ <UNDEFINED> instruction: 4f5f4f49
     4c4:	45455053 			@ <UNDEFINED> instruction: 45455053
     4c8:	4c5f5244 	mrrcmi	2, 4, r5, pc, cr4	@ <UNPREDICTABLE>
     4cc:	3020574f 			@ <UNDEFINED> instruction: 3020574f
     4d0:	55303078 			@ <UNDEFINED> instruction: 55303078
     4d4:	544e4900 			@ <UNDEFINED> instruction: 544e4900
     4d8:	4d5f3436 			@ <UNDEFINED> instruction: 4d5f3436
     4dc:	28204e49 			@ <UNDEFINED> instruction: 28204e49
     4e0:	544e492d 			@ <UNDEFINED> instruction: 544e492d
     4e4:	4d5f3436 			@ <UNDEFINED> instruction: 4d5f3436
     4e8:	2d205841 			@ <UNDEFINED> instruction: 2d205841
     4ec:	00293120 			@ <UNDEFINED> instruction: 00293120
     4f0:	49555f5f 			@ <UNDEFINED> instruction: 49555f5f
     4f4:	5f38544e 			@ <UNDEFINED> instruction: 5f38544e
     4f8:	29632843 			@ <UNDEFINED> instruction: 29632843
     4fc:	5f006320 			@ <UNDEFINED> instruction: 5f006320
     500:	544e495f 			@ <UNDEFINED> instruction: 544e495f
     504:	545f3631 			@ <UNDEFINED> instruction: 545f3631
     508:	5f455059 			@ <UNDEFINED> instruction: 5f455059
     50c:	6873205f 			@ <UNDEFINED> instruction: 6873205f
     510:	2074726f 			@ <UNDEFINED> instruction: 2074726f
     514:	00746e69 			@ <UNDEFINED> instruction: 00746e69
     518:	52415355 			@ <UNDEFINED> instruction: 52415355
     51c:	52435f54 			@ <UNDEFINED> instruction: 52435f54
     520:	4c435f32 	mcrrmi	15, 3, r5, r3, cr2
     524:	204e454b 			@ <UNDEFINED> instruction: 204e454b
     528:	4c553128 	mrrcmi	1, 2, r3, r5, cr8
     52c:	203c3c20 			@ <UNDEFINED> instruction: 203c3c20
     530:	00293131 			@ <UNDEFINED> instruction: 00293131
     534:	4c465f5f 	mcrrmi	15, 5, r5, r6, cr15
     538:	5f343654 			@ <UNDEFINED> instruction: 5f343654
     53c:	5f58414d 			@ <UNDEFINED> instruction: 5f58414d
     540:	2e31205f 			@ <UNDEFINED> instruction: 2e31205f
     544:	36373937 			@ <UNDEFINED> instruction: 36373937
     548:	33313339 			@ <UNDEFINED> instruction: 33313339
     54c:	32363834 			@ <UNDEFINED> instruction: 32363834
     550:	37353133 			@ <UNDEFINED> instruction: 37353133
     554:	30332b65 			@ <UNDEFINED> instruction: 30332b65
     558:	34364638 			@ <UNDEFINED> instruction: 34364638
     55c:	4e495500 			@ <UNDEFINED> instruction: 4e495500
     560:	41465f54 			@ <UNDEFINED> instruction: 41465f54
     564:	32335453 			@ <UNDEFINED> instruction: 32335453
     568:	58414d5f 			@ <UNDEFINED> instruction: 58414d5f
     56c:	544e4900 			@ <UNDEFINED> instruction: 544e4900
     570:	5341465f 	movtpl	r4, #5727	@ 0x165f
     574:	5f343654 			@ <UNDEFINED> instruction: 5f343654
     578:	2058414d 			@ <UNDEFINED> instruction: 2058414d
     57c:	4e495f5f 			@ <UNDEFINED> instruction: 4e495f5f
     580:	41465f54 			@ <UNDEFINED> instruction: 41465f54
     584:	34365453 			@ <UNDEFINED> instruction: 34365453
     588:	58414d5f 			@ <UNDEFINED> instruction: 58414d5f
     58c:	5f005f5f 			@ <UNDEFINED> instruction: 5f005f5f
     590:	4343475f 	movtmi	r4, #14175	@ 0x375f
     594:	5641485f 			@ <UNDEFINED> instruction: 5641485f
     598:	59535f45 			@ <UNDEFINED> instruction: 59535f45
     59c:	435f434e 			@ <UNDEFINED> instruction: 435f434e
     5a0:	41504d4f 			@ <UNDEFINED> instruction: 41504d4f
     5a4:	415f4552 			@ <UNDEFINED> instruction: 415f4552
     5a8:	535f444e 			@ <UNDEFINED> instruction: 535f444e
     5ac:	5f504157 			@ <UNDEFINED> instruction: 5f504157
     5b0:	00312031 			@ <UNDEFINED> instruction: 00312031
     5b4:	54535f5f 			@ <UNDEFINED> instruction: 54535f5f
     5b8:	485f4344 			@ <UNDEFINED> instruction: 485f4344
     5bc:	4554534f 			@ <UNDEFINED> instruction: 4554534f
     5c0:	205f5f44 			@ <UNDEFINED> instruction: 205f5f44
     5c4:	5f5f0030 			@ <UNDEFINED> instruction: 5f5f0030
     5c8:	464c4c55 			@ <UNDEFINED> instruction: 464c4c55
     5cc:	54434152 			@ <UNDEFINED> instruction: 54434152
     5d0:	4942465f 			@ <UNDEFINED> instruction: 4942465f
     5d4:	205f5f54 			@ <UNDEFINED> instruction: 205f5f54
     5d8:	5f003436 			@ <UNDEFINED> instruction: 5f003436
     5dc:	4749535f 	smlsldmi	r5, r9, pc, r3	@ <UNPREDICTABLE>
     5e0:	4f54415f 			@ <UNDEFINED> instruction: 4f54415f
     5e4:	5f43494d 			@ <UNDEFINED> instruction: 5f43494d
     5e8:	45505954 			@ <UNDEFINED> instruction: 45505954
     5ec:	69205f5f 			@ <UNDEFINED> instruction: 69205f5f
     5f0:	4700746e 			@ <UNDEFINED> instruction: 4700746e
     5f4:	5f4f4950 			@ <UNDEFINED> instruction: 5f4f4950
     5f8:	4550534f 			@ <UNDEFINED> instruction: 4550534f
     5fc:	5f524445 			@ <UNDEFINED> instruction: 5f524445
     600:	47494856 	smlsldmi	r4, r9, r6, r8
     604:	78302048 			@ <UNDEFINED> instruction: 78302048
     608:	00553330 			@ <UNDEFINED> instruction: 00553330
     60c:	4f495047 			@ <UNDEFINED> instruction: 4f495047
     610:	3446415f 			@ <UNDEFINED> instruction: 3446415f
     614:	30783020 			@ <UNDEFINED> instruction: 30783020
     618:	5f005534 			@ <UNDEFINED> instruction: 5f005534
     61c:	544e495f 			@ <UNDEFINED> instruction: 544e495f
     620:	5341465f 	movtpl	r4, #5727	@ 0x165f
     624:	5f343654 			@ <UNDEFINED> instruction: 5f343654
     628:	45505954 			@ <UNDEFINED> instruction: 45505954
     62c:	6c205f5f 			@ <UNDEFINED> instruction: 6c205f5f
     630:	20676e6f 			@ <UNDEFINED> instruction: 20676e6f
     634:	676e6f6c 			@ <UNDEFINED> instruction: 676e6f6c
     638:	746e6920 			@ <UNDEFINED> instruction: 746e6920
     63c:	475f5f00 			@ <UNDEFINED> instruction: 475f5f00
     640:	415f5858 			@ <UNDEFINED> instruction: 415f5858
     644:	565f4942 			@ <UNDEFINED> instruction: 565f4942
     648:	49535245 			@ <UNDEFINED> instruction: 49535245
     64c:	31204e4f 			@ <UNDEFINED> instruction: 31204e4f
     650:	00393130 			@ <UNDEFINED> instruction: 00393130
     654:	49535f5f 			@ <UNDEFINED> instruction: 49535f5f
     658:	545f455a 			@ <UNDEFINED> instruction: 545f455a
     65c:	00205f5f 			@ <UNDEFINED> instruction: 00205f5f
     660:	7079746f 			@ <UNDEFINED> instruction: 7079746f
     664:	41550065 			@ <UNDEFINED> instruction: 41550065
     668:	495f5452 			@ <UNDEFINED> instruction: 495f5452
     66c:	0074696e 			@ <UNDEFINED> instruction: 0074696e
     670:	4c465f5f 	mcrrmi	15, 5, r5, r6, cr15
     674:	5f323354 			@ <UNDEFINED> instruction: 5f323354
     678:	5f58414d 			@ <UNDEFINED> instruction: 5f58414d
     67c:	455f3031 			@ <UNDEFINED> instruction: 455f3031
     680:	5f5f5058 			@ <UNDEFINED> instruction: 5f5f5058
     684:	00383320 			@ <UNDEFINED> instruction: 00383320
     688:	4f495047 			@ <UNDEFINED> instruction: 4f495047
     68c:	46415f41 			@ <UNDEFINED> instruction: 46415f41
     690:	52204852 			@ <UNDEFINED> instruction: 52204852
     694:	32334745 			@ <UNDEFINED> instruction: 32334745
     698:	49504728 			@ <UNDEFINED> instruction: 49504728
     69c:	425f414f 			@ <UNDEFINED> instruction: 425f414f
     6a0:	2c455341 	mcrrcs	3, 4, r5, r5, cr1
     6a4:	49504720 			@ <UNDEFINED> instruction: 49504720
     6a8:	46415f4f 			@ <UNDEFINED> instruction: 46415f4f
     6ac:	4f5f4852 			@ <UNDEFINED> instruction: 4f5f4852
     6b0:	45534646 			@ <UNDEFINED> instruction: 45534646
     6b4:	53002954 	movwpl	r2, #2388	@ 0x954
     6b8:	32334d54 			@ <UNDEFINED> instruction: 32334d54
     6bc:	58583446 			@ <UNDEFINED> instruction: 58583446
     6c0:	4343525f 	movtmi	r5, #12895	@ 0x325f
     6c4:	0020485f 			@ <UNDEFINED> instruction: 0020485f
     6c8:	53555f5f 			@ <UNDEFINED> instruction: 53555f5f
     6cc:	43415246 	movtmi	r5, #4678	@ 0x1246
     6d0:	414d5f54 			@ <UNDEFINED> instruction: 414d5f54
     6d4:	205f5f58 			@ <UNDEFINED> instruction: 205f5f58
     6d8:	46465830 			@ <UNDEFINED> instruction: 46465830
     6dc:	55382d50 			@ <UNDEFINED> instruction: 55382d50
     6e0:	47005248 			@ <UNDEFINED> instruction: 47005248
     6e4:	5f4f4950 			@ <UNDEFINED> instruction: 5f4f4950
     6e8:	20304641 			@ <UNDEFINED> instruction: 20304641
     6ec:	30307830 			@ <UNDEFINED> instruction: 30307830
     6f0:	5f5f0055 			@ <UNDEFINED> instruction: 5f5f0055
     6f4:	465f5046 			@ <UNDEFINED> instruction: 465f5046
     6f8:	5f545341 			@ <UNDEFINED> instruction: 5f545341
     6fc:	46414d46 			@ <UNDEFINED> instruction: 46414d46
     700:	31203233 			@ <UNDEFINED> instruction: 31203233
     704:	555f5f00 			@ <UNDEFINED> instruction: 555f5f00
     708:	50544e49 			@ <UNDEFINED> instruction: 50544e49
     70c:	4d5f5254 			@ <UNDEFINED> instruction: 4d5f5254
     710:	5f5f5841 			@ <UNDEFINED> instruction: 5f5f5841
     714:	66783020 			@ <UNDEFINED> instruction: 66783020
     718:	66666666 			@ <UNDEFINED> instruction: 66666666
     71c:	55666666 			@ <UNDEFINED> instruction: 55666666
     720:	6e5f5f00 			@ <UNDEFINED> instruction: 6e5f5f00
     724:	5f646565 			@ <UNDEFINED> instruction: 5f646565
     728:	61686377 			@ <UNDEFINED> instruction: 61686377
     72c:	00745f72 			@ <UNDEFINED> instruction: 00745f72
     730:	4c465f5f 	mcrrmi	15, 5, r5, r6, cr15
     734:	5f323354 			@ <UNDEFINED> instruction: 5f323354
     738:	5f4e494d 			@ <UNDEFINED> instruction: 5f4e494d
     73c:	5f505845 			@ <UNDEFINED> instruction: 5f505845
     740:	2d28205f 			@ <UNDEFINED> instruction: 2d28205f
     744:	29353231 			@ <UNDEFINED> instruction: 29353231
     748:	43435200 	movtmi	r5, #12800	@ 0x3200
     74c:	4248415f 			@ <UNDEFINED> instruction: 4248415f
     750:	524e4531 			@ <UNDEFINED> instruction: 524e4531
     754:	4950475f 			@ <UNDEFINED> instruction: 4950475f
     758:	4e45454f 			@ <UNDEFINED> instruction: 4e45454f
     75c:	55312820 			@ <UNDEFINED> instruction: 55312820
     760:	3c3c204c 			@ <UNDEFINED> instruction: 3c3c204c
     764:	00293420 			@ <UNDEFINED> instruction: 00293420
     768:	52415355 			@ <UNDEFINED> instruction: 52415355
     76c:	52435f54 			@ <UNDEFINED> instruction: 52435f54
     770:	42535f31 			@ <UNDEFINED> instruction: 42535f31
     774:	3128204b 			@ <UNDEFINED> instruction: 3128204b
     778:	3c204c55 			@ <UNDEFINED> instruction: 3c204c55
     77c:	2930203c 			@ <UNDEFINED> instruction: 2930203c
     780:	49504700 			@ <UNDEFINED> instruction: 49504700
     784:	4f4d5f4f 			@ <UNDEFINED> instruction: 4f4d5f4f
     788:	5f524544 			@ <UNDEFINED> instruction: 5f524544
     78c:	5346464f 	movtpl	r4, #26191	@ 0x664f
     790:	30205445 			@ <UNDEFINED> instruction: 30205445
     794:	55303078 			@ <UNDEFINED> instruction: 55303078
     798:	4142004c 			@ <UNDEFINED> instruction: 4142004c
     79c:	525f4455 			@ <UNDEFINED> instruction: 525f4455
     7a0:	20455441 			@ <UNDEFINED> instruction: 20455441
     7a4:	32353131 			@ <UNDEFINED> instruction: 32353131
     7a8:	4c553030 	mrrcmi	0, 3, r3, r5, cr0
     7ac:	4e495500 			@ <UNDEFINED> instruction: 4e495500
     7b0:	5f323354 			@ <UNDEFINED> instruction: 5f323354
     7b4:	2058414d 			@ <UNDEFINED> instruction: 2058414d
     7b8:	49555f5f 			@ <UNDEFINED> instruction: 49555f5f
     7bc:	3233544e 			@ <UNDEFINED> instruction: 3233544e
     7c0:	58414d5f 			@ <UNDEFINED> instruction: 58414d5f
     7c4:	5f005f5f 			@ <UNDEFINED> instruction: 5f005f5f
     7c8:	5f445342 			@ <UNDEFINED> instruction: 5f445342
     7cc:	44525450 			@ <UNDEFINED> instruction: 44525450
     7d0:	5f464649 			@ <UNDEFINED> instruction: 5f464649
     7d4:	00205f54 			@ <UNDEFINED> instruction: 00205f54
     7d8:	43575f5f 			@ <UNDEFINED> instruction: 43575f5f
     7dc:	5f524148 			@ <UNDEFINED> instruction: 5f524148
     7e0:	5f002054 			@ <UNDEFINED> instruction: 5f002054
     7e4:	464c555f 			@ <UNDEFINED> instruction: 464c555f
     7e8:	54434152 			@ <UNDEFINED> instruction: 54434152
     7ec:	4942465f 			@ <UNDEFINED> instruction: 4942465f
     7f0:	205f5f54 			@ <UNDEFINED> instruction: 205f5f54
     7f4:	5f003233 			@ <UNDEFINED> instruction: 5f003233
     7f8:	544c465f 			@ <UNDEFINED> instruction: 544c465f
     7fc:	4d5f3436 			@ <UNDEFINED> instruction: 4d5f3436
     800:	315f4e49 			@ <UNDEFINED> instruction: 315f4e49
     804:	58455f30 			@ <UNDEFINED> instruction: 58455f30
     808:	205f5f50 			@ <UNDEFINED> instruction: 205f5f50
     80c:	30332d28 			@ <UNDEFINED> instruction: 30332d28
     810:	5f002937 			@ <UNDEFINED> instruction: 5f002937
     814:	7a69735f 			@ <UNDEFINED> instruction: 7a69735f
     818:	20745f65 			@ <UNDEFINED> instruction: 20745f65
     81c:	495f5f00 			@ <UNDEFINED> instruction: 495f5f00
     820:	465f544e 			@ <UNDEFINED> instruction: 465f544e
     824:	36545341 			@ <UNDEFINED> instruction: 36545341
     828:	49575f34 			@ <UNDEFINED> instruction: 49575f34
     82c:	5f485444 			@ <UNDEFINED> instruction: 5f485444
     830:	3436205f 			@ <UNDEFINED> instruction: 3436205f
     834:	41535500 			@ <UNDEFINED> instruction: 41535500
     838:	435f5452 			@ <UNDEFINED> instruction: 435f5452
     83c:	555f3152 			@ <UNDEFINED> instruction: 555f3152
     840:	31282045 			@ <UNDEFINED> instruction: 31282045
     844:	3c204c55 			@ <UNDEFINED> instruction: 3c204c55
     848:	3331203c 			@ <UNDEFINED> instruction: 3331203c
     84c:	4e490029 			@ <UNDEFINED> instruction: 4e490029
     850:	454c5f54 			@ <UNDEFINED> instruction: 454c5f54
     854:	36545341 			@ <UNDEFINED> instruction: 36545341
     858:	414d5f34 			@ <UNDEFINED> instruction: 414d5f34
     85c:	5f5f2058 			@ <UNDEFINED> instruction: 5f5f2058
     860:	5f544e49 			@ <UNDEFINED> instruction: 5f544e49
     864:	5341454c 	movtpl	r4, #5452	@ 0x154c
     868:	5f343654 			@ <UNDEFINED> instruction: 5f343654
     86c:	5f58414d 			@ <UNDEFINED> instruction: 5f58414d
     870:	4352005f 			@ <UNDEFINED> instruction: 4352005f
     874:	46435f43 			@ <UNDEFINED> instruction: 46435f43
     878:	535f5247 			@ <UNDEFINED> instruction: 535f5247
     87c:	485f5357 			@ <UNDEFINED> instruction: 485f5357
     880:	28204953 			@ <UNDEFINED> instruction: 28204953
     884:	55307830 			@ <UNDEFINED> instruction: 55307830
     888:	3c3c204c 			@ <UNDEFINED> instruction: 3c3c204c
     88c:	00293220 			@ <UNDEFINED> instruction: 00293220
     890:	52415355 			@ <UNDEFINED> instruction: 52415355
     894:	445f3654 			@ <UNDEFINED> instruction: 445f3654
     898:	45522052 			@ <UNDEFINED> instruction: 45522052
     89c:	28323347 			@ <UNDEFINED> instruction: 28323347
     8a0:	52415355 			@ <UNDEFINED> instruction: 52415355
     8a4:	425f3654 			@ <UNDEFINED> instruction: 425f3654
     8a8:	2c455341 	mcrrcs	3, 4, r5, r5, cr1
     8ac:	41535520 			@ <UNDEFINED> instruction: 41535520
     8b0:	445f5452 			@ <UNDEFINED> instruction: 445f5452
     8b4:	464f5f52 			@ <UNDEFINED> instruction: 464f5f52
     8b8:	54455346 			@ <UNDEFINED> instruction: 54455346
     8bc:	5f5f0029 			@ <UNDEFINED> instruction: 5f5f0029
     8c0:	41524653 			@ <UNDEFINED> instruction: 41524653
     8c4:	455f5443 			@ <UNDEFINED> instruction: 455f5443
     8c8:	4c495350 	mcrrmi	3, 5, r5, r9, cr0
     8cc:	5f5f4e4f 			@ <UNDEFINED> instruction: 5f5f4e4f
     8d0:	31783020 			@ <UNDEFINED> instruction: 31783020
     8d4:	48372d50 			@ <UNDEFINED> instruction: 48372d50
     8d8:	41550052 			@ <UNDEFINED> instruction: 41550052
     8dc:	455f5452 			@ <UNDEFINED> instruction: 455f5452
     8e0:	495f5252 			@ <UNDEFINED> instruction: 495f5252
     8e4:	4c41564e 	mcrrmi	6, 4, r5, r1, cr14
     8e8:	575f4449 			@ <UNDEFINED> instruction: 575f4449
     8ec:	0044524f 			@ <UNDEFINED> instruction: 0044524f
     8f0:	52415355 			@ <UNDEFINED> instruction: 52415355
     8f4:	52425f54 			@ <UNDEFINED> instruction: 52425f54
     8f8:	41565f52 			@ <UNDEFINED> instruction: 41565f52
     8fc:	2845554c 			@ <UNDEFINED> instruction: 2845554c
     900:	2c6b6366 			@ <UNDEFINED> instruction: 2c6b6366
     904:	64756162 			@ <UNDEFINED> instruction: 64756162
     908:	28282029 			@ <UNDEFINED> instruction: 28282029
     90c:	746e6975 			@ <UNDEFINED> instruction: 746e6975
     910:	745f3233 			@ <UNDEFINED> instruction: 745f3233
     914:	66282829 			@ <UNDEFINED> instruction: 66282829
     918:	20296b63 			@ <UNDEFINED> instruction: 20296b63
     91c:	6228202f 			@ <UNDEFINED> instruction: 6228202f
     920:	29647561 			@ <UNDEFINED> instruction: 29647561
     924:	5f002929 			@ <UNDEFINED> instruction: 5f002929
     928:	49535f54 			@ <UNDEFINED> instruction: 49535f54
     92c:	0020455a 			@ <UNDEFINED> instruction: 0020455a
     930:	4e495f5f 			@ <UNDEFINED> instruction: 4e495f5f
     934:	5f323354 			@ <UNDEFINED> instruction: 5f323354
     938:	29632843 			@ <UNDEFINED> instruction: 29632843
     93c:	23206320 			@ <UNDEFINED> instruction: 23206320
     940:	004c2023 			@ <UNDEFINED> instruction: 004c2023
     944:	544e4955 			@ <UNDEFINED> instruction: 544e4955
     948:	435f3233 			@ <UNDEFINED> instruction: 435f3233
     94c:	20296328 			@ <UNDEFINED> instruction: 20296328
     950:	49555f5f 			@ <UNDEFINED> instruction: 49555f5f
     954:	3233544e 			@ <UNDEFINED> instruction: 3233544e
     958:	6328435f 			@ <UNDEFINED> instruction: 6328435f
     95c:	5f5f0029 			@ <UNDEFINED> instruction: 5f5f0029
     960:	4544524f 			@ <UNDEFINED> instruction: 4544524f
     964:	49425f52 			@ <UNDEFINED> instruction: 49425f52
     968:	4e455f47 			@ <UNDEFINED> instruction: 4e455f47
     96c:	4e414944 			@ <UNDEFINED> instruction: 4e414944
     970:	34205f5f 			@ <UNDEFINED> instruction: 34205f5f
     974:	00313233 			@ <UNDEFINED> instruction: 00313233
     978:	455a4953 			@ <UNDEFINED> instruction: 455a4953
     97c:	58414d5f 			@ <UNDEFINED> instruction: 58414d5f
     980:	545f5f00 			@ <UNDEFINED> instruction: 545f5f00
     984:	424d5548 			@ <UNDEFINED> instruction: 424d5548
     988:	544e495f 			@ <UNDEFINED> instruction: 544e495f
     98c:	4f575245 			@ <UNDEFINED> instruction: 4f575245
     990:	5f5f4b52 			@ <UNDEFINED> instruction: 5f5f4b52
     994:	5f003120 			@ <UNDEFINED> instruction: 5f003120
     998:	5f51535f 			@ <UNDEFINED> instruction: 5f51535f
     99c:	54494246 			@ <UNDEFINED> instruction: 54494246
     9a0:	33205f5f 			@ <UNDEFINED> instruction: 33205f5f
     9a4:	4e490031 			@ <UNDEFINED> instruction: 4e490031
     9a8:	454c5f54 			@ <UNDEFINED> instruction: 454c5f54
     9ac:	33545341 			@ <UNDEFINED> instruction: 33545341
     9b0:	494d5f32 			@ <UNDEFINED> instruction: 494d5f32
     9b4:	2d28204e 			@ <UNDEFINED> instruction: 2d28204e
     9b8:	5f544e49 			@ <UNDEFINED> instruction: 5f544e49
     9bc:	5341454c 	movtpl	r4, #5452	@ 0x154c
     9c0:	5f323354 			@ <UNDEFINED> instruction: 5f323354
     9c4:	2058414d 			@ <UNDEFINED> instruction: 2058414d
     9c8:	2931202d 			@ <UNDEFINED> instruction: 2931202d
     9cc:	52415500 			@ <UNDEFINED> instruction: 52415500
     9d0:	57485f54 	smlsldpl	r5, r8, r4, pc	@ <UNPREDICTABLE>
     9d4:	4f4c465f 			@ <UNDEFINED> instruction: 4f4c465f
     9d8:	54525f57 			@ <UNDEFINED> instruction: 54525f57
     9dc:	54435f53 			@ <UNDEFINED> instruction: 54435f53
     9e0:	55332053 			@ <UNDEFINED> instruction: 55332053
     9e4:	41535500 			@ <UNDEFINED> instruction: 41535500
     9e8:	5f315452 			@ <UNDEFINED> instruction: 5f315452
     9ec:	20325243 			@ <UNDEFINED> instruction: 20325243
     9f0:	33474552 	movtcc	r4, #30034	@ 0x7552
     9f4:	53552832 			@ <UNDEFINED> instruction: 53552832
     9f8:	31545241 			@ <UNDEFINED> instruction: 31545241
     9fc:	5341425f 	movtpl	r4, #4703	@ 0x125f
     a00:	55202c45 			@ <UNDEFINED> instruction: 55202c45
     a04:	54524153 			@ <UNDEFINED> instruction: 54524153
     a08:	3252435f 			@ <UNDEFINED> instruction: 3252435f
     a0c:	46464f5f 			@ <UNDEFINED> instruction: 46464f5f
     a10:	29544553 			@ <UNDEFINED> instruction: 29544553
     a14:	41535500 			@ <UNDEFINED> instruction: 41535500
     a18:	435f5452 			@ <UNDEFINED> instruction: 435f5452
     a1c:	435f3352 			@ <UNDEFINED> instruction: 435f3352
     a20:	45495354 			@ <UNDEFINED> instruction: 45495354
     a24:	55312820 			@ <UNDEFINED> instruction: 55312820
     a28:	3c3c204c 			@ <UNDEFINED> instruction: 3c3c204c
     a2c:	29303120 			@ <UNDEFINED> instruction: 29303120
     a30:	41535500 			@ <UNDEFINED> instruction: 41535500
     a34:	435f5452 			@ <UNDEFINED> instruction: 435f5452
     a38:	535f3352 			@ <UNDEFINED> instruction: 535f3352
     a3c:	204e4543 			@ <UNDEFINED> instruction: 204e4543
     a40:	4c553128 	mrrcmi	1, 2, r3, r5, cr8
     a44:	203c3c20 			@ <UNDEFINED> instruction: 203c3c20
     a48:	5f002935 			@ <UNDEFINED> instruction: 5f002935
     a4c:	5148555f 			@ <UNDEFINED> instruction: 5148555f
     a50:	4942465f 			@ <UNDEFINED> instruction: 4942465f
     a54:	205f5f54 			@ <UNDEFINED> instruction: 205f5f54
     a58:	5f003631 			@ <UNDEFINED> instruction: 5f003631
     a5c:	544c465f 			@ <UNDEFINED> instruction: 544c465f
     a60:	4d5f3436 			@ <UNDEFINED> instruction: 4d5f3436
     a64:	455f4e49 			@ <UNDEFINED> instruction: 455f4e49
     a68:	5f5f5058 			@ <UNDEFINED> instruction: 5f5f5058
     a6c:	312d2820 			@ <UNDEFINED> instruction: 312d2820
     a70:	29313230 			@ <UNDEFINED> instruction: 29313230
     a74:	544e4900 			@ <UNDEFINED> instruction: 544e4900
     a78:	4d5f3233 			@ <UNDEFINED> instruction: 4d5f3233
     a7c:	28204e49 			@ <UNDEFINED> instruction: 28204e49
     a80:	544e492d 			@ <UNDEFINED> instruction: 544e492d
     a84:	4d5f3233 			@ <UNDEFINED> instruction: 4d5f3233
     a88:	2d205841 			@ <UNDEFINED> instruction: 2d205841
     a8c:	00293120 			@ <UNDEFINED> instruction: 00293120
     a90:	54505f5f 			@ <UNDEFINED> instruction: 54505f5f
     a94:	46494452 			@ <UNDEFINED> instruction: 46494452
     a98:	49575f46 			@ <UNDEFINED> instruction: 49575f46
     a9c:	5f485444 			@ <UNDEFINED> instruction: 5f485444
     aa0:	3233205f 			@ <UNDEFINED> instruction: 3233205f
     aa4:	544e4900 			@ <UNDEFINED> instruction: 544e4900
     aa8:	28435f38 			@ <UNDEFINED> instruction: 28435f38
     aac:	5f202963 			@ <UNDEFINED> instruction: 5f202963
     ab0:	544e495f 			@ <UNDEFINED> instruction: 544e495f
     ab4:	28435f38 			@ <UNDEFINED> instruction: 28435f38
     ab8:	5f002963 			@ <UNDEFINED> instruction: 5f002963
     abc:	4e49555f 			@ <UNDEFINED> instruction: 4e49555f
     ac0:	41465f54 			@ <UNDEFINED> instruction: 41465f54
     ac4:	5f385453 			@ <UNDEFINED> instruction: 5f385453
     ac8:	5f58414d 			@ <UNDEFINED> instruction: 5f58414d
     acc:	7830205f 			@ <UNDEFINED> instruction: 7830205f
     ad0:	66666666 			@ <UNDEFINED> instruction: 66666666
     ad4:	66666666 			@ <UNDEFINED> instruction: 66666666
     ad8:	49550055 			@ <UNDEFINED> instruction: 49550055
     adc:	3631544e 			@ <UNDEFINED> instruction: 3631544e
     ae0:	6328435f 			@ <UNDEFINED> instruction: 6328435f
     ae4:	5f5f2029 			@ <UNDEFINED> instruction: 5f5f2029
     ae8:	544e4955 			@ <UNDEFINED> instruction: 544e4955
     aec:	435f3631 			@ <UNDEFINED> instruction: 435f3631
     af0:	00296328 			@ <UNDEFINED> instruction: 00296328
     af4:	414c5f5f 			@ <UNDEFINED> instruction: 414c5f5f
     af8:	4d554343 			@ <UNDEFINED> instruction: 4d554343
     afc:	4942495f 			@ <UNDEFINED> instruction: 4942495f
     b00:	205f5f54 			@ <UNDEFINED> instruction: 205f5f54
     b04:	47003233 	smladxmi	r0, r3, r2, r3
     b08:	5f4f4950 			@ <UNDEFINED> instruction: 5f4f4950
     b0c:	45444f4d 			@ <UNDEFINED> instruction: 45444f4d
     b10:	46415f52 			@ <UNDEFINED> instruction: 46415f52
     b14:	30783020 			@ <UNDEFINED> instruction: 30783020
     b18:	5f005532 			@ <UNDEFINED> instruction: 5f005532
     b1c:	544e495f 			@ <UNDEFINED> instruction: 544e495f
     b20:	5341465f 	movtpl	r4, #5727	@ 0x165f
     b24:	5f363154 			@ <UNDEFINED> instruction: 5f363154
     b28:	54444957 			@ <UNDEFINED> instruction: 54444957
     b2c:	205f5f48 			@ <UNDEFINED> instruction: 205f5f48
     b30:	55003233 			@ <UNDEFINED> instruction: 55003233
     b34:	54524153 			@ <UNDEFINED> instruction: 54524153
     b38:	3252435f 			@ <UNDEFINED> instruction: 3252435f
     b3c:	4f54535f 			@ <UNDEFINED> instruction: 4f54535f
     b40:	5f305f50 			@ <UNDEFINED> instruction: 5f305f50
     b44:	30282035 			@ <UNDEFINED> instruction: 30282035
     b48:	4c553178 	mrrcmi	1, 7, r3, r5, cr8
     b4c:	203c3c20 			@ <UNDEFINED> instruction: 203c3c20
     b50:	00293231 			@ <UNDEFINED> instruction: 00293231
     b54:	46565f5f 	usaxmi	r5, r6, pc	@ <UNPREDICTABLE>
     b58:	50465f50 			@ <UNDEFINED> instruction: 50465f50
     b5c:	31205f5f 			@ <UNDEFINED> instruction: 31205f5f
     b60:	4c5f5f00 	mrrcmi	15, 0, r5, pc, cr0	@ <UNPREDICTABLE>
     b64:	4152464c 			@ <UNDEFINED> instruction: 4152464c
     b68:	4d5f5443 			@ <UNDEFINED> instruction: 4d5f5443
     b6c:	5f5f4e49 			@ <UNDEFINED> instruction: 5f5f4e49
     b70:	302d2820 			@ <UNDEFINED> instruction: 302d2820
     b74:	4c4c352e 	mcrrmi	5, 2, r3, ip, cr14
     b78:	2e302d52 			@ <UNDEFINED> instruction: 2e302d52
     b7c:	524c4c35 			@ <UNDEFINED> instruction: 524c4c35
     b80:	5f5f0029 			@ <UNDEFINED> instruction: 5f5f0029
     b84:	5f434347 			@ <UNDEFINED> instruction: 5f434347
     b88:	4d4f5441 			@ <UNDEFINED> instruction: 4d4f5441
     b8c:	505f4349 			@ <UNDEFINED> instruction: 505f4349
     b90:	544e494f 			@ <UNDEFINED> instruction: 544e494f
     b94:	4c5f5245 	mrrcmi	2, 4, r5, pc, cr5	@ <UNPREDICTABLE>
     b98:	5f4b434f 			@ <UNDEFINED> instruction: 5f4b434f
     b9c:	45455246 			@ <UNDEFINED> instruction: 45455246
     ba0:	5f003220 			@ <UNDEFINED> instruction: 5f003220
     ba4:	4e49555f 			@ <UNDEFINED> instruction: 4e49555f
     ba8:	41465f54 			@ <UNDEFINED> instruction: 41465f54
     bac:	36315453 			@ <UNDEFINED> instruction: 36315453
     bb0:	58414d5f 			@ <UNDEFINED> instruction: 58414d5f
     bb4:	30205f5f 			@ <UNDEFINED> instruction: 30205f5f
     bb8:	66666678 			@ <UNDEFINED> instruction: 66666678
     bbc:	66666666 			@ <UNDEFINED> instruction: 66666666
     bc0:	5f005566 			@ <UNDEFINED> instruction: 5f005566
     bc4:	4153555f 			@ <UNDEFINED> instruction: 4153555f
     bc8:	4d554343 			@ <UNDEFINED> instruction: 4d554343
     bcc:	4942495f 			@ <UNDEFINED> instruction: 4942495f
     bd0:	205f5f54 			@ <UNDEFINED> instruction: 205f5f54
     bd4:	5f5f0038 			@ <UNDEFINED> instruction: 5f5f0038
     bd8:	50544e49 			@ <UNDEFINED> instruction: 50544e49
     bdc:	4d5f5254 			@ <UNDEFINED> instruction: 4d5f5254
     be0:	5f5f5841 			@ <UNDEFINED> instruction: 5f5f5841
     be4:	37783020 			@ <UNDEFINED> instruction: 37783020
     be8:	66666666 			@ <UNDEFINED> instruction: 66666666
     bec:	00666666 			@ <UNDEFINED> instruction: 00666666
     bf0:	36544e49 			@ <UNDEFINED> instruction: 36544e49
     bf4:	28435f34 			@ <UNDEFINED> instruction: 28435f34
     bf8:	5f202963 			@ <UNDEFINED> instruction: 5f202963
     bfc:	544e495f 			@ <UNDEFINED> instruction: 544e495f
     c00:	435f3436 			@ <UNDEFINED> instruction: 435f3436
     c04:	00296328 			@ <UNDEFINED> instruction: 00296328
     c08:	52415355 			@ <UNDEFINED> instruction: 52415355
     c0c:	52435f54 			@ <UNDEFINED> instruction: 52435f54
     c10:	50435f32 			@ <UNDEFINED> instruction: 50435f32
     c14:	28204148 			@ <UNDEFINED> instruction: 28204148
     c18:	204c5531 			@ <UNDEFINED> instruction: 204c5531
     c1c:	39203c3c 			@ <UNDEFINED> instruction: 39203c3c
     c20:	5f5f0029 			@ <UNDEFINED> instruction: 5f5f0029
     c24:	5f4d5241 			@ <UNDEFINED> instruction: 5f4d5241
     c28:	54414546 			@ <UNDEFINED> instruction: 54414546
     c2c:	5f455255 			@ <UNDEFINED> instruction: 5f455255
     c30:	00495442 			@ <UNDEFINED> instruction: 00495442
     c34:	46555f5f 	usaxmi	r5, r5, pc	@ <UNPREDICTABLE>
     c38:	54434152 			@ <UNDEFINED> instruction: 54434152
     c3c:	4e494d5f 			@ <UNDEFINED> instruction: 4e494d5f
     c40:	30205f5f 			@ <UNDEFINED> instruction: 30205f5f
     c44:	5255302e 			@ <UNDEFINED> instruction: 5255302e
     c48:	43435200 	movtmi	r5, #12800	@ 0x3200
     c4c:	4250415f 			@ <UNDEFINED> instruction: 4250415f
     c50:	524e4531 			@ <UNDEFINED> instruction: 524e4531
     c54:	47455220 			@ <UNDEFINED> instruction: 47455220
     c58:	52283233 			@ <UNDEFINED> instruction: 52283233
     c5c:	425f4343 			@ <UNDEFINED> instruction: 425f4343
     c60:	2c455341 	mcrrcs	3, 4, r5, r5, cr1
     c64:	43435220 	movtmi	r5, #12832	@ 0x3220
     c68:	4250415f 			@ <UNDEFINED> instruction: 4250415f
     c6c:	524e4531 			@ <UNDEFINED> instruction: 524e4531
     c70:	46464f5f 			@ <UNDEFINED> instruction: 46464f5f
     c74:	29544553 			@ <UNDEFINED> instruction: 29544553
     c78:	4c5f5f00 	mrrcmi	15, 0, r5, pc, cr0	@ <UNPREDICTABLE>
     c7c:	5f4c4244 			@ <UNDEFINED> instruction: 5f4c4244
     c80:	5f534148 			@ <UNDEFINED> instruction: 5f534148
     c84:	45495551 			@ <UNDEFINED> instruction: 45495551
     c88:	414e5f54 			@ <UNDEFINED> instruction: 414e5f54
     c8c:	205f5f4e 			@ <UNDEFINED> instruction: 205f5f4e
     c90:	43570031 			@ <UNDEFINED> instruction: 43570031
     c94:	5f524148 			@ <UNDEFINED> instruction: 5f524148
     c98:	2058414d 			@ <UNDEFINED> instruction: 2058414d
     c9c:	43575f5f 			@ <UNDEFINED> instruction: 43575f5f
     ca0:	5f524148 			@ <UNDEFINED> instruction: 5f524148
     ca4:	5f58414d 			@ <UNDEFINED> instruction: 5f58414d
     ca8:	5f5f005f 			@ <UNDEFINED> instruction: 5f5f005f
     cac:	33544c46 			@ <UNDEFINED> instruction: 33544c46
     cb0:	485f5832 			@ <UNDEFINED> instruction: 485f5832
     cb4:	495f5341 			@ <UNDEFINED> instruction: 495f5341
     cb8:	4e49464e 			@ <UNDEFINED> instruction: 4e49464e
     cbc:	5f595449 			@ <UNDEFINED> instruction: 5f595449
     cc0:	0031205f 			@ <UNDEFINED> instruction: 0031205f
     cc4:	544e4955 			@ <UNDEFINED> instruction: 544e4955
     cc8:	5341465f 	movtpl	r4, #5727	@ 0x165f
     ccc:	5f363154 			@ <UNDEFINED> instruction: 5f363154
     cd0:	2058414d 			@ <UNDEFINED> instruction: 2058414d
     cd4:	49555f5f 			@ <UNDEFINED> instruction: 49555f5f
     cd8:	465f544e 			@ <UNDEFINED> instruction: 465f544e
     cdc:	31545341 			@ <UNDEFINED> instruction: 31545341
     ce0:	414d5f36 			@ <UNDEFINED> instruction: 414d5f36
     ce4:	005f5f58 			@ <UNDEFINED> instruction: 005f5f58
     ce8:	5359535f 			@ <UNDEFINED> instruction: 5359535f
     cec:	5a49535f 			@ <UNDEFINED> instruction: 5a49535f
     cf0:	5f545f45 			@ <UNDEFINED> instruction: 5f545f45
     cf4:	53002048 	movwpl	r2, #72	@ 0x48
     cf8:	49545359 			@ <UNDEFINED> instruction: 49545359
     cfc:	4c5f4b43 	mrrcmi	11, 4, r4, pc, cr3	@ <UNPREDICTABLE>
     d00:	5f44414f 			@ <UNDEFINED> instruction: 5f44414f
     d04:	4f4c4552 			@ <UNDEFINED> instruction: 4f4c4552
     d08:	4d5f4441 			@ <UNDEFINED> instruction: 4d5f4441
     d0c:	204b5341 			@ <UNDEFINED> instruction: 204b5341
     d10:	30307830 			@ <UNDEFINED> instruction: 30307830
     d14:	46464646 			@ <UNDEFINED> instruction: 46464646
     d18:	4c554646 	mrrcmi	6, 4, r4, r5, cr6
     d1c:	42454400 			@ <UNDEFINED> instruction: 42454400
     d20:	31204755 			@ <UNDEFINED> instruction: 31204755
     d24:	415f5f00 			@ <UNDEFINED> instruction: 415f5f00
     d28:	4d554343 			@ <UNDEFINED> instruction: 4d554343
     d2c:	4942465f 			@ <UNDEFINED> instruction: 4942465f
     d30:	205f5f54 			@ <UNDEFINED> instruction: 205f5f54
     d34:	53003531 	movwpl	r3, #1329	@ 0x531
     d38:	32334d54 			@ <UNDEFINED> instruction: 32334d54
     d3c:	58583446 			@ <UNDEFINED> instruction: 58583446
     d40:	5241555f 			@ <UNDEFINED> instruction: 5241555f
     d44:	20485f54 			@ <UNDEFINED> instruction: 20485f54
     d48:	4e495500 			@ <UNDEFINED> instruction: 4e495500
     d4c:	4d5f3854 			@ <UNDEFINED> instruction: 4d5f3854
     d50:	53005841 	movwpl	r5, #2113	@ 0x841
     d54:	5f455a49 			@ <UNDEFINED> instruction: 5f455a49
     d58:	2058414d 			@ <UNDEFINED> instruction: 2058414d
     d5c:	49535f5f 			@ <UNDEFINED> instruction: 49535f5f
     d60:	4d5f455a 			@ <UNDEFINED> instruction: 4d5f455a
     d64:	5f5f5841 			@ <UNDEFINED> instruction: 5f5f5841
     d68:	41535500 			@ <UNDEFINED> instruction: 41535500
     d6c:	435f5452 			@ <UNDEFINED> instruction: 435f5452
     d70:	495f3352 			@ <UNDEFINED> instruction: 495f3352
     d74:	204e4552 			@ <UNDEFINED> instruction: 204e4552
     d78:	4c553128 	mrrcmi	1, 2, r3, r5, cr8
     d7c:	203c3c20 			@ <UNDEFINED> instruction: 203c3c20
     d80:	5f002931 			@ <UNDEFINED> instruction: 5f002931
     d84:	544e495f 			@ <UNDEFINED> instruction: 544e495f
     d88:	5341465f 	movtpl	r4, #5727	@ 0x165f
     d8c:	5f343654 			@ <UNDEFINED> instruction: 5f343654
     d90:	5f58414d 			@ <UNDEFINED> instruction: 5f58414d
     d94:	7830205f 			@ <UNDEFINED> instruction: 7830205f
     d98:	66666637 			@ <UNDEFINED> instruction: 66666637
     d9c:	66666666 			@ <UNDEFINED> instruction: 66666666
     da0:	66666666 			@ <UNDEFINED> instruction: 66666666
     da4:	66666666 			@ <UNDEFINED> instruction: 66666666
     da8:	5f004c4c 			@ <UNDEFINED> instruction: 5f004c4c
     dac:	544c465f 			@ <UNDEFINED> instruction: 544c465f
     db0:	5f583233 			@ <UNDEFINED> instruction: 5f583233
     db4:	49434544 			@ <UNDEFINED> instruction: 49434544
     db8:	5f4c414d 			@ <UNDEFINED> instruction: 5f4c414d
     dbc:	5f474944 			@ <UNDEFINED> instruction: 5f474944
     dc0:	3731205f 			@ <UNDEFINED> instruction: 3731205f
     dc4:	445f5f00 			@ <UNDEFINED> instruction: 445f5f00
     dc8:	4d5f4c42 			@ <UNDEFINED> instruction: 4d5f4c42
     dcc:	5f5f4e49 			@ <UNDEFINED> instruction: 5f5f4e49
     dd0:	64282820 			@ <UNDEFINED> instruction: 64282820
     dd4:	6c62756f 			@ <UNDEFINED> instruction: 6c62756f
     dd8:	2e322965 			@ <UNDEFINED> instruction: 2e322965
     ddc:	30353232 			@ <UNDEFINED> instruction: 30353232
     de0:	35383337 			@ <UNDEFINED> instruction: 35383337
     de4:	37303538 			@ <UNDEFINED> instruction: 37303538
     de8:	34313032 			@ <UNDEFINED> instruction: 34313032
     dec:	30332d65 			@ <UNDEFINED> instruction: 30332d65
     df0:	00294c38 			@ <UNDEFINED> instruction: 00294c38
     df4:	4c465f5f 	mcrrmi	15, 5, r5, r6, cr15
     df8:	58323354 			@ <UNDEFINED> instruction: 58323354
     dfc:	5341485f 	movtpl	r4, #6239	@ 0x185f
     e00:	4955515f 			@ <UNDEFINED> instruction: 4955515f
     e04:	4e5f5445 			@ <UNDEFINED> instruction: 4e5f5445
     e08:	5f5f4e41 			@ <UNDEFINED> instruction: 5f5f4e41
     e0c:	5f003120 			@ <UNDEFINED> instruction: 5f003120
     e10:	544c465f 			@ <UNDEFINED> instruction: 544c465f
     e14:	5f583233 			@ <UNDEFINED> instruction: 5f583233
     e18:	49535045 			@ <UNDEFINED> instruction: 49535045
     e1c:	5f4e4f4c 			@ <UNDEFINED> instruction: 5f4e4f4c
     e20:	2e32205f 			@ <UNDEFINED> instruction: 2e32205f
     e24:	34303232 			@ <UNDEFINED> instruction: 34303232
     e28:	34303634 			@ <UNDEFINED> instruction: 34303634
     e2c:	30353239 			@ <UNDEFINED> instruction: 30353239
     e30:	31333133 			@ <UNDEFINED> instruction: 31333133
     e34:	36312d65 			@ <UNDEFINED> instruction: 36312d65
     e38:	78323346 			@ <UNDEFINED> instruction: 78323346
     e3c:	53595300 			@ <UNDEFINED> instruction: 53595300
     e40:	4b434954 			@ <UNDEFINED> instruction: 4b434954
     e44:	4c41435f 	mcrrmi	3, 5, r4, r1, cr15
     e48:	4f5f4249 			@ <UNDEFINED> instruction: 4f5f4249
     e4c:	45534646 			@ <UNDEFINED> instruction: 45534646
     e50:	78302054 			@ <UNDEFINED> instruction: 78302054
     e54:	4c554330 	mrrcmi	3, 3, r4, r5, cr0
     e58:	49504700 			@ <UNDEFINED> instruction: 49504700
     e5c:	425f414f 			@ <UNDEFINED> instruction: 425f414f
     e60:	20525253 			@ <UNDEFINED> instruction: 20525253
     e64:	33474552 	movtcc	r4, #30034	@ 0x7552
     e68:	50472832 			@ <UNDEFINED> instruction: 50472832
     e6c:	5f414f49 			@ <UNDEFINED> instruction: 5f414f49
     e70:	45534142 			@ <UNDEFINED> instruction: 45534142
     e74:	5047202c 			@ <UNDEFINED> instruction: 5047202c
     e78:	425f4f49 			@ <UNDEFINED> instruction: 425f4f49
     e7c:	5f525253 			@ <UNDEFINED> instruction: 5f525253
     e80:	5346464f 	movtpl	r4, #26191	@ 0x664f
     e84:	00295445 			@ <UNDEFINED> instruction: 00295445
     e88:	4e495f5f 			@ <UNDEFINED> instruction: 4e495f5f
     e8c:	41465f54 			@ <UNDEFINED> instruction: 41465f54
     e90:	5f385453 			@ <UNDEFINED> instruction: 5f385453
     e94:	45505954 			@ <UNDEFINED> instruction: 45505954
     e98:	69205f5f 			@ <UNDEFINED> instruction: 69205f5f
     e9c:	5200746e 			@ <UNDEFINED> instruction: 5200746e
     ea0:	415f4343 			@ <UNDEFINED> instruction: 415f4343
     ea4:	4c334248 			@ <UNDEFINED> instruction: 4c334248
     ea8:	524e4550 			@ <UNDEFINED> instruction: 524e4550
     eac:	46464f5f 			@ <UNDEFINED> instruction: 46464f5f
     eb0:	20544553 			@ <UNDEFINED> instruction: 20544553
     eb4:	38357830 			@ <UNDEFINED> instruction: 38357830
     eb8:	5f004c55 			@ <UNDEFINED> instruction: 5f004c55
     ebc:	4144555f 			@ <UNDEFINED> instruction: 4144555f
     ec0:	4942465f 			@ <UNDEFINED> instruction: 4942465f
     ec4:	205f5f54 			@ <UNDEFINED> instruction: 205f5f54
     ec8:	5f003233 			@ <UNDEFINED> instruction: 5f003233
     ecc:	7a69735f 			@ <UNDEFINED> instruction: 7a69735f
     ed0:	5f745f65 			@ <UNDEFINED> instruction: 5f745f65
     ed4:	5f00205f 			@ <UNDEFINED> instruction: 5f00205f
     ed8:	544c465f 			@ <UNDEFINED> instruction: 544c465f
     edc:	4d5f3436 			@ <UNDEFINED> instruction: 4d5f3436
     ee0:	315f5841 			@ <UNDEFINED> instruction: 315f5841
     ee4:	58455f30 			@ <UNDEFINED> instruction: 58455f30
     ee8:	205f5f50 			@ <UNDEFINED> instruction: 205f5f50
     eec:	00383033 			@ <UNDEFINED> instruction: 00383033
     ef0:	49555f5f 			@ <UNDEFINED> instruction: 49555f5f
     ef4:	414d544e 			@ <UNDEFINED> instruction: 414d544e
     ef8:	28435f58 			@ <UNDEFINED> instruction: 28435f58
     efc:	63202963 			@ <UNDEFINED> instruction: 63202963
     f00:	20232320 			@ <UNDEFINED> instruction: 20232320
     f04:	004c4c55 			@ <UNDEFINED> instruction: 004c4c55
     f08:	49535f5f 			@ <UNDEFINED> instruction: 49535f5f
     f0c:	464f455a 			@ <UNDEFINED> instruction: 464f455a
     f10:	494f505f 			@ <UNDEFINED> instruction: 494f505f
     f14:	5245544e 			@ <UNDEFINED> instruction: 5245544e
     f18:	34205f5f 			@ <UNDEFINED> instruction: 34205f5f
     f1c:	495f5f00 			@ <UNDEFINED> instruction: 495f5f00
     f20:	4c5f544e 	mrrcmi	4, 4, r5, pc, cr14	@ <UNPREDICTABLE>
     f24:	54534145 			@ <UNDEFINED> instruction: 54534145
     f28:	59545f38 			@ <UNDEFINED> instruction: 59545f38
     f2c:	5f5f4550 			@ <UNDEFINED> instruction: 5f5f4550
     f30:	67697320 			@ <UNDEFINED> instruction: 67697320
     f34:	2064656e 			@ <UNDEFINED> instruction: 2064656e
     f38:	72616863 			@ <UNDEFINED> instruction: 72616863
     f3c:	41535500 			@ <UNDEFINED> instruction: 41535500
     f40:	435f5452 			@ <UNDEFINED> instruction: 435f5452
     f44:	4c5f3252 	mrrcmi	2, 5, r3, pc, cr2	@ <UNPREDICTABLE>
     f48:	204c4442 			@ <UNDEFINED> instruction: 204c4442
     f4c:	4c553128 	mrrcmi	1, 2, r3, r5, cr8
     f50:	203c3c20 			@ <UNDEFINED> instruction: 203c3c20
     f54:	53002935 	movwpl	r2, #2357	@ 0x935
     f58:	49545359 			@ <UNDEFINED> instruction: 49545359
     f5c:	565f4b43 			@ <UNDEFINED> instruction: 565f4b43
     f60:	52204c41 			@ <UNDEFINED> instruction: 52204c41
     f64:	32334745 			@ <UNDEFINED> instruction: 32334745
     f68:	53595328 			@ <UNDEFINED> instruction: 53595328
     f6c:	4b434954 			@ <UNDEFINED> instruction: 4b434954
     f70:	5341425f 	movtpl	r4, #4703	@ 0x125f
     f74:	53202c45 			@ <UNDEFINED> instruction: 53202c45
     f78:	49545359 			@ <UNDEFINED> instruction: 49545359
     f7c:	565f4b43 			@ <UNDEFINED> instruction: 565f4b43
     f80:	4f5f4c41 			@ <UNDEFINED> instruction: 4f5f4c41
     f84:	45534646 			@ <UNDEFINED> instruction: 45534646
     f88:	5f002954 			@ <UNDEFINED> instruction: 5f002954
     f8c:	4343475f 	movtmi	r4, #14175	@ 0x375f
     f90:	4f54415f 			@ <UNDEFINED> instruction: 4f54415f
     f94:	5f43494d 			@ <UNDEFINED> instruction: 5f43494d
     f98:	4c4f4f42 	mcrrmi	15, 4, r4, pc, cr2
     f9c:	434f4c5f 	movtmi	r4, #64607	@ 0xfc5f
     fa0:	52465f4b 			@ <UNDEFINED> instruction: 52465f4b
     fa4:	32204545 			@ <UNDEFINED> instruction: 32204545
     fa8:	4e495500 			@ <UNDEFINED> instruction: 4e495500
     fac:	41465f54 			@ <UNDEFINED> instruction: 41465f54
     fb0:	34365453 			@ <UNDEFINED> instruction: 34365453
     fb4:	58414d5f 			@ <UNDEFINED> instruction: 58414d5f
     fb8:	49504700 			@ <UNDEFINED> instruction: 49504700
     fbc:	46415f4f 			@ <UNDEFINED> instruction: 46415f4f
     fc0:	78302031 			@ <UNDEFINED> instruction: 78302031
     fc4:	00553130 			@ <UNDEFINED> instruction: 00553130
     fc8:	52415f5f 			@ <UNDEFINED> instruction: 52415f5f
     fcc:	454e5f4d 			@ <UNDEFINED> instruction: 454e5f4d
     fd0:	5f5f4e4f 			@ <UNDEFINED> instruction: 5f5f4e4f
     fd4:	465f5f00 			@ <UNDEFINED> instruction: 465f5f00
     fd8:	3233544c 			@ <UNDEFINED> instruction: 3233544c
     fdc:	58414d5f 			@ <UNDEFINED> instruction: 58414d5f
     fe0:	5058455f 			@ <UNDEFINED> instruction: 5058455f
     fe4:	31205f5f 			@ <UNDEFINED> instruction: 31205f5f
     fe8:	55003832 			@ <UNDEFINED> instruction: 55003832
     fec:	5f544e49 			@ <UNDEFINED> instruction: 5f544e49
     ff0:	5341454c 	movtpl	r4, #5452	@ 0x154c
     ff4:	4d5f3854 			@ <UNDEFINED> instruction: 4d5f3854
     ff8:	5f205841 			@ <UNDEFINED> instruction: 5f205841
     ffc:	4e49555f 			@ <UNDEFINED> instruction: 4e49555f
    1000:	454c5f54 			@ <UNDEFINED> instruction: 454c5f54
    1004:	38545341 			@ <UNDEFINED> instruction: 38545341
    1008:	58414d5f 			@ <UNDEFINED> instruction: 58414d5f
    100c:	6d005f5f 			@ <UNDEFINED> instruction: 6d005f5f
    1010:	006e6961 			@ <UNDEFINED> instruction: 006e6961
    1014:	49555f5f 			@ <UNDEFINED> instruction: 49555f5f
    1018:	414d544e 			@ <UNDEFINED> instruction: 414d544e
    101c:	59545f58 			@ <UNDEFINED> instruction: 59545f58
    1020:	5f5f4550 			@ <UNDEFINED> instruction: 5f5f4550
    1024:	6e6f6c20 			@ <UNDEFINED> instruction: 6e6f6c20
    1028:	6f6c2067 			@ <UNDEFINED> instruction: 6f6c2067
    102c:	7520676e 			@ <UNDEFINED> instruction: 7520676e
    1030:	6769736e 			@ <UNDEFINED> instruction: 6769736e
    1034:	2064656e 			@ <UNDEFINED> instruction: 2064656e
    1038:	00746e69 			@ <UNDEFINED> instruction: 00746e69
    103c:	4c555f5f 	mrrcmi	15, 5, r5, r5, cr15	@ <UNPREDICTABLE>
    1040:	4152464c 			@ <UNDEFINED> instruction: 4152464c
    1044:	4d5f5443 			@ <UNDEFINED> instruction: 4d5f5443
    1048:	5f5f5841 			@ <UNDEFINED> instruction: 5f5f5841
    104c:	46583020 			@ <UNDEFINED> instruction: 46583020
    1050:	46464646 			@ <UNDEFINED> instruction: 46464646
    1054:	46464646 			@ <UNDEFINED> instruction: 46464646
    1058:	46464646 			@ <UNDEFINED> instruction: 46464646
    105c:	50464646 			@ <UNDEFINED> instruction: 50464646
    1060:	5534362d 			@ <UNDEFINED> instruction: 5534362d
    1064:	00524c4c 			@ <UNDEFINED> instruction: 00524c4c
    1068:	4f495047 			@ <UNDEFINED> instruction: 4f495047
    106c:	41425f43 			@ <UNDEFINED> instruction: 41425f43
    1070:	30204553 			@ <UNDEFINED> instruction: 30204553
    1074:	30303478 			@ <UNDEFINED> instruction: 30303478
    1078:	30383032 			@ <UNDEFINED> instruction: 30383032
    107c:	004c5530 			@ <UNDEFINED> instruction: 004c5530
    1080:	4e475f5f 			@ <UNDEFINED> instruction: 4e475f5f
    1084:	575f4355 			@ <UNDEFINED> instruction: 575f4355
    1088:	5f454449 			@ <UNDEFINED> instruction: 5f454449
    108c:	43455845 	movtmi	r5, #22597	@ 0x5845
    1090:	4f495455 			@ <UNDEFINED> instruction: 4f495455
    1094:	48435f4e 			@ <UNDEFINED> instruction: 48435f4e
    1098:	45535241 			@ <UNDEFINED> instruction: 45535241
    109c:	414e5f54 			@ <UNDEFINED> instruction: 414e5f54
    10a0:	2220454d 			@ <UNDEFINED> instruction: 2220454d
    10a4:	2d465455 			@ <UNDEFINED> instruction: 2d465455
    10a8:	454c3233 			@ <UNDEFINED> instruction: 454c3233
    10ac:	49550022 			@ <UNDEFINED> instruction: 49550022
    10b0:	465f544e 			@ <UNDEFINED> instruction: 465f544e
    10b4:	38545341 			@ <UNDEFINED> instruction: 38545341
    10b8:	58414d5f 			@ <UNDEFINED> instruction: 58414d5f
    10bc:	555f5f20 			@ <UNDEFINED> instruction: 555f5f20
    10c0:	5f544e49 			@ <UNDEFINED> instruction: 5f544e49
    10c4:	54534146 			@ <UNDEFINED> instruction: 54534146
    10c8:	414d5f38 			@ <UNDEFINED> instruction: 414d5f38
    10cc:	005f5f58 			@ <UNDEFINED> instruction: 005f5f58
    10d0:	695f5f5f 			@ <UNDEFINED> instruction: 695f5f5f
    10d4:	705f746e 			@ <UNDEFINED> instruction: 705f746e
    10d8:	69647274 			@ <UNDEFINED> instruction: 69647274
    10dc:	745f6666 			@ <UNDEFINED> instruction: 745f6666
    10e0:	0020685f 			@ <UNDEFINED> instruction: 0020685f
    10e4:	4c455f5f 	mcrrmi	15, 5, r5, r5, cr15
    10e8:	205f5f46 			@ <UNDEFINED> instruction: 205f5f46
    10ec:	49550031 			@ <UNDEFINED> instruction: 49550031
    10f0:	5f38544e 			@ <UNDEFINED> instruction: 5f38544e
    10f4:	2058414d 			@ <UNDEFINED> instruction: 2058414d
    10f8:	49555f5f 			@ <UNDEFINED> instruction: 49555f5f
    10fc:	5f38544e 			@ <UNDEFINED> instruction: 5f38544e
    1100:	5f58414d 			@ <UNDEFINED> instruction: 5f58414d
    1104:	5f5f005f 			@ <UNDEFINED> instruction: 5f5f005f
    1108:	52414843 			@ <UNDEFINED> instruction: 52414843
    110c:	545f3233 			@ <UNDEFINED> instruction: 545f3233
    1110:	5f455059 			@ <UNDEFINED> instruction: 5f455059
    1114:	6f6c205f 			@ <UNDEFINED> instruction: 6f6c205f
    1118:	7520676e 			@ <UNDEFINED> instruction: 7520676e
    111c:	6769736e 			@ <UNDEFINED> instruction: 6769736e
    1120:	2064656e 			@ <UNDEFINED> instruction: 2064656e
    1124:	00746e69 			@ <UNDEFINED> instruction: 00746e69
    1128:	5f474953 			@ <UNDEFINED> instruction: 5f474953
    112c:	4d4f5441 			@ <UNDEFINED> instruction: 4d4f5441
    1130:	4d5f4349 			@ <UNDEFINED> instruction: 4d5f4349
    1134:	5f004e49 			@ <UNDEFINED> instruction: 5f004e49
    1138:	4d52415f 			@ <UNDEFINED> instruction: 4d52415f
    113c:	4145465f 			@ <UNDEFINED> instruction: 4145465f
    1140:	45525554 			@ <UNDEFINED> instruction: 45525554
    1144:	3150465f 			@ <UNDEFINED> instruction: 3150465f
    1148:	45565f36 			@ <UNDEFINED> instruction: 45565f36
    114c:	524f5443 			@ <UNDEFINED> instruction: 524f5443
    1150:	4952415f 			@ <UNDEFINED> instruction: 4952415f
    1154:	454d4854 			@ <UNDEFINED> instruction: 454d4854
    1158:	00434954 			@ <UNDEFINED> instruction: 00434954
    115c:	42445f5f 			@ <UNDEFINED> instruction: 42445f5f
    1160:	53495f4c 	movtpl	r5, #40780	@ 0x9f4c
    1164:	4345495f 	movtmi	r4, #22879	@ 0x595f
    1168:	3530365f 			@ <UNDEFINED> instruction: 3530365f
    116c:	5f5f3935 			@ <UNDEFINED> instruction: 5f5f3935
    1170:	5f003120 			@ <UNDEFINED> instruction: 5f003120
    1174:	4e49555f 			@ <UNDEFINED> instruction: 4e49555f
    1178:	41465f54 			@ <UNDEFINED> instruction: 41465f54
    117c:	32335453 			@ <UNDEFINED> instruction: 32335453
    1180:	58414d5f 			@ <UNDEFINED> instruction: 58414d5f
    1184:	30205f5f 			@ <UNDEFINED> instruction: 30205f5f
    1188:	66666678 			@ <UNDEFINED> instruction: 66666678
    118c:	66666666 			@ <UNDEFINED> instruction: 66666666
    1190:	5f005566 			@ <UNDEFINED> instruction: 5f005566
    1194:	544c465f 			@ <UNDEFINED> instruction: 544c465f
    1198:	58414d5f 			@ <UNDEFINED> instruction: 58414d5f
    119c:	5058455f 			@ <UNDEFINED> instruction: 5058455f
    11a0:	31205f5f 			@ <UNDEFINED> instruction: 31205f5f
    11a4:	5f003832 			@ <UNDEFINED> instruction: 5f003832
    11a8:	5a49535f 			@ <UNDEFINED> instruction: 5a49535f
    11ac:	5f464f45 			@ <UNDEFINED> instruction: 5f464f45
    11b0:	474e4f4c 			@ <UNDEFINED> instruction: 474e4f4c
    11b4:	34205f5f 			@ <UNDEFINED> instruction: 34205f5f
    11b8:	41535500 			@ <UNDEFINED> instruction: 41535500
    11bc:	535f5452 			@ <UNDEFINED> instruction: 535f5452
    11c0:	45465f52 			@ <UNDEFINED> instruction: 45465f52
    11c4:	55312820 			@ <UNDEFINED> instruction: 55312820
    11c8:	3c3c204c 			@ <UNDEFINED> instruction: 3c3c204c
    11cc:	00293120 			@ <UNDEFINED> instruction: 00293120
    11d0:	5f434352 			@ <UNDEFINED> instruction: 5f434352
    11d4:	52474643 			@ <UNDEFINED> instruction: 52474643
    11d8:	5357535f 			@ <UNDEFINED> instruction: 5357535f
    11dc:	4c4c505f 	mcrrmi	0, 5, r5, ip, cr15
    11e0:	78302820 			@ <UNDEFINED> instruction: 78302820
    11e4:	204c5532 			@ <UNDEFINED> instruction: 204c5532
    11e8:	32203c3c 			@ <UNDEFINED> instruction: 32203c3c
    11ec:	5f5f0029 			@ <UNDEFINED> instruction: 5f5f0029
    11f0:	5f544c46 			@ <UNDEFINED> instruction: 5f544c46
    11f4:	5f4e494d 			@ <UNDEFINED> instruction: 5f4e494d
    11f8:	455f3031 			@ <UNDEFINED> instruction: 455f3031
    11fc:	5f5f5058 			@ <UNDEFINED> instruction: 5f5f5058
    1200:	332d2820 			@ <UNDEFINED> instruction: 332d2820
    1204:	5f002937 			@ <UNDEFINED> instruction: 5f002937
    1208:	5a49535f 			@ <UNDEFINED> instruction: 5a49535f
    120c:	5f464f45 			@ <UNDEFINED> instruction: 5f464f45
    1210:	42554f44 			@ <UNDEFINED> instruction: 42554f44
    1214:	5f5f454c 			@ <UNDEFINED> instruction: 5f5f454c
    1218:	5f003820 			@ <UNDEFINED> instruction: 5f003820
    121c:	544e495f 			@ <UNDEFINED> instruction: 544e495f
    1220:	41454c5f 			@ <UNDEFINED> instruction: 41454c5f
    1224:	32335453 			@ <UNDEFINED> instruction: 32335453
    1228:	4449575f 			@ <UNDEFINED> instruction: 4449575f
    122c:	5f5f4854 			@ <UNDEFINED> instruction: 5f5f4854
    1230:	00323320 			@ <UNDEFINED> instruction: 00323320
    1234:	4c465f5f 	mcrrmi	15, 5, r5, r6, cr15
    1238:	58323354 			@ <UNDEFINED> instruction: 58323354
    123c:	4e494d5f 			@ <UNDEFINED> instruction: 4e494d5f
    1240:	5058455f 			@ <UNDEFINED> instruction: 5058455f
    1244:	28205f5f 			@ <UNDEFINED> instruction: 28205f5f
    1248:	3230312d 			@ <UNDEFINED> instruction: 3230312d
    124c:	62002931 			@ <UNDEFINED> instruction: 62002931
    1250:	5f647561 			@ <UNDEFINED> instruction: 5f647561
    1254:	65746172 			@ <UNDEFINED> instruction: 65746172
    1258:	41535500 			@ <UNDEFINED> instruction: 41535500
    125c:	435f5452 			@ <UNDEFINED> instruction: 435f5452
    1260:	4d5f3152 			@ <UNDEFINED> instruction: 4d5f3152
    1264:	55312820 			@ <UNDEFINED> instruction: 55312820
    1268:	3c3c204c 			@ <UNDEFINED> instruction: 3c3c204c
    126c:	29323120 			@ <UNDEFINED> instruction: 29323120
    1270:	43435200 	movtmi	r5, #12800	@ 0x3200
    1274:	4248415f 			@ <UNDEFINED> instruction: 4248415f
    1278:	524e4531 			@ <UNDEFINED> instruction: 524e4531
    127c:	4950475f 			@ <UNDEFINED> instruction: 4950475f
    1280:	4e45414f 			@ <UNDEFINED> instruction: 4e45414f
    1284:	55312820 			@ <UNDEFINED> instruction: 55312820
    1288:	3c3c204c 			@ <UNDEFINED> instruction: 3c3c204c
    128c:	00293020 			@ <UNDEFINED> instruction: 00293020
    1290:	54524155 			@ <UNDEFINED> instruction: 54524155
    1294:	4f54535f 			@ <UNDEFINED> instruction: 4f54535f
    1298:	54494250 			@ <UNDEFINED> instruction: 54494250
    129c:	20315f53 			@ <UNDEFINED> instruction: 20315f53
    12a0:	5f005530 			@ <UNDEFINED> instruction: 5f005530
    12a4:	554e475f 			@ <UNDEFINED> instruction: 554e475f
    12a8:	58455f43 			@ <UNDEFINED> instruction: 58455f43
    12ac:	54554345 			@ <UNDEFINED> instruction: 54554345
    12b0:	5f4e4f49 			@ <UNDEFINED> instruction: 5f4e4f49
    12b4:	52414843 			@ <UNDEFINED> instruction: 52414843
    12b8:	5f544553 			@ <UNDEFINED> instruction: 5f544553
    12bc:	454d414e 			@ <UNDEFINED> instruction: 454d414e
    12c0:	54552220 			@ <UNDEFINED> instruction: 54552220
    12c4:	22382d46 			@ <UNDEFINED> instruction: 22382d46
    12c8:	49504700 			@ <UNDEFINED> instruction: 49504700
    12cc:	415f414f 			@ <UNDEFINED> instruction: 415f414f
    12d0:	204c5246 			@ <UNDEFINED> instruction: 204c5246
    12d4:	33474552 	movtcc	r4, #30034	@ 0x7552
    12d8:	50472832 			@ <UNDEFINED> instruction: 50472832
    12dc:	5f414f49 			@ <UNDEFINED> instruction: 5f414f49
    12e0:	45534142 			@ <UNDEFINED> instruction: 45534142
    12e4:	5047202c 			@ <UNDEFINED> instruction: 5047202c
    12e8:	415f4f49 			@ <UNDEFINED> instruction: 415f4f49
    12ec:	5f4c5246 			@ <UNDEFINED> instruction: 5f4c5246
    12f0:	5346464f 	movtpl	r4, #26191	@ 0x664f
    12f4:	00295445 			@ <UNDEFINED> instruction: 00295445
    12f8:	54555f5f 			@ <UNDEFINED> instruction: 54555f5f
    12fc:	42465f41 			@ <UNDEFINED> instruction: 42465f41
    1300:	5f5f5449 			@ <UNDEFINED> instruction: 5f5f5449
    1304:	00343620 			@ <UNDEFINED> instruction: 00343620
    1308:	4d544e49 			@ <UNDEFINED> instruction: 4d544e49
    130c:	435f5841 			@ <UNDEFINED> instruction: 435f5841
    1310:	20296328 			@ <UNDEFINED> instruction: 20296328
    1314:	4e495f5f 			@ <UNDEFINED> instruction: 4e495f5f
    1318:	58414d54 			@ <UNDEFINED> instruction: 58414d54
    131c:	6328435f 			@ <UNDEFINED> instruction: 6328435f
    1320:	5f5f0029 			@ <UNDEFINED> instruction: 5f5f0029
    1324:	5f544c46 			@ <UNDEFINED> instruction: 5f544c46
    1328:	49434544 			@ <UNDEFINED> instruction: 49434544
    132c:	5f4c414d 			@ <UNDEFINED> instruction: 5f4c414d
    1330:	5f474944 			@ <UNDEFINED> instruction: 5f474944
    1334:	0039205f 			@ <UNDEFINED> instruction: 0039205f
    1338:	68745f5f 			@ <UNDEFINED> instruction: 68745f5f
    133c:	5f626d75 			@ <UNDEFINED> instruction: 5f626d75
    1340:	0031205f 			@ <UNDEFINED> instruction: 0031205f
    1344:	4e495f5f 			@ <UNDEFINED> instruction: 4e495f5f
    1348:	454c5f54 			@ <UNDEFINED> instruction: 454c5f54
    134c:	33545341 			@ <UNDEFINED> instruction: 33545341
    1350:	414d5f32 			@ <UNDEFINED> instruction: 414d5f32
    1354:	205f5f58 			@ <UNDEFINED> instruction: 205f5f58
    1358:	66377830 			@ <UNDEFINED> instruction: 66377830
    135c:	66666666 			@ <UNDEFINED> instruction: 66666666
    1360:	004c6666 			@ <UNDEFINED> instruction: 004c6666
    1364:	746e6975 			@ <UNDEFINED> instruction: 746e6975
    1368:	00745f38 			@ <UNDEFINED> instruction: 00745f38
    136c:	4d544e49 			@ <UNDEFINED> instruction: 4d544e49
    1370:	4d5f5841 			@ <UNDEFINED> instruction: 4d5f5841
    1374:	28204e49 			@ <UNDEFINED> instruction: 28204e49
    1378:	544e492d 			@ <UNDEFINED> instruction: 544e492d
    137c:	5f58414d 			@ <UNDEFINED> instruction: 5f58414d
    1380:	2058414d 			@ <UNDEFINED> instruction: 2058414d
    1384:	2931202d 			@ <UNDEFINED> instruction: 2931202d
    1388:	544e4900 			@ <UNDEFINED> instruction: 544e4900
    138c:	435f3233 			@ <UNDEFINED> instruction: 435f3233
    1390:	20296328 			@ <UNDEFINED> instruction: 20296328
    1394:	4e495f5f 			@ <UNDEFINED> instruction: 4e495f5f
    1398:	5f323354 			@ <UNDEFINED> instruction: 5f323354
    139c:	29632843 			@ <UNDEFINED> instruction: 29632843
    13a0:	475f5f00 			@ <UNDEFINED> instruction: 475f5f00
    13a4:	5f43554e 			@ <UNDEFINED> instruction: 5f43554e
    13a8:	43445453 	movtmi	r5, #17491	@ 0x4453
    13ac:	4c4e495f 	mcrrmi	9, 5, r4, lr, cr15	@ <UNPREDICTABLE>
    13b0:	5f454e49 			@ <UNDEFINED> instruction: 5f454e49
    13b4:	0031205f 			@ <UNDEFINED> instruction: 0031205f
    13b8:	54535953 			@ <UNDEFINED> instruction: 54535953
    13bc:	5f4b4349 			@ <UNDEFINED> instruction: 5f4b4349
    13c0:	4c525443 	mrrcmi	4, 4, r5, r2, cr3
    13c4:	4b4c435f 			@ <UNDEFINED> instruction: 4b4c435f
    13c8:	52554f53 			@ <UNDEFINED> instruction: 52554f53
    13cc:	28204543 			@ <UNDEFINED> instruction: 28204543
    13d0:	204c5531 			@ <UNDEFINED> instruction: 204c5531
    13d4:	32203c3c 			@ <UNDEFINED> instruction: 32203c3c
    13d8:	5f5f0029 			@ <UNDEFINED> instruction: 5f5f0029
    13dc:	36544e49 			@ <UNDEFINED> instruction: 36544e49
    13e0:	28435f34 			@ <UNDEFINED> instruction: 28435f34
    13e4:	63202963 			@ <UNDEFINED> instruction: 63202963
    13e8:	20232320 			@ <UNDEFINED> instruction: 20232320
    13ec:	5f004c4c 			@ <UNDEFINED> instruction: 5f004c4c
    13f0:	4152465f 			@ <UNDEFINED> instruction: 4152465f
    13f4:	465f5443 			@ <UNDEFINED> instruction: 465f5443
    13f8:	5f544942 			@ <UNDEFINED> instruction: 5f544942
    13fc:	3531205f 			@ <UNDEFINED> instruction: 3531205f
    1400:	49504700 			@ <UNDEFINED> instruction: 49504700
    1404:	46415f4f 			@ <UNDEFINED> instruction: 46415f4f
    1408:	78302037 			@ <UNDEFINED> instruction: 78302037
    140c:	00553730 			@ <UNDEFINED> instruction: 00553730
    1410:	4c4c5f5f 	mcrrmi	15, 5, r5, ip, cr15
    1414:	55434341 			@ <UNDEFINED> instruction: 55434341
    1418:	50455f4d 			@ <UNDEFINED> instruction: 50455f4d
    141c:	4f4c4953 			@ <UNDEFINED> instruction: 4f4c4953
    1420:	205f5f4e 			@ <UNDEFINED> instruction: 205f5f4e
    1424:	50317830 			@ <UNDEFINED> instruction: 50317830
    1428:	4c31332d 			@ <UNDEFINED> instruction: 4c31332d
    142c:	5f004b4c 			@ <UNDEFINED> instruction: 5f004b4c
    1430:	554e475f 			@ <UNDEFINED> instruction: 554e475f
    1434:	41505f43 			@ <UNDEFINED> instruction: 41505f43
    1438:	4c484354 	mcrrmi	3, 5, r4, r8, cr4
    143c:	4c455645 	mcrrmi	6, 4, r5, r5, cr5
    1440:	31205f5f 			@ <UNDEFINED> instruction: 31205f5f
    1444:	475f5f00 			@ <UNDEFINED> instruction: 475f5f00
    1448:	415f4343 			@ <UNDEFINED> instruction: 415f4343
    144c:	494d4f54 			@ <UNDEFINED> instruction: 494d4f54
    1450:	48435f43 			@ <UNDEFINED> instruction: 48435f43
    1454:	32335241 			@ <UNDEFINED> instruction: 32335241
    1458:	4c5f545f 	mrrcmi	4, 5, r5, pc, cr15	@ <UNPREDICTABLE>
    145c:	5f4b434f 			@ <UNDEFINED> instruction: 5f4b434f
    1460:	45455246 			@ <UNDEFINED> instruction: 45455246
    1464:	50003220 			@ <UNDEFINED> instruction: 50003220
    1468:	49445254 			@ <UNDEFINED> instruction: 49445254
    146c:	4d5f4646 			@ <UNDEFINED> instruction: 4d5f4646
    1470:	47004e49 			@ <UNDEFINED> instruction: 47004e49
    1474:	5f4f4950 			@ <UNDEFINED> instruction: 5f4f4950
    1478:	52525342 			@ <UNDEFINED> instruction: 52525342
    147c:	46464f5f 			@ <UNDEFINED> instruction: 46464f5f
    1480:	20544553 			@ <UNDEFINED> instruction: 20544553
    1484:	38317830 			@ <UNDEFINED> instruction: 38317830
    1488:	5f004c55 			@ <UNDEFINED> instruction: 5f004c55
    148c:	6863775f 			@ <UNDEFINED> instruction: 6863775f
    1490:	745f7261 			@ <UNDEFINED> instruction: 745f7261
    1494:	00205f5f 			@ <UNDEFINED> instruction: 00205f5f
    1498:	54535953 			@ <UNDEFINED> instruction: 54535953
    149c:	5f4b4349 			@ <UNDEFINED> instruction: 5f4b4349
    14a0:	494c4143 			@ <UNDEFINED> instruction: 494c4143
    14a4:	45545f42 			@ <UNDEFINED> instruction: 45545f42
    14a8:	5f534d4e 			@ <UNDEFINED> instruction: 5f534d4e
    14ac:	4b53414d 			@ <UNDEFINED> instruction: 4b53414d
    14b0:	30783020 			@ <UNDEFINED> instruction: 30783020
    14b4:	46464630 			@ <UNDEFINED> instruction: 46464630
    14b8:	55464646 			@ <UNDEFINED> instruction: 55464646
    14bc:	4155004c 			@ <UNDEFINED> instruction: 4155004c
    14c0:	5f345452 			@ <UNDEFINED> instruction: 5f345452
    14c4:	45534142 			@ <UNDEFINED> instruction: 45534142
    14c8:	34783020 			@ <UNDEFINED> instruction: 34783020
    14cc:	34303030 			@ <UNDEFINED> instruction: 34303030
    14d0:	55303043 			@ <UNDEFINED> instruction: 55303043
    14d4:	4955004c 			@ <UNDEFINED> instruction: 4955004c
    14d8:	5450544e 			@ <UNDEFINED> instruction: 5450544e
    14dc:	414d5f52 			@ <UNDEFINED> instruction: 414d5f52
    14e0:	5f5f2058 			@ <UNDEFINED> instruction: 5f5f2058
    14e4:	544e4955 			@ <UNDEFINED> instruction: 544e4955
    14e8:	5f525450 			@ <UNDEFINED> instruction: 5f525450
    14ec:	5f58414d 			@ <UNDEFINED> instruction: 5f58414d
    14f0:	4352005f 			@ <UNDEFINED> instruction: 4352005f
    14f4:	44425f43 			@ <UNDEFINED> instruction: 44425f43
    14f8:	4f5f5243 			@ <UNDEFINED> instruction: 4f5f5243
    14fc:	45534646 			@ <UNDEFINED> instruction: 45534646
    1500:	78302054 			@ <UNDEFINED> instruction: 78302054
    1504:	4c553037 	mrrcmi	0, 3, r3, r5, cr7
    1508:	465f5f00 			@ <UNDEFINED> instruction: 465f5f00
    150c:	445f544c 			@ <UNDEFINED> instruction: 445f544c
    1510:	5f5f4749 			@ <UNDEFINED> instruction: 5f5f4749
    1514:	55003620 			@ <UNDEFINED> instruction: 55003620
    1518:	54524153 			@ <UNDEFINED> instruction: 54524153
    151c:	5f52535f 			@ <UNDEFINED> instruction: 5f52535f
    1520:	454c4449 			@ <UNDEFINED> instruction: 454c4449
    1524:	55312820 			@ <UNDEFINED> instruction: 55312820
    1528:	3c3c204c 			@ <UNDEFINED> instruction: 3c3c204c
    152c:	00293420 			@ <UNDEFINED> instruction: 00293420
    1530:	544e4957 			@ <UNDEFINED> instruction: 544e4957
    1534:	4e494d5f 			@ <UNDEFINED> instruction: 4e494d5f
    1538:	53425f00 	movtpl	r5, #12032	@ 0x2f00
    153c:	49535f44 			@ <UNDEFINED> instruction: 49535f44
    1540:	545f455a 			@ <UNDEFINED> instruction: 545f455a
    1544:	4645445f 			@ <UNDEFINED> instruction: 4645445f
    1548:	44454e49 			@ <UNDEFINED> instruction: 44454e49
    154c:	5f00205f 			@ <UNDEFINED> instruction: 5f00205f
    1550:	4e49555f 			@ <UNDEFINED> instruction: 4e49555f
    1554:	41465f54 			@ <UNDEFINED> instruction: 41465f54
    1558:	32335453 			@ <UNDEFINED> instruction: 32335453
    155c:	5059545f 			@ <UNDEFINED> instruction: 5059545f
    1560:	205f5f45 			@ <UNDEFINED> instruction: 205f5f45
    1564:	69736e75 			@ <UNDEFINED> instruction: 69736e75
    1568:	64656e67 			@ <UNDEFINED> instruction: 64656e67
    156c:	746e6920 			@ <UNDEFINED> instruction: 746e6920
    1570:	5f5f5f00 			@ <UNDEFINED> instruction: 5f5f5f00
    1574:	5f746e69 			@ <UNDEFINED> instruction: 5f746e69
    1578:	657a6973 			@ <UNDEFINED> instruction: 657a6973
    157c:	685f745f 			@ <UNDEFINED> instruction: 685f745f
    1580:	5f5f0020 			@ <UNDEFINED> instruction: 5f5f0020
    1584:	43445453 	movtmi	r5, #17491	@ 0x4453
    1588:	4654555f 			@ <UNDEFINED> instruction: 4654555f
    158c:	5f32335f 			@ <UNDEFINED> instruction: 5f32335f
    1590:	0031205f 			@ <UNDEFINED> instruction: 0031205f
    1594:	49535f5f 			@ <UNDEFINED> instruction: 49535f5f
    1598:	464f455a 			@ <UNDEFINED> instruction: 464f455a
    159c:	4f4c465f 			@ <UNDEFINED> instruction: 4f4c465f
    15a0:	5f5f5441 			@ <UNDEFINED> instruction: 5f5f5441
    15a4:	5f003420 			@ <UNDEFINED> instruction: 5f003420
    15a8:	544c465f 			@ <UNDEFINED> instruction: 544c465f
    15ac:	5f583233 			@ <UNDEFINED> instruction: 5f583233
    15b0:	4f4e4544 			@ <UNDEFINED> instruction: 4f4e4544
    15b4:	4d5f4d52 			@ <UNDEFINED> instruction: 4d5f4d52
    15b8:	5f5f4e49 			@ <UNDEFINED> instruction: 5f5f4e49
    15bc:	392e3420 			@ <UNDEFINED> instruction: 392e3420
    15c0:	35363034 			@ <UNDEFINED> instruction: 35363034
    15c4:	38353436 			@ <UNDEFINED> instruction: 38353436
    15c8:	34323134 			@ <UNDEFINED> instruction: 34323134
    15cc:	65343536 			@ <UNDEFINED> instruction: 65343536
    15d0:	3432332d 			@ <UNDEFINED> instruction: 3432332d
    15d4:	78323346 			@ <UNDEFINED> instruction: 78323346
    15d8:	4e495500 			@ <UNDEFINED> instruction: 4e495500
    15dc:	5f343654 			@ <UNDEFINED> instruction: 5f343654
    15e0:	0058414d 			@ <UNDEFINED> instruction: 0058414d
    15e4:	4c465f5f 	mcrrmi	15, 5, r5, r6, cr15
    15e8:	414d5f54 			@ <UNDEFINED> instruction: 414d5f54
    15ec:	30315f58 			@ <UNDEFINED> instruction: 30315f58
    15f0:	5058455f 			@ <UNDEFINED> instruction: 5058455f
    15f4:	33205f5f 			@ <UNDEFINED> instruction: 33205f5f
    15f8:	5f5f0038 			@ <UNDEFINED> instruction: 5f5f0038
    15fc:	43415246 	movtmi	r5, #4678	@ 0x1246
    1600:	414d5f54 			@ <UNDEFINED> instruction: 414d5f54
    1604:	205f5f58 			@ <UNDEFINED> instruction: 205f5f58
    1608:	46375830 			@ <UNDEFINED> instruction: 46375830
    160c:	2d504646 			@ <UNDEFINED> instruction: 2d504646
    1610:	00523531 			@ <UNDEFINED> instruction: 00523531
    1614:	43415f5f 	movtmi	r5, #8031	@ 0x1f5f
    1618:	5f4d5543 			@ <UNDEFINED> instruction: 5f4d5543
    161c:	49535045 			@ <UNDEFINED> instruction: 49535045
    1620:	5f4e4f4c 			@ <UNDEFINED> instruction: 5f4e4f4c
    1624:	7830205f 			@ <UNDEFINED> instruction: 7830205f
    1628:	312d5031 			@ <UNDEFINED> instruction: 312d5031
    162c:	49004b35 			@ <UNDEFINED> instruction: 49004b35
    1630:	4c5f544e 	mrrcmi	4, 4, r5, pc, cr14	@ <UNPREDICTABLE>
    1634:	54534145 			@ <UNDEFINED> instruction: 54534145
    1638:	4d5f3233 			@ <UNDEFINED> instruction: 4d5f3233
    163c:	5f205841 			@ <UNDEFINED> instruction: 5f205841
    1640:	544e495f 			@ <UNDEFINED> instruction: 544e495f
    1644:	41454c5f 			@ <UNDEFINED> instruction: 41454c5f
    1648:	32335453 			@ <UNDEFINED> instruction: 32335453
    164c:	58414d5f 			@ <UNDEFINED> instruction: 58414d5f
    1650:	47005f5f 	smlsdmi	r0, pc, pc, r5	@ <UNPREDICTABLE>
    1654:	5f4f4950 			@ <UNDEFINED> instruction: 5f4f4950
    1658:	45444f4d 			@ <UNDEFINED> instruction: 45444f4d
    165c:	554f5f52 			@ <UNDEFINED> instruction: 554f5f52
    1660:	54555054 			@ <UNDEFINED> instruction: 54555054
    1664:	30783020 			@ <UNDEFINED> instruction: 30783020
    1668:	5f005531 			@ <UNDEFINED> instruction: 5f005531
    166c:	544e495f 			@ <UNDEFINED> instruction: 544e495f
    1670:	5341465f 	movtpl	r4, #5727	@ 0x165f
    1674:	5f323354 			@ <UNDEFINED> instruction: 5f323354
    1678:	5f58414d 			@ <UNDEFINED> instruction: 5f58414d
    167c:	7830205f 			@ <UNDEFINED> instruction: 7830205f
    1680:	66666637 			@ <UNDEFINED> instruction: 66666637
    1684:	66666666 			@ <UNDEFINED> instruction: 66666666
    1688:	415f5f00 			@ <UNDEFINED> instruction: 415f5f00
    168c:	494d4f54 			@ <UNDEFINED> instruction: 494d4f54
    1690:	45535f43 			@ <UNDEFINED> instruction: 45535f43
    1694:	53435f51 	movtpl	r5, #16209	@ 0x3f51
    1698:	00352054 			@ <UNDEFINED> instruction: 00352054
    169c:	2f637273 			@ <UNDEFINED> instruction: 2f637273
    16a0:	6e69616d 			@ <UNDEFINED> instruction: 6e69616d
    16a4:	5500632e 			@ <UNDEFINED> instruction: 5500632e
    16a8:	54524153 			@ <UNDEFINED> instruction: 54524153
    16ac:	3352435f 			@ <UNDEFINED> instruction: 3352435f
    16b0:	414d445f 			@ <UNDEFINED> instruction: 414d445f
    16b4:	31282054 	qsubcc	r2, r4, r8
    16b8:	3c204c55 			@ <UNDEFINED> instruction: 3c204c55
    16bc:	2937203c 			@ <UNDEFINED> instruction: 2937203c
    16c0:	445f5f00 			@ <UNDEFINED> instruction: 445f5f00
    16c4:	4e494645 			@ <UNDEFINED> instruction: 4e494645
    16c8:	735f4445 			@ <UNDEFINED> instruction: 735f4445
    16cc:	5f657a69 			@ <UNDEFINED> instruction: 5f657a69
    16d0:	55002074 			@ <UNDEFINED> instruction: 55002074
    16d4:	54524153 			@ <UNDEFINED> instruction: 54524153
    16d8:	52535f31 			@ <UNDEFINED> instruction: 52535f31
    16dc:	47455220 			@ <UNDEFINED> instruction: 47455220
    16e0:	55283233 			@ <UNDEFINED> instruction: 55283233
    16e4:	54524153 			@ <UNDEFINED> instruction: 54524153
    16e8:	41425f31 			@ <UNDEFINED> instruction: 41425f31
    16ec:	202c4553 			@ <UNDEFINED> instruction: 202c4553
    16f0:	52415355 			@ <UNDEFINED> instruction: 52415355
    16f4:	52535f54 			@ <UNDEFINED> instruction: 52535f54
    16f8:	46464f5f 			@ <UNDEFINED> instruction: 46464f5f
    16fc:	29544553 			@ <UNDEFINED> instruction: 29544553
    1700:	555f5f00 			@ <UNDEFINED> instruction: 555f5f00
    1704:	31544e49 			@ <UNDEFINED> instruction: 31544e49
    1708:	414d5f36 			@ <UNDEFINED> instruction: 414d5f36
    170c:	205f5f58 			@ <UNDEFINED> instruction: 205f5f58
    1710:	66667830 			@ <UNDEFINED> instruction: 66667830
    1714:	5f006666 			@ <UNDEFINED> instruction: 5f006666
    1718:	42444c5f 			@ <UNDEFINED> instruction: 42444c5f
    171c:	494d5f4c 			@ <UNDEFINED> instruction: 494d5f4c
    1720:	205f5f4e 			@ <UNDEFINED> instruction: 205f5f4e
    1724:	32322e32 			@ <UNDEFINED> instruction: 32322e32
    1728:	33373035 			@ <UNDEFINED> instruction: 33373035
    172c:	35383538 			@ <UNDEFINED> instruction: 35383538
    1730:	30323730 			@ <UNDEFINED> instruction: 30323730
    1734:	2d653431 			@ <UNDEFINED> instruction: 2d653431
    1738:	4c383033 			@ <UNDEFINED> instruction: 4c383033
    173c:	545f5f00 			@ <UNDEFINED> instruction: 545f5f00
    1740:	42465f51 			@ <UNDEFINED> instruction: 42465f51
    1744:	5f5f5449 			@ <UNDEFINED> instruction: 5f5f5449
    1748:	37323120 			@ <UNDEFINED> instruction: 37323120
    174c:	535f5f00 			@ <UNDEFINED> instruction: 535f5f00
    1750:	5f545248 			@ <UNDEFINED> instruction: 5f545248
    1754:	5f58414d 			@ <UNDEFINED> instruction: 5f58414d
    1758:	7830205f 			@ <UNDEFINED> instruction: 7830205f
    175c:	66666637 			@ <UNDEFINED> instruction: 66666637
    1760:	52415500 			@ <UNDEFINED> instruction: 52415500
    1764:	52455f54 			@ <UNDEFINED> instruction: 52455f54
    1768:	564f5f52 			@ <UNDEFINED> instruction: 564f5f52
    176c:	55525245 			@ <UNDEFINED> instruction: 55525245
    1770:	4e49004e 			@ <UNDEFINED> instruction: 4e49004e
    1774:	41465f54 			@ <UNDEFINED> instruction: 41465f54
    1778:	36315453 			@ <UNDEFINED> instruction: 36315453
    177c:	4e494d5f 			@ <UNDEFINED> instruction: 4e494d5f
    1780:	745f5f00 			@ <UNDEFINED> instruction: 745f5f00
    1784:	626d7568 			@ <UNDEFINED> instruction: 626d7568
    1788:	205f5f32 			@ <UNDEFINED> instruction: 205f5f32
    178c:	5f5f0031 			@ <UNDEFINED> instruction: 5f5f0031
    1790:	414c4c55 			@ <UNDEFINED> instruction: 414c4c55
    1794:	4d554343 			@ <UNDEFINED> instruction: 4d554343
    1798:	4942465f 			@ <UNDEFINED> instruction: 4942465f
    179c:	205f5f54 			@ <UNDEFINED> instruction: 205f5f54
    17a0:	47003233 	smladxmi	r0, r3, r2, r3
    17a4:	5f4f4950 			@ <UNDEFINED> instruction: 5f4f4950
    17a8:	5f525245 			@ <UNDEFINED> instruction: 5f525245
    17ac:	41564e49 			@ <UNDEFINED> instruction: 41564e49
    17b0:	5f44494c 			@ <UNDEFINED> instruction: 5f44494c
    17b4:	45444f4d 			@ <UNDEFINED> instruction: 45444f4d
    17b8:	49504700 			@ <UNDEFINED> instruction: 49504700
    17bc:	46415f4f 			@ <UNDEFINED> instruction: 46415f4f
    17c0:	414d5f52 			@ <UNDEFINED> instruction: 414d5f52
    17c4:	30204b53 			@ <UNDEFINED> instruction: 30204b53
    17c8:	55463078 			@ <UNDEFINED> instruction: 55463078
    17cc:	41535500 			@ <UNDEFINED> instruction: 41535500
    17d0:	425f5452 			@ <UNDEFINED> instruction: 425f5452
    17d4:	445f5252 			@ <UNDEFINED> instruction: 445f5252
    17d8:	4d5f5649 			@ <UNDEFINED> instruction: 4d5f5649
    17dc:	49544e41 			@ <UNDEFINED> instruction: 49544e41
    17e0:	5f415353 			@ <UNDEFINED> instruction: 5f415353
    17e4:	4b53414d 			@ <UNDEFINED> instruction: 4b53414d
    17e8:	46783020 			@ <UNDEFINED> instruction: 46783020
    17ec:	4c553046 	mrrcmi	0, 4, r3, r5, cr6
    17f0:	544e4900 			@ <UNDEFINED> instruction: 544e4900
    17f4:	5341465f 	movtpl	r4, #5727	@ 0x165f
    17f8:	5f323354 			@ <UNDEFINED> instruction: 5f323354
    17fc:	204e494d 			@ <UNDEFINED> instruction: 204e494d
    1800:	4e492d28 			@ <UNDEFINED> instruction: 4e492d28
    1804:	41465f54 			@ <UNDEFINED> instruction: 41465f54
    1808:	32335453 			@ <UNDEFINED> instruction: 32335453
    180c:	58414d5f 			@ <UNDEFINED> instruction: 58414d5f
    1810:	31202d20 			@ <UNDEFINED> instruction: 31202d20
    1814:	50470029 			@ <UNDEFINED> instruction: 50470029
    1818:	5f454f49 			@ <UNDEFINED> instruction: 5f454f49
    181c:	45534142 			@ <UNDEFINED> instruction: 45534142
    1820:	34783020 			@ <UNDEFINED> instruction: 34783020
    1824:	31323030 			@ <UNDEFINED> instruction: 31323030
    1828:	55303030 			@ <UNDEFINED> instruction: 55303030
    182c:	4955004c 			@ <UNDEFINED> instruction: 4955004c
    1830:	4c5f544e 	mrrcmi	4, 4, r5, pc, cr14	@ <UNPREDICTABLE>
    1834:	54534145 			@ <UNDEFINED> instruction: 54534145
    1838:	414d5f38 			@ <UNDEFINED> instruction: 414d5f38
    183c:	49550058 			@ <UNDEFINED> instruction: 49550058
    1840:	5f38544e 			@ <UNDEFINED> instruction: 5f38544e
    1844:	29632843 			@ <UNDEFINED> instruction: 29632843
    1848:	555f5f20 			@ <UNDEFINED> instruction: 555f5f20
    184c:	38544e49 			@ <UNDEFINED> instruction: 38544e49
    1850:	6328435f 			@ <UNDEFINED> instruction: 6328435f
    1854:	5f5f0029 			@ <UNDEFINED> instruction: 5f5f0029
    1858:	455a4953 			@ <UNDEFINED> instruction: 455a4953
    185c:	4c5f464f 	mrrcmi	6, 4, r4, pc, cr15	@ <UNPREDICTABLE>
    1860:	5f474e4f 			@ <UNDEFINED> instruction: 5f474e4f
    1864:	42554f44 			@ <UNDEFINED> instruction: 42554f44
    1868:	5f5f454c 			@ <UNDEFINED> instruction: 5f5f454c
    186c:	5f003820 			@ <UNDEFINED> instruction: 5f003820
    1870:	4152505f 			@ <UNDEFINED> instruction: 4152505f
    1874:	5f414d47 			@ <UNDEFINED> instruction: 5f414d47
    1878:	45444552 			@ <UNDEFINED> instruction: 45444552
    187c:	454e4946 			@ <UNDEFINED> instruction: 454e4946
    1880:	5458455f 			@ <UNDEFINED> instruction: 5458455f
    1884:	454d414e 			@ <UNDEFINED> instruction: 454d414e
    1888:	5f003120 			@ <UNDEFINED> instruction: 5f003120
    188c:	4843575f 			@ <UNDEFINED> instruction: 4843575f
    1890:	545f5241 			@ <UNDEFINED> instruction: 545f5241
    1894:	5f455059 			@ <UNDEFINED> instruction: 5f455059
    1898:	6e75205f 			@ <UNDEFINED> instruction: 6e75205f
    189c:	6e676973 			@ <UNDEFINED> instruction: 6e676973
    18a0:	69206465 			@ <UNDEFINED> instruction: 69206465
    18a4:	5700746e 			@ <UNDEFINED> instruction: 5700746e
    18a8:	5f544e49 			@ <UNDEFINED> instruction: 5f544e49
    18ac:	2058414d 			@ <UNDEFINED> instruction: 2058414d
    18b0:	49575f5f 			@ <UNDEFINED> instruction: 49575f5f
    18b4:	4d5f544e 			@ <UNDEFINED> instruction: 4d5f544e
    18b8:	5f5f5841 			@ <UNDEFINED> instruction: 5f5f5841
    18bc:	49504700 			@ <UNDEFINED> instruction: 49504700
    18c0:	415f424f 			@ <UNDEFINED> instruction: 415f424f
    18c4:	204c5246 			@ <UNDEFINED> instruction: 204c5246
    18c8:	33474552 	movtcc	r4, #30034	@ 0x7552
    18cc:	50472832 			@ <UNDEFINED> instruction: 50472832
    18d0:	5f424f49 			@ <UNDEFINED> instruction: 5f424f49
    18d4:	45534142 			@ <UNDEFINED> instruction: 45534142
    18d8:	5047202c 			@ <UNDEFINED> instruction: 5047202c
    18dc:	415f4f49 			@ <UNDEFINED> instruction: 415f4f49
    18e0:	5f4c5246 			@ <UNDEFINED> instruction: 5f4c5246
    18e4:	5346464f 	movtpl	r4, #26191	@ 0x664f
    18e8:	00295445 			@ <UNDEFINED> instruction: 00295445
    18ec:	53555f5f 			@ <UNDEFINED> instruction: 53555f5f
    18f0:	42495f41 			@ <UNDEFINED> instruction: 42495f41
    18f4:	5f5f5449 			@ <UNDEFINED> instruction: 5f5f5449
    18f8:	00363120 			@ <UNDEFINED> instruction: 00363120
    18fc:	43475f5f 	movtmi	r5, #32607	@ 0x7f5f
    1900:	41485f43 			@ <UNDEFINED> instruction: 41485f43
    1904:	535f4556 			@ <UNDEFINED> instruction: 535f4556
    1908:	5f434e59 			@ <UNDEFINED> instruction: 5f434e59
    190c:	504d4f43 			@ <UNDEFINED> instruction: 504d4f43
    1910:	5f455241 			@ <UNDEFINED> instruction: 5f455241
    1914:	5f444e41 			@ <UNDEFINED> instruction: 5f444e41
    1918:	50415753 			@ <UNDEFINED> instruction: 50415753
    191c:	3120325f 			@ <UNDEFINED> instruction: 3120325f
    1920:	52545000 			@ <UNDEFINED> instruction: 52545000
    1924:	46464944 			@ <UNDEFINED> instruction: 46464944
    1928:	4e494d5f 			@ <UNDEFINED> instruction: 4e494d5f
    192c:	502d2820 			@ <UNDEFINED> instruction: 502d2820
    1930:	49445254 			@ <UNDEFINED> instruction: 49445254
    1934:	4d5f4646 			@ <UNDEFINED> instruction: 4d5f4646
    1938:	2d205841 			@ <UNDEFINED> instruction: 2d205841
    193c:	00293120 			@ <UNDEFINED> instruction: 00293120
    1940:	52415355 			@ <UNDEFINED> instruction: 52415355
    1944:	52435f54 			@ <UNDEFINED> instruction: 52435f54
    1948:	564f5f31 			@ <UNDEFINED> instruction: 564f5f31
    194c:	20385245 			@ <UNDEFINED> instruction: 20385245
    1950:	4c553128 	mrrcmi	1, 2, r3, r5, cr8
    1954:	203c3c20 			@ <UNDEFINED> instruction: 203c3c20
    1958:	00293531 			@ <UNDEFINED> instruction: 00293531
    195c:	52415355 			@ <UNDEFINED> instruction: 52415355
    1960:	52435f54 			@ <UNDEFINED> instruction: 52435f54
    1964:	4d445f33 			@ <UNDEFINED> instruction: 4d445f33
    1968:	28205241 			@ <UNDEFINED> instruction: 28205241
    196c:	204c5531 			@ <UNDEFINED> instruction: 204c5531
    1970:	36203c3c 			@ <UNDEFINED> instruction: 36203c3c
    1974:	5f5f0029 			@ <UNDEFINED> instruction: 5f5f0029
    1978:	544e4955 			@ <UNDEFINED> instruction: 544e4955
    197c:	5341465f 	movtpl	r4, #5727	@ 0x165f
    1980:	5f343654 			@ <UNDEFINED> instruction: 5f343654
    1984:	45505954 			@ <UNDEFINED> instruction: 45505954
    1988:	6c205f5f 			@ <UNDEFINED> instruction: 6c205f5f
    198c:	20676e6f 			@ <UNDEFINED> instruction: 20676e6f
    1990:	676e6f6c 			@ <UNDEFINED> instruction: 676e6f6c
    1994:	736e7520 			@ <UNDEFINED> instruction: 736e7520
    1998:	656e6769 			@ <UNDEFINED> instruction: 656e6769
    199c:	6e692064 			@ <UNDEFINED> instruction: 6e692064
    19a0:	53550074 			@ <UNDEFINED> instruction: 53550074
    19a4:	5f545241 			@ <UNDEFINED> instruction: 5f545241
    19a8:	545f5253 			@ <UNDEFINED> instruction: 545f5253
    19ac:	31282043 			@ <UNDEFINED> instruction: 31282043
    19b0:	3c204c55 			@ <UNDEFINED> instruction: 3c204c55
    19b4:	2936203c 			@ <UNDEFINED> instruction: 2936203c
    19b8:	41535500 			@ <UNDEFINED> instruction: 41535500
    19bc:	435f5452 			@ <UNDEFINED> instruction: 435f5452
    19c0:	415f3252 			@ <UNDEFINED> instruction: 415f3252
    19c4:	4d5f4444 			@ <UNDEFINED> instruction: 4d5f4444
    19c8:	204b5341 			@ <UNDEFINED> instruction: 204b5341
    19cc:	46307830 			@ <UNDEFINED> instruction: 46307830
    19d0:	5f004c55 			@ <UNDEFINED> instruction: 5f004c55
    19d4:	544c465f 			@ <UNDEFINED> instruction: 544c465f
    19d8:	4e494d5f 			@ <UNDEFINED> instruction: 4e494d5f
    19dc:	31205f5f 			@ <UNDEFINED> instruction: 31205f5f
    19e0:	3537312e 			@ <UNDEFINED> instruction: 3537312e
    19e4:	33343934 			@ <UNDEFINED> instruction: 33343934
    19e8:	32383035 			@ <UNDEFINED> instruction: 32383035
    19ec:	37383232 			@ <UNDEFINED> instruction: 37383232
    19f0:	332d6535 			@ <UNDEFINED> instruction: 332d6535
    19f4:	55004638 			@ <UNDEFINED> instruction: 55004638
    19f8:	54524153 			@ <UNDEFINED> instruction: 54524153
    19fc:	3252435f 			@ <UNDEFINED> instruction: 3252435f
    1a00:	4f50435f 			@ <UNDEFINED> instruction: 4f50435f
    1a04:	3128204c 			@ <UNDEFINED> instruction: 3128204c
    1a08:	3c204c55 			@ <UNDEFINED> instruction: 3c204c55
    1a0c:	3031203c 			@ <UNDEFINED> instruction: 3031203c
    1a10:	5f5f0029 			@ <UNDEFINED> instruction: 5f5f0029
    1a14:	465f4148 			@ <UNDEFINED> instruction: 465f4148
    1a18:	5f544942 			@ <UNDEFINED> instruction: 5f544942
    1a1c:	0037205f 			@ <UNDEFINED> instruction: 0037205f
    1a20:	44465f5f 			@ <UNDEFINED> instruction: 44465f5f
    1a24:	5f434950 			@ <UNDEFINED> instruction: 5f434950
    1a28:	5f5f005f 			@ <UNDEFINED> instruction: 5f5f005f
    1a2c:	33544c46 			@ <UNDEFINED> instruction: 33544c46
    1a30:	53495f32 	movtpl	r5, #40754	@ 0x9f32
    1a34:	4345495f 	movtmi	r4, #22879	@ 0x595f
    1a38:	3530365f 			@ <UNDEFINED> instruction: 3530365f
    1a3c:	5f5f3935 			@ <UNDEFINED> instruction: 5f5f3935
    1a40:	55003120 			@ <UNDEFINED> instruction: 55003120
    1a44:	54524153 			@ <UNDEFINED> instruction: 54524153
    1a48:	3152435f 			@ <UNDEFINED> instruction: 3152435f
    1a4c:	2045525f 			@ <UNDEFINED> instruction: 2045525f
    1a50:	4c553128 	mrrcmi	1, 2, r3, r5, cr8
    1a54:	203c3c20 			@ <UNDEFINED> instruction: 203c3c20
    1a58:	52002932 			@ <UNDEFINED> instruction: 52002932
    1a5c:	415f4343 			@ <UNDEFINED> instruction: 415f4343
    1a60:	45314248 			@ <UNDEFINED> instruction: 45314248
    1a64:	475f524e 			@ <UNDEFINED> instruction: 475f524e
    1a68:	444f4950 			@ <UNDEFINED> instruction: 444f4950
    1a6c:	28204e45 			@ <UNDEFINED> instruction: 28204e45
    1a70:	204c5531 			@ <UNDEFINED> instruction: 204c5531
    1a74:	33203c3c 			@ <UNDEFINED> instruction: 33203c3c
    1a78:	50470029 			@ <UNDEFINED> instruction: 50470029
    1a7c:	5f414f49 			@ <UNDEFINED> instruction: 5f414f49
    1a80:	2052444f 			@ <UNDEFINED> instruction: 2052444f
    1a84:	33474552 	movtcc	r4, #30034	@ 0x7552
    1a88:	50472832 			@ <UNDEFINED> instruction: 50472832
    1a8c:	5f414f49 			@ <UNDEFINED> instruction: 5f414f49
    1a90:	45534142 			@ <UNDEFINED> instruction: 45534142
    1a94:	5047202c 			@ <UNDEFINED> instruction: 5047202c
    1a98:	4f5f4f49 			@ <UNDEFINED> instruction: 4f5f4f49
    1a9c:	4f5f5244 			@ <UNDEFINED> instruction: 4f5f5244
    1aa0:	45534646 			@ <UNDEFINED> instruction: 45534646
    1aa4:	52002954 			@ <UNDEFINED> instruction: 52002954
    1aa8:	415f4343 			@ <UNDEFINED> instruction: 415f4343
    1aac:	45314248 			@ <UNDEFINED> instruction: 45314248
    1ab0:	445f524e 			@ <UNDEFINED> instruction: 445f524e
    1ab4:	4531414d 			@ <UNDEFINED> instruction: 4531414d
    1ab8:	3128204e 			@ <UNDEFINED> instruction: 3128204e
    1abc:	3c204c55 			@ <UNDEFINED> instruction: 3c204c55
    1ac0:	3132203c 			@ <UNDEFINED> instruction: 3132203c
    1ac4:	4e490029 			@ <UNDEFINED> instruction: 4e490029
    1ac8:	41465f54 			@ <UNDEFINED> instruction: 41465f54
    1acc:	34365453 			@ <UNDEFINED> instruction: 34365453
    1ad0:	4e494d5f 			@ <UNDEFINED> instruction: 4e494d5f
    1ad4:	41535500 			@ <UNDEFINED> instruction: 41535500
    1ad8:	435f5452 			@ <UNDEFINED> instruction: 435f5452
    1adc:	575f3152 			@ <UNDEFINED> instruction: 575f3152
    1ae0:	20454b41 			@ <UNDEFINED> instruction: 20454b41
    1ae4:	4c553128 	mrrcmi	1, 2, r3, r5, cr8
    1ae8:	203c3c20 			@ <UNDEFINED> instruction: 203c3c20
    1aec:	00293131 			@ <UNDEFINED> instruction: 00293131
    1af0:	4343475f 	movtmi	r4, #14175	@ 0x375f
    1af4:	4152575f 			@ <UNDEFINED> instruction: 4152575f
    1af8:	54535f50 			@ <UNDEFINED> instruction: 54535f50
    1afc:	544e4944 			@ <UNDEFINED> instruction: 544e4944
    1b00:	0020485f 			@ <UNDEFINED> instruction: 0020485f
    1b04:	53555f5f 			@ <UNDEFINED> instruction: 53555f5f
    1b08:	43415246 	movtmi	r5, #4678	@ 0x1246
    1b0c:	494d5f54 			@ <UNDEFINED> instruction: 494d5f54
    1b10:	205f5f4e 			@ <UNDEFINED> instruction: 205f5f4e
    1b14:	55302e30 			@ <UNDEFINED> instruction: 55302e30
    1b18:	5f005248 			@ <UNDEFINED> instruction: 5f005248
    1b1c:	4d52415f 			@ <UNDEFINED> instruction: 4d52415f
    1b20:	4f454e5f 			@ <UNDEFINED> instruction: 4f454e5f
    1b24:	5f5f004e 			@ <UNDEFINED> instruction: 5f5f004e
    1b28:	544e4955 			@ <UNDEFINED> instruction: 544e4955
    1b2c:	414d5f38 			@ <UNDEFINED> instruction: 414d5f38
    1b30:	205f5f58 			@ <UNDEFINED> instruction: 205f5f58
    1b34:	66667830 			@ <UNDEFINED> instruction: 66667830
    1b38:	4c5f5f00 	mrrcmi	15, 0, r5, pc, cr0	@ <UNPREDICTABLE>
    1b3c:	5f4c4244 			@ <UNDEFINED> instruction: 5f4c4244
    1b40:	5f58414d 			@ <UNDEFINED> instruction: 5f58414d
    1b44:	5f505845 			@ <UNDEFINED> instruction: 5f505845
    1b48:	3031205f 			@ <UNDEFINED> instruction: 3031205f
    1b4c:	5f003432 			@ <UNDEFINED> instruction: 5f003432
    1b50:	4c42445f 	mcrrmi	4, 5, r4, r2, cr15
    1b54:	5341485f 	movtpl	r4, #6239	@ 0x185f
    1b58:	4e45445f 			@ <UNDEFINED> instruction: 4e45445f
    1b5c:	5f4d524f 			@ <UNDEFINED> instruction: 5f4d524f
    1b60:	0031205f 			@ <UNDEFINED> instruction: 0031205f
    1b64:	54524155 			@ <UNDEFINED> instruction: 54524155
    1b68:	5252455f 			@ <UNDEFINED> instruction: 5252455f
    1b6c:	5f58525f 			@ <UNDEFINED> instruction: 5f58525f
    1b70:	454d4954 			@ <UNDEFINED> instruction: 454d4954
    1b74:	0054554f 			@ <UNDEFINED> instruction: 0054554f
    1b78:	52415355 			@ <UNDEFINED> instruction: 52415355
    1b7c:	52435f54 			@ <UNDEFINED> instruction: 52435f54
    1b80:	58525f31 			@ <UNDEFINED> instruction: 58525f31
    1b84:	4549454e 			@ <UNDEFINED> instruction: 4549454e
    1b88:	55312820 			@ <UNDEFINED> instruction: 55312820
    1b8c:	3c3c204c 			@ <UNDEFINED> instruction: 3c3c204c
    1b90:	00293520 			@ <UNDEFINED> instruction: 00293520
    1b94:	41445f5f 			@ <UNDEFINED> instruction: 41445f5f
    1b98:	4942465f 			@ <UNDEFINED> instruction: 4942465f
    1b9c:	205f5f54 			@ <UNDEFINED> instruction: 205f5f54
    1ba0:	47003133 	smladxmi	r0, r3, r1, r3
    1ba4:	5f4f4950 			@ <UNDEFINED> instruction: 5f4f4950
    1ba8:	30314641 			@ <UNDEFINED> instruction: 30314641
    1bac:	30783020 			@ <UNDEFINED> instruction: 30783020
    1bb0:	5f005541 			@ <UNDEFINED> instruction: 5f005541
    1bb4:	544e495f 			@ <UNDEFINED> instruction: 544e495f
    1bb8:	41454c5f 			@ <UNDEFINED> instruction: 41454c5f
    1bbc:	36315453 			@ <UNDEFINED> instruction: 36315453
    1bc0:	58414d5f 			@ <UNDEFINED> instruction: 58414d5f
    1bc4:	30205f5f 			@ <UNDEFINED> instruction: 30205f5f
    1bc8:	66663778 			@ <UNDEFINED> instruction: 66663778
    1bcc:	43520066 			@ <UNDEFINED> instruction: 43520066
    1bd0:	50415f43 			@ <UNDEFINED> instruction: 50415f43
    1bd4:	53523142 			@ <UNDEFINED> instruction: 53523142
    1bd8:	52205254 			@ <UNDEFINED> instruction: 52205254
    1bdc:	32334745 			@ <UNDEFINED> instruction: 32334745
    1be0:	43435228 	movtmi	r5, #12840	@ 0x3228
    1be4:	5341425f 	movtpl	r4, #4703	@ 0x125f
    1be8:	52202c45 			@ <UNDEFINED> instruction: 52202c45
    1bec:	415f4343 			@ <UNDEFINED> instruction: 415f4343
    1bf0:	52314250 			@ <UNDEFINED> instruction: 52314250
    1bf4:	5f525453 			@ <UNDEFINED> instruction: 5f525453
    1bf8:	5346464f 	movtpl	r4, #26191	@ 0x664f
    1bfc:	00295445 			@ <UNDEFINED> instruction: 00295445
    1c00:	4f495047 			@ <UNDEFINED> instruction: 4f495047
    1c04:	4f4d5f42 			@ <UNDEFINED> instruction: 4f4d5f42
    1c08:	20524544 			@ <UNDEFINED> instruction: 20524544
    1c0c:	33474552 	movtcc	r4, #30034	@ 0x7552
    1c10:	50472832 			@ <UNDEFINED> instruction: 50472832
    1c14:	5f424f49 			@ <UNDEFINED> instruction: 5f424f49
    1c18:	45534142 			@ <UNDEFINED> instruction: 45534142
    1c1c:	5047202c 			@ <UNDEFINED> instruction: 5047202c
    1c20:	4d5f4f49 			@ <UNDEFINED> instruction: 4d5f4f49
    1c24:	5245444f 			@ <UNDEFINED> instruction: 5245444f
    1c28:	46464f5f 			@ <UNDEFINED> instruction: 46464f5f
    1c2c:	29544553 			@ <UNDEFINED> instruction: 29544553
    1c30:	465f5f00 			@ <UNDEFINED> instruction: 465f5f00
    1c34:	445f544c 			@ <UNDEFINED> instruction: 445f544c
    1c38:	524f4e45 			@ <UNDEFINED> instruction: 524f4e45
    1c3c:	494d5f4d 			@ <UNDEFINED> instruction: 494d5f4d
    1c40:	205f5f4e 			@ <UNDEFINED> instruction: 205f5f4e
    1c44:	30342e31 			@ <UNDEFINED> instruction: 30342e31
    1c48:	38393231 			@ <UNDEFINED> instruction: 38393231
    1c4c:	33343634 			@ <UNDEFINED> instruction: 33343634
    1c50:	31383432 			@ <UNDEFINED> instruction: 31383432
    1c54:	2d653137 			@ <UNDEFINED> instruction: 2d653137
    1c58:	00463534 			@ <UNDEFINED> instruction: 00463534
    1c5c:	54524155 			@ <UNDEFINED> instruction: 54524155
    1c60:	58545f34 			@ <UNDEFINED> instruction: 58545f34
    1c64:	3041505f 			@ <UNDEFINED> instruction: 3041505f
    1c68:	52415500 			@ <UNDEFINED> instruction: 52415500
    1c6c:	57485f54 	smlsldpl	r5, r8, r4, pc	@ <UNPREDICTABLE>
    1c70:	4f4c465f 			@ <UNDEFINED> instruction: 4f4c465f
    1c74:	54525f57 			@ <UNDEFINED> instruction: 54525f57
    1c78:	55312053 			@ <UNDEFINED> instruction: 55312053
    1c7c:	544e4900 			@ <UNDEFINED> instruction: 544e4900
    1c80:	41454c5f 			@ <UNDEFINED> instruction: 41454c5f
    1c84:	5f385453 			@ <UNDEFINED> instruction: 5f385453
    1c88:	2058414d 			@ <UNDEFINED> instruction: 2058414d
    1c8c:	4e495f5f 			@ <UNDEFINED> instruction: 4e495f5f
    1c90:	454c5f54 			@ <UNDEFINED> instruction: 454c5f54
    1c94:	38545341 			@ <UNDEFINED> instruction: 38545341
    1c98:	58414d5f 			@ <UNDEFINED> instruction: 58414d5f
    1c9c:	47005f5f 	smlsdmi	r0, pc, pc, r5	@ <UNPREDICTABLE>
    1ca0:	424f4950 			@ <UNDEFINED> instruction: 424f4950
    1ca4:	5253425f 			@ <UNDEFINED> instruction: 5253425f
    1ca8:	45522052 			@ <UNDEFINED> instruction: 45522052
    1cac:	28323347 			@ <UNDEFINED> instruction: 28323347
    1cb0:	4f495047 			@ <UNDEFINED> instruction: 4f495047
    1cb4:	41425f42 			@ <UNDEFINED> instruction: 41425f42
    1cb8:	202c4553 			@ <UNDEFINED> instruction: 202c4553
    1cbc:	4f495047 			@ <UNDEFINED> instruction: 4f495047
    1cc0:	5253425f 			@ <UNDEFINED> instruction: 5253425f
    1cc4:	464f5f52 			@ <UNDEFINED> instruction: 464f5f52
    1cc8:	54455346 			@ <UNDEFINED> instruction: 54455346
    1ccc:	5f5f0029 			@ <UNDEFINED> instruction: 5f5f0029
    1cd0:	544e4955 			@ <UNDEFINED> instruction: 544e4955
    1cd4:	435f3233 			@ <UNDEFINED> instruction: 435f3233
    1cd8:	20296328 			@ <UNDEFINED> instruction: 20296328
    1cdc:	23232063 			@ <UNDEFINED> instruction: 23232063
    1ce0:	004c5520 			@ <UNDEFINED> instruction: 004c5520
    1ce4:	4f495047 			@ <UNDEFINED> instruction: 4f495047
    1ce8:	004b4f5f 			@ <UNDEFINED> instruction: 004b4f5f
    1cec:	41555f5f 			@ <UNDEFINED> instruction: 41555f5f
    1cf0:	4d554343 			@ <UNDEFINED> instruction: 4d554343
    1cf4:	4e494d5f 			@ <UNDEFINED> instruction: 4e494d5f
    1cf8:	30205f5f 			@ <UNDEFINED> instruction: 30205f5f
    1cfc:	4b55302e 			@ <UNDEFINED> instruction: 4b55302e
    1d00:	465f5f00 			@ <UNDEFINED> instruction: 465f5f00
    1d04:	455f544c 			@ <UNDEFINED> instruction: 455f544c
    1d08:	4c495350 	mcrrmi	3, 5, r5, r9, cr0
    1d0c:	5f5f4e4f 			@ <UNDEFINED> instruction: 5f5f4e4f
    1d10:	312e3120 			@ <UNDEFINED> instruction: 312e3120
    1d14:	39303239 			@ <UNDEFINED> instruction: 39303239
    1d18:	35393832 			@ <UNDEFINED> instruction: 35393832
    1d1c:	38373035 			@ <UNDEFINED> instruction: 38373035
    1d20:	65353231 			@ <UNDEFINED> instruction: 65353231
    1d24:	0046372d 			@ <UNDEFINED> instruction: 0046372d
    1d28:	52415355 			@ <UNDEFINED> instruction: 52415355
    1d2c:	435f3154 			@ <UNDEFINED> instruction: 435f3154
    1d30:	52203152 			@ <UNDEFINED> instruction: 52203152
    1d34:	32334745 			@ <UNDEFINED> instruction: 32334745
    1d38:	41535528 			@ <UNDEFINED> instruction: 41535528
    1d3c:	5f315452 			@ <UNDEFINED> instruction: 5f315452
    1d40:	45534142 			@ <UNDEFINED> instruction: 45534142
    1d44:	5355202c 			@ <UNDEFINED> instruction: 5355202c
    1d48:	5f545241 			@ <UNDEFINED> instruction: 5f545241
    1d4c:	5f315243 			@ <UNDEFINED> instruction: 5f315243
    1d50:	5346464f 	movtpl	r4, #26191	@ 0x664f
    1d54:	00295445 			@ <UNDEFINED> instruction: 00295445
    1d58:	52415355 			@ <UNDEFINED> instruction: 52415355
    1d5c:	52435f54 			@ <UNDEFINED> instruction: 52435f54
    1d60:	43505f31 			@ <UNDEFINED> instruction: 43505f31
    1d64:	31282045 			@ <UNDEFINED> instruction: 31282045
    1d68:	3c204c55 			@ <UNDEFINED> instruction: 3c204c55
    1d6c:	3031203c 			@ <UNDEFINED> instruction: 3031203c
    1d70:	53550029 			@ <UNDEFINED> instruction: 53550029
    1d74:	33545241 			@ <UNDEFINED> instruction: 33545241
    1d78:	5341425f 	movtpl	r4, #4703	@ 0x125f
    1d7c:	78302045 			@ <UNDEFINED> instruction: 78302045
    1d80:	30303034 			@ <UNDEFINED> instruction: 30303034
    1d84:	30303834 			@ <UNDEFINED> instruction: 30303834
    1d88:	5f004c55 			@ <UNDEFINED> instruction: 5f004c55
    1d8c:	41484357 			@ <UNDEFINED> instruction: 41484357
    1d90:	5f545f52 			@ <UNDEFINED> instruction: 5f545f52
    1d94:	49464544 			@ <UNDEFINED> instruction: 49464544
    1d98:	5f44454e 			@ <UNDEFINED> instruction: 5f44454e
    1d9c:	50470020 			@ <UNDEFINED> instruction: 50470020
    1da0:	415f4f49 			@ <UNDEFINED> instruction: 415f4f49
    1da4:	5f4c5246 			@ <UNDEFINED> instruction: 5f4c5246
    1da8:	5346464f 	movtpl	r4, #26191	@ 0x664f
    1dac:	30205445 			@ <UNDEFINED> instruction: 30205445
    1db0:	55303278 			@ <UNDEFINED> instruction: 55303278
    1db4:	5047004c 			@ <UNDEFINED> instruction: 5047004c
    1db8:	4f5f4f49 			@ <UNDEFINED> instruction: 4f5f4f49
    1dbc:	45505954 			@ <UNDEFINED> instruction: 45505954
    1dc0:	444f5f52 			@ <UNDEFINED> instruction: 444f5f52
    1dc4:	30783020 			@ <UNDEFINED> instruction: 30783020
    1dc8:	75005531 			@ <UNDEFINED> instruction: 75005531
    1dcc:	5f747261 			@ <UNDEFINED> instruction: 5f747261
    1dd0:	65736162 			@ <UNDEFINED> instruction: 65736162
    1dd4:	505f5f00 			@ <UNDEFINED> instruction: 505f5f00
    1dd8:	49445254 			@ <UNDEFINED> instruction: 49445254
    1ddc:	545f4646 			@ <UNDEFINED> instruction: 545f4646
    1de0:	5f455059 			@ <UNDEFINED> instruction: 5f455059
    1de4:	6e69205f 			@ <UNDEFINED> instruction: 6e69205f
    1de8:	43520074 			@ <UNDEFINED> instruction: 43520074
    1dec:	48415f43 			@ <UNDEFINED> instruction: 48415f43
    1df0:	4e453142 			@ <UNDEFINED> instruction: 4e453142
    1df4:	4d445f52 			@ <UNDEFINED> instruction: 4d445f52
    1df8:	4e453241 			@ <UNDEFINED> instruction: 4e453241
    1dfc:	55312820 			@ <UNDEFINED> instruction: 55312820
    1e00:	3c3c204c 			@ <UNDEFINED> instruction: 3c3c204c
    1e04:	29323220 			@ <UNDEFINED> instruction: 29323220
    1e08:	415f5f00 			@ <UNDEFINED> instruction: 415f5f00
    1e0c:	415f4d52 			@ <UNDEFINED> instruction: 415f4d52
    1e10:	5f484352 			@ <UNDEFINED> instruction: 5f484352
    1e14:	5f415349 			@ <UNDEFINED> instruction: 5f415349
    1e18:	4d554854 			@ <UNDEFINED> instruction: 4d554854
    1e1c:	53550042 			@ <UNDEFINED> instruction: 53550042
    1e20:	5f545241 			@ <UNDEFINED> instruction: 5f545241
    1e24:	5f325243 			@ <UNDEFINED> instruction: 5f325243
    1e28:	454e494c 			@ <UNDEFINED> instruction: 454e494c
    1e2c:	3128204e 			@ <UNDEFINED> instruction: 3128204e
    1e30:	3c204c55 			@ <UNDEFINED> instruction: 3c204c55
    1e34:	3431203c 			@ <UNDEFINED> instruction: 3431203c
    1e38:	59530029 			@ <UNDEFINED> instruction: 59530029
    1e3c:	43495453 	movtmi	r5, #37971	@ 0x9453
    1e40:	41565f4b 			@ <UNDEFINED> instruction: 41565f4b
    1e44:	464f5f4c 			@ <UNDEFINED> instruction: 464f5f4c
    1e48:	54455346 			@ <UNDEFINED> instruction: 54455346
    1e4c:	30783020 			@ <UNDEFINED> instruction: 30783020
    1e50:	004c5538 			@ <UNDEFINED> instruction: 004c5538
    1e54:	52415355 			@ <UNDEFINED> instruction: 52415355
    1e58:	445f3154 			@ <UNDEFINED> instruction: 445f3154
    1e5c:	45522052 			@ <UNDEFINED> instruction: 45522052
    1e60:	28323347 			@ <UNDEFINED> instruction: 28323347
    1e64:	52415355 			@ <UNDEFINED> instruction: 52415355
    1e68:	425f3154 			@ <UNDEFINED> instruction: 425f3154
    1e6c:	2c455341 	mcrrcs	3, 4, r5, r5, cr1
    1e70:	41535520 			@ <UNDEFINED> instruction: 41535520
    1e74:	445f5452 			@ <UNDEFINED> instruction: 445f5452
    1e78:	464f5f52 			@ <UNDEFINED> instruction: 464f5f52
    1e7c:	54455346 			@ <UNDEFINED> instruction: 54455346
    1e80:	5f5f0029 			@ <UNDEFINED> instruction: 5f5f0029
    1e84:	5f4d5241 			@ <UNDEFINED> instruction: 5f4d5241
    1e88:	54414546 			@ <UNDEFINED> instruction: 54414546
    1e8c:	5f455255 			@ <UNDEFINED> instruction: 5f455255
    1e90:	4d54414d 			@ <UNDEFINED> instruction: 4d54414d
    1e94:	495f4c55 			@ <UNDEFINED> instruction: 495f4c55
    1e98:	0038544e 			@ <UNDEFINED> instruction: 0038544e
    1e9c:	49555f5f 			@ <UNDEFINED> instruction: 49555f5f
    1ea0:	5f38544e 			@ <UNDEFINED> instruction: 5f38544e
    1ea4:	45505954 			@ <UNDEFINED> instruction: 45505954
    1ea8:	75205f5f 			@ <UNDEFINED> instruction: 75205f5f
    1eac:	6769736e 			@ <UNDEFINED> instruction: 6769736e
    1eb0:	2064656e 			@ <UNDEFINED> instruction: 2064656e
    1eb4:	72616863 			@ <UNDEFINED> instruction: 72616863
    1eb8:	475f5f00 			@ <UNDEFINED> instruction: 475f5f00
    1ebc:	415f4343 			@ <UNDEFINED> instruction: 415f4343
    1ec0:	494d4f54 			@ <UNDEFINED> instruction: 494d4f54
    1ec4:	48535f43 			@ <UNDEFINED> instruction: 48535f43
    1ec8:	5f54524f 			@ <UNDEFINED> instruction: 5f54524f
    1ecc:	4b434f4c 			@ <UNDEFINED> instruction: 4b434f4c
    1ed0:	4552465f 			@ <UNDEFINED> instruction: 4552465f
    1ed4:	00322045 			@ <UNDEFINED> instruction: 00322045
    1ed8:	5f434352 			@ <UNDEFINED> instruction: 5f434352
    1edc:	47435353 	smlsldmi	r5, r3, r3, r3
    1ee0:	464f5f52 			@ <UNDEFINED> instruction: 464f5f52
    1ee4:	54455346 			@ <UNDEFINED> instruction: 54455346
    1ee8:	38783020 			@ <UNDEFINED> instruction: 38783020
    1eec:	004c5530 			@ <UNDEFINED> instruction: 004c5530
    1ef0:	54535953 			@ <UNDEFINED> instruction: 54535953
    1ef4:	5f4b4349 			@ <UNDEFINED> instruction: 5f4b4349
    1ef8:	4c525443 	mrrcmi	4, 4, r5, r2, cr3
    1efc:	46464f5f 			@ <UNDEFINED> instruction: 46464f5f
    1f00:	20544553 			@ <UNDEFINED> instruction: 20544553
    1f04:	30307830 			@ <UNDEFINED> instruction: 30307830
    1f08:	55004c55 			@ <UNDEFINED> instruction: 55004c55
    1f0c:	5f545241 			@ <UNDEFINED> instruction: 5f545241
    1f10:	5f525245 			@ <UNDEFINED> instruction: 5f525245
    1f14:	4d415246 			@ <UNDEFINED> instruction: 4d415246
    1f18:	00474e49 			@ <UNDEFINED> instruction: 00474e49
    1f1c:	53555f5f 			@ <UNDEFINED> instruction: 53555f5f
    1f20:	55434341 			@ <UNDEFINED> instruction: 55434341
    1f24:	42465f4d 			@ <UNDEFINED> instruction: 42465f4d
    1f28:	5f5f5449 			@ <UNDEFINED> instruction: 5f5f5449
    1f2c:	5f003820 			@ <UNDEFINED> instruction: 5f003820
    1f30:	4343475f 	movtmi	r4, #14175	@ 0x375f
    1f34:	4f54415f 			@ <UNDEFINED> instruction: 4f54415f
    1f38:	5f43494d 			@ <UNDEFINED> instruction: 5f43494d
    1f3c:	54534554 			@ <UNDEFINED> instruction: 54534554
    1f40:	444e415f 			@ <UNDEFINED> instruction: 444e415f
    1f44:	5445535f 			@ <UNDEFINED> instruction: 5445535f
    1f48:	5552545f 			@ <UNDEFINED> instruction: 5552545f
    1f4c:	4c415645 	mcrrmi	6, 4, r5, r1, cr5
    1f50:	45003120 			@ <UNDEFINED> instruction: 45003120
    1f54:	726f7272 			@ <UNDEFINED> instruction: 726f7272
    1f58:	6e61485f 			@ <UNDEFINED> instruction: 6e61485f
    1f5c:	72656c64 			@ <UNDEFINED> instruction: 72656c64
    1f60:	41535500 			@ <UNDEFINED> instruction: 41535500
    1f64:	435f5452 			@ <UNDEFINED> instruction: 435f5452
    1f68:	4f5f3352 			@ <UNDEFINED> instruction: 4f5f3352
    1f6c:	45534646 			@ <UNDEFINED> instruction: 45534646
    1f70:	78302054 			@ <UNDEFINED> instruction: 78302054
    1f74:	4c553431 	mrrcmi	4, 3, r3, r5, cr1
    1f78:	4c5f5f00 	mrrcmi	15, 0, r5, pc, cr0	@ <UNPREDICTABLE>
    1f7c:	55434341 			@ <UNDEFINED> instruction: 55434341
    1f80:	42465f4d 			@ <UNDEFINED> instruction: 42465f4d
    1f84:	5f5f5449 			@ <UNDEFINED> instruction: 5f5f5449
    1f88:	00313320 			@ <UNDEFINED> instruction: 00313320
    1f8c:	4f495047 			@ <UNDEFINED> instruction: 4f495047
    1f90:	444f4d5f 			@ <UNDEFINED> instruction: 444f4d5f
    1f94:	415f5245 			@ <UNDEFINED> instruction: 415f5245
    1f98:	4f4c414e 			@ <UNDEFINED> instruction: 4f4c414e
    1f9c:	78302047 			@ <UNDEFINED> instruction: 78302047
    1fa0:	00553330 			@ <UNDEFINED> instruction: 00553330
    1fa4:	52415355 			@ <UNDEFINED> instruction: 52415355
    1fa8:	52435f54 			@ <UNDEFINED> instruction: 52435f54
    1fac:	464f5f32 			@ <UNDEFINED> instruction: 464f5f32
    1fb0:	54455346 			@ <UNDEFINED> instruction: 54455346
    1fb4:	31783020 			@ <UNDEFINED> instruction: 31783020
    1fb8:	004c5530 			@ <UNDEFINED> instruction: 004c5530
    1fbc:	4c465f5f 	mcrrmi	15, 5, r5, r6, cr15
    1fc0:	5f323354 			@ <UNDEFINED> instruction: 5f323354
    1fc4:	5f534148 			@ <UNDEFINED> instruction: 5f534148
    1fc8:	45495551 			@ <UNDEFINED> instruction: 45495551
    1fcc:	414e5f54 			@ <UNDEFINED> instruction: 414e5f54
    1fd0:	205f5f4e 			@ <UNDEFINED> instruction: 205f5f4e
    1fd4:	41550031 			@ <UNDEFINED> instruction: 41550031
    1fd8:	505f5452 			@ <UNDEFINED> instruction: 505f5452
    1fdc:	54495241 			@ <UNDEFINED> instruction: 54495241
    1fe0:	444f5f59 			@ <UNDEFINED> instruction: 444f5f59
    1fe4:	55322044 			@ <UNDEFINED> instruction: 55322044
    1fe8:	4c5f5f00 	mrrcmi	15, 0, r5, pc, cr0	@ <UNPREDICTABLE>
    1fec:	5f4c4244 			@ <UNDEFINED> instruction: 5f4c4244
    1ff0:	5f534148 			@ <UNDEFINED> instruction: 5f534148
    1ff4:	49464e49 			@ <UNDEFINED> instruction: 49464e49
    1ff8:	5954494e 			@ <UNDEFINED> instruction: 5954494e
    1ffc:	31205f5f 			@ <UNDEFINED> instruction: 31205f5f
    2000:	43435200 	movtmi	r5, #12800	@ 0x3200
    2004:	4248415f 			@ <UNDEFINED> instruction: 4248415f
    2008:	524e4532 			@ <UNDEFINED> instruction: 524e4532
    200c:	47455220 			@ <UNDEFINED> instruction: 47455220
    2010:	52283233 			@ <UNDEFINED> instruction: 52283233
    2014:	425f4343 			@ <UNDEFINED> instruction: 425f4343
    2018:	2c455341 	mcrrcs	3, 4, r5, r5, cr1
    201c:	43435220 	movtmi	r5, #12832	@ 0x3220
    2020:	4248415f 			@ <UNDEFINED> instruction: 4248415f
    2024:	524e4532 			@ <UNDEFINED> instruction: 524e4532
    2028:	46464f5f 			@ <UNDEFINED> instruction: 46464f5f
    202c:	29544553 			@ <UNDEFINED> instruction: 29544553
    2030:	545f5f00 			@ <UNDEFINED> instruction: 545f5f00
    2034:	42465f41 			@ <UNDEFINED> instruction: 42465f41
    2038:	5f5f5449 			@ <UNDEFINED> instruction: 5f5f5449
    203c:	00333620 			@ <UNDEFINED> instruction: 00333620
    2040:	544e4955 			@ <UNDEFINED> instruction: 544e4955
    2044:	4d5f3631 			@ <UNDEFINED> instruction: 4d5f3631
    2048:	5f205841 			@ <UNDEFINED> instruction: 5f205841
    204c:	4e49555f 			@ <UNDEFINED> instruction: 4e49555f
    2050:	5f363154 			@ <UNDEFINED> instruction: 5f363154
    2054:	5f58414d 			@ <UNDEFINED> instruction: 5f58414d
    2058:	5355005f 			@ <UNDEFINED> instruction: 5355005f
    205c:	5f545241 			@ <UNDEFINED> instruction: 5f545241
    2060:	5f315243 			@ <UNDEFINED> instruction: 5f315243
    2064:	45494550 			@ <UNDEFINED> instruction: 45494550
    2068:	55312820 			@ <UNDEFINED> instruction: 55312820
    206c:	3c3c204c 			@ <UNDEFINED> instruction: 3c3c204c
    2070:	00293820 			@ <UNDEFINED> instruction: 00293820
    2074:	4c465f5f 	mcrrmi	15, 5, r5, r6, cr15
    2078:	58323354 			@ <UNDEFINED> instruction: 58323354
    207c:	58414d5f 			@ <UNDEFINED> instruction: 58414d5f
    2080:	5f30315f 			@ <UNDEFINED> instruction: 5f30315f
    2084:	5f505845 			@ <UNDEFINED> instruction: 5f505845
    2088:	3033205f 			@ <UNDEFINED> instruction: 3033205f
    208c:	53550038 			@ <UNDEFINED> instruction: 53550038
    2090:	31545241 			@ <UNDEFINED> instruction: 31545241
    2094:	3352435f 			@ <UNDEFINED> instruction: 3352435f
    2098:	47455220 			@ <UNDEFINED> instruction: 47455220
    209c:	55283233 			@ <UNDEFINED> instruction: 55283233
    20a0:	54524153 			@ <UNDEFINED> instruction: 54524153
    20a4:	41425f31 			@ <UNDEFINED> instruction: 41425f31
    20a8:	202c4553 			@ <UNDEFINED> instruction: 202c4553
    20ac:	52415355 			@ <UNDEFINED> instruction: 52415355
    20b0:	52435f54 			@ <UNDEFINED> instruction: 52435f54
    20b4:	464f5f33 			@ <UNDEFINED> instruction: 464f5f33
    20b8:	54455346 			@ <UNDEFINED> instruction: 54455346
    20bc:	5f5f0029 			@ <UNDEFINED> instruction: 5f5f0029
    20c0:	5f4d5241 			@ <UNDEFINED> instruction: 5f4d5241
    20c4:	48435241 			@ <UNDEFINED> instruction: 48435241
    20c8:	5458455f 			@ <UNDEFINED> instruction: 5458455f
    20cc:	4944495f 			@ <UNDEFINED> instruction: 4944495f
    20d0:	205f5f56 			@ <UNDEFINED> instruction: 205f5f56
    20d4:	63720031 			@ <UNDEFINED> instruction: 63720031
    20d8:	6e655f63 			@ <UNDEFINED> instruction: 6e655f63
    20dc:	7469625f 			@ <UNDEFINED> instruction: 7469625f
    20e0:	4e495500 			@ <UNDEFINED> instruction: 4e495500
    20e4:	58414d54 			@ <UNDEFINED> instruction: 58414d54
    20e8:	58414d5f 			@ <UNDEFINED> instruction: 58414d5f
    20ec:	555f5f20 			@ <UNDEFINED> instruction: 555f5f20
    20f0:	4d544e49 			@ <UNDEFINED> instruction: 4d544e49
    20f4:	4d5f5841 			@ <UNDEFINED> instruction: 4d5f5841
    20f8:	5f5f5841 			@ <UNDEFINED> instruction: 5f5f5841
    20fc:	535f5f00 			@ <UNDEFINED> instruction: 535f5f00
    2100:	415f4749 			@ <UNDEFINED> instruction: 415f4749
    2104:	494d4f54 			@ <UNDEFINED> instruction: 494d4f54
    2108:	494d5f43 			@ <UNDEFINED> instruction: 494d5f43
    210c:	205f5f4e 			@ <UNDEFINED> instruction: 205f5f4e
    2110:	5f5f2d28 			@ <UNDEFINED> instruction: 5f5f2d28
    2114:	5f474953 			@ <UNDEFINED> instruction: 5f474953
    2118:	4d4f5441 			@ <UNDEFINED> instruction: 4d4f5441
    211c:	4d5f4349 			@ <UNDEFINED> instruction: 4d5f4349
    2120:	5f5f5841 			@ <UNDEFINED> instruction: 5f5f5841
    2124:	31202d20 			@ <UNDEFINED> instruction: 31202d20
    2128:	53550029 			@ <UNDEFINED> instruction: 53550029
    212c:	36545241 			@ <UNDEFINED> instruction: 36545241
    2130:	2052535f 			@ <UNDEFINED> instruction: 2052535f
    2134:	33474552 	movtcc	r4, #30034	@ 0x7552
    2138:	53552832 			@ <UNDEFINED> instruction: 53552832
    213c:	36545241 			@ <UNDEFINED> instruction: 36545241
    2140:	5341425f 	movtpl	r4, #4703	@ 0x125f
    2144:	55202c45 			@ <UNDEFINED> instruction: 55202c45
    2148:	54524153 			@ <UNDEFINED> instruction: 54524153
    214c:	5f52535f 			@ <UNDEFINED> instruction: 5f52535f
    2150:	5346464f 	movtpl	r4, #26191	@ 0x664f
    2154:	00295445 			@ <UNDEFINED> instruction: 00295445
    2158:	49555f5f 			@ <UNDEFINED> instruction: 49555f5f
    215c:	4c5f544e 	mrrcmi	4, 4, r5, pc, cr14	@ <UNPREDICTABLE>
    2160:	54534145 			@ <UNDEFINED> instruction: 54534145
    2164:	414d5f38 			@ <UNDEFINED> instruction: 414d5f38
    2168:	205f5f58 			@ <UNDEFINED> instruction: 205f5f58
    216c:	66667830 			@ <UNDEFINED> instruction: 66667830
    2170:	53425f00 	movtpl	r5, #12032	@ 0x2f00
    2174:	43575f44 			@ <UNDEFINED> instruction: 43575f44
    2178:	5f524148 			@ <UNDEFINED> instruction: 5f524148
    217c:	00205f54 			@ <UNDEFINED> instruction: 00205f54
    2180:	52415355 			@ <UNDEFINED> instruction: 52415355
    2184:	425f3154 			@ <UNDEFINED> instruction: 425f3154
    2188:	52205252 			@ <UNDEFINED> instruction: 52205252
    218c:	32334745 			@ <UNDEFINED> instruction: 32334745
    2190:	41535528 			@ <UNDEFINED> instruction: 41535528
    2194:	5f315452 			@ <UNDEFINED> instruction: 5f315452
    2198:	45534142 			@ <UNDEFINED> instruction: 45534142
    219c:	5355202c 			@ <UNDEFINED> instruction: 5355202c
    21a0:	5f545241 			@ <UNDEFINED> instruction: 5f545241
    21a4:	5f525242 			@ <UNDEFINED> instruction: 5f525242
    21a8:	5346464f 	movtpl	r4, #26191	@ 0x664f
    21ac:	00295445 			@ <UNDEFINED> instruction: 00295445
    21b0:	5f434352 			@ <UNDEFINED> instruction: 5f434352
    21b4:	31424841 			@ <UNDEFINED> instruction: 31424841
    21b8:	52545352 			@ <UNDEFINED> instruction: 52545352
    21bc:	47455220 			@ <UNDEFINED> instruction: 47455220
    21c0:	52283233 			@ <UNDEFINED> instruction: 52283233
    21c4:	425f4343 			@ <UNDEFINED> instruction: 425f4343
    21c8:	2c455341 	mcrrcs	3, 4, r5, r5, cr1
    21cc:	43435220 	movtmi	r5, #12832	@ 0x3220
    21d0:	4248415f 			@ <UNDEFINED> instruction: 4248415f
    21d4:	54535231 			@ <UNDEFINED> instruction: 54535231
    21d8:	464f5f52 			@ <UNDEFINED> instruction: 464f5f52
    21dc:	54455346 			@ <UNDEFINED> instruction: 54455346
    21e0:	4e490029 			@ <UNDEFINED> instruction: 4e490029
    21e4:	5f363154 			@ <UNDEFINED> instruction: 5f363154
    21e8:	2058414d 			@ <UNDEFINED> instruction: 2058414d
    21ec:	4e495f5f 			@ <UNDEFINED> instruction: 4e495f5f
    21f0:	5f363154 			@ <UNDEFINED> instruction: 5f363154
    21f4:	5f58414d 			@ <UNDEFINED> instruction: 5f58414d
    21f8:	5f5f005f 			@ <UNDEFINED> instruction: 5f5f005f
    21fc:	465f5046 			@ <UNDEFINED> instruction: 465f5046
    2200:	5f545341 			@ <UNDEFINED> instruction: 5f545341
    2204:	46414d46 			@ <UNDEFINED> instruction: 46414d46
    2208:	5f003120 			@ <UNDEFINED> instruction: 5f003120
    220c:	544c465f 			@ <UNDEFINED> instruction: 544c465f
    2210:	5f583233 			@ <UNDEFINED> instruction: 5f583233
    2214:	495f5349 			@ <UNDEFINED> instruction: 495f5349
    2218:	365f4345 			@ <UNDEFINED> instruction: 365f4345
    221c:	39353530 			@ <UNDEFINED> instruction: 39353530
    2220:	31205f5f 			@ <UNDEFINED> instruction: 31205f5f
    2224:	65707300 			@ <UNDEFINED> instruction: 65707300
    2228:	47006465 			@ <UNDEFINED> instruction: 47006465
    222c:	424f4950 			@ <UNDEFINED> instruction: 424f4950
    2230:	5341425f 	movtpl	r4, #4703	@ 0x125f
    2234:	78302045 			@ <UNDEFINED> instruction: 78302045
    2238:	32303034 			@ <UNDEFINED> instruction: 32303034
    223c:	30303430 			@ <UNDEFINED> instruction: 30303430
    2240:	55004c55 			@ <UNDEFINED> instruction: 55004c55
    2244:	33544e49 			@ <UNDEFINED> instruction: 33544e49
    2248:	414d5f32 			@ <UNDEFINED> instruction: 414d5f32
    224c:	53550058 			@ <UNDEFINED> instruction: 53550058
    2250:	32545241 			@ <UNDEFINED> instruction: 32545241
    2254:	3352435f 			@ <UNDEFINED> instruction: 3352435f
    2258:	47455220 			@ <UNDEFINED> instruction: 47455220
    225c:	55283233 			@ <UNDEFINED> instruction: 55283233
    2260:	54524153 			@ <UNDEFINED> instruction: 54524153
    2264:	41425f32 			@ <UNDEFINED> instruction: 41425f32
    2268:	202c4553 			@ <UNDEFINED> instruction: 202c4553
    226c:	52415355 			@ <UNDEFINED> instruction: 52415355
    2270:	52435f54 			@ <UNDEFINED> instruction: 52435f54
    2274:	464f5f33 			@ <UNDEFINED> instruction: 464f5f33
    2278:	54455346 			@ <UNDEFINED> instruction: 54455346
    227c:	5f5f0029 			@ <UNDEFINED> instruction: 5f5f0029
    2280:	5f544e49 			@ <UNDEFINED> instruction: 5f544e49
    2284:	5341454c 	movtpl	r4, #5452	@ 0x154c
    2288:	5f363154 			@ <UNDEFINED> instruction: 5f363154
    228c:	54444957 			@ <UNDEFINED> instruction: 54444957
    2290:	205f5f48 			@ <UNDEFINED> instruction: 205f5f48
    2294:	5f003631 			@ <UNDEFINED> instruction: 5f003631
    2298:	4345445f 	movtmi	r4, #21599	@ 0x545f
    229c:	4156455f 			@ <UNDEFINED> instruction: 4156455f
    22a0:	454d5f4c 			@ <UNDEFINED> instruction: 454d5f4c
    22a4:	444f4854 			@ <UNDEFINED> instruction: 444f4854
    22a8:	32205f5f 			@ <UNDEFINED> instruction: 32205f5f
    22ac:	415f5f00 			@ <UNDEFINED> instruction: 415f5f00
    22b0:	465f4d52 			@ <UNDEFINED> instruction: 465f4d52
    22b4:	55544145 			@ <UNDEFINED> instruction: 55544145
    22b8:	465f4552 			@ <UNDEFINED> instruction: 465f4552
    22bc:	5f363150 			@ <UNDEFINED> instruction: 5f363150
    22c0:	004c4d46 			@ <UNDEFINED> instruction: 004c4d46
    22c4:	52415355 			@ <UNDEFINED> instruction: 52415355
    22c8:	52535f54 			@ <UNDEFINED> instruction: 52535f54
    22cc:	4558545f 			@ <UNDEFINED> instruction: 4558545f
    22d0:	55312820 			@ <UNDEFINED> instruction: 55312820
    22d4:	3c3c204c 			@ <UNDEFINED> instruction: 3c3c204c
    22d8:	00293720 			@ <UNDEFINED> instruction: 00293720
    22dc:	54737953 			@ <UNDEFINED> instruction: 54737953
    22e0:	5f6b6369 			@ <UNDEFINED> instruction: 5f6b6369
    22e4:	616c6544 			@ <UNDEFINED> instruction: 616c6544
    22e8:	00734d79 			@ <UNDEFINED> instruction: 00734d79
    22ec:	31544e49 			@ <UNDEFINED> instruction: 31544e49
    22f0:	494d5f36 			@ <UNDEFINED> instruction: 494d5f36
    22f4:	2d28204e 			@ <UNDEFINED> instruction: 2d28204e
    22f8:	31544e49 			@ <UNDEFINED> instruction: 31544e49
    22fc:	414d5f36 			@ <UNDEFINED> instruction: 414d5f36
    2300:	202d2058 			@ <UNDEFINED> instruction: 202d2058
    2304:	5f002931 			@ <UNDEFINED> instruction: 5f002931
    2308:	4653555f 			@ <UNDEFINED> instruction: 4653555f
    230c:	54434152 			@ <UNDEFINED> instruction: 54434152
    2310:	5350455f 			@ <UNDEFINED> instruction: 5350455f
    2314:	4e4f4c49 			@ <UNDEFINED> instruction: 4e4f4c49
    2318:	30205f5f 			@ <UNDEFINED> instruction: 30205f5f
    231c:	2d503178 			@ <UNDEFINED> instruction: 2d503178
    2320:	52485538 			@ <UNDEFINED> instruction: 52485538
    2324:	4c554e00 	mrrcmi	14, 0, r4, r5, cr0
    2328:	2828204c 			@ <UNDEFINED> instruction: 2828204c
    232c:	64696f76 			@ <UNDEFINED> instruction: 64696f76
    2330:	30292a20 			@ <UNDEFINED> instruction: 30292a20
    2334:	43520029 			@ <UNDEFINED> instruction: 43520029
    2338:	48415f43 			@ <UNDEFINED> instruction: 48415f43
    233c:	4e453142 			@ <UNDEFINED> instruction: 4e453142
    2340:	45522052 			@ <UNDEFINED> instruction: 45522052
    2344:	28323347 			@ <UNDEFINED> instruction: 28323347
    2348:	5f434352 			@ <UNDEFINED> instruction: 5f434352
    234c:	45534142 			@ <UNDEFINED> instruction: 45534142
    2350:	4352202c 			@ <UNDEFINED> instruction: 4352202c
    2354:	48415f43 			@ <UNDEFINED> instruction: 48415f43
    2358:	4e453142 			@ <UNDEFINED> instruction: 4e453142
    235c:	464f5f52 			@ <UNDEFINED> instruction: 464f5f52
    2360:	54455346 			@ <UNDEFINED> instruction: 54455346
    2364:	43520029 			@ <UNDEFINED> instruction: 43520029
    2368:	46435f43 			@ <UNDEFINED> instruction: 46435f43
    236c:	535f5247 			@ <UNDEFINED> instruction: 535f5247
    2370:	4d5f5357 			@ <UNDEFINED> instruction: 4d5f5357
    2374:	204b5341 			@ <UNDEFINED> instruction: 204b5341
    2378:	33783028 			@ <UNDEFINED> instruction: 33783028
    237c:	3c204c55 			@ <UNDEFINED> instruction: 3c204c55
    2380:	2932203c 			@ <UNDEFINED> instruction: 2932203c
    2384:	555f5f00 			@ <UNDEFINED> instruction: 555f5f00
    2388:	41524653 			@ <UNDEFINED> instruction: 41524653
    238c:	465f5443 			@ <UNDEFINED> instruction: 465f5443
    2390:	5f544942 			@ <UNDEFINED> instruction: 5f544942
    2394:	0038205f 			@ <UNDEFINED> instruction: 0038205f
    2398:	4c4c5f5f 	mcrrmi	15, 5, r5, ip, cr15
    239c:	55434341 			@ <UNDEFINED> instruction: 55434341
    23a0:	414d5f4d 			@ <UNDEFINED> instruction: 414d5f4d
    23a4:	205f5f58 			@ <UNDEFINED> instruction: 205f5f58
    23a8:	46375830 			@ <UNDEFINED> instruction: 46375830
    23ac:	46464646 			@ <UNDEFINED> instruction: 46464646
    23b0:	46464646 			@ <UNDEFINED> instruction: 46464646
    23b4:	46464646 			@ <UNDEFINED> instruction: 46464646
    23b8:	2d504646 			@ <UNDEFINED> instruction: 2d504646
    23bc:	4c4c3133 	mcrrmi	1, 3, r3, ip, cr3
    23c0:	5f5f004b 			@ <UNDEFINED> instruction: 5f5f004b
    23c4:	6465656e 			@ <UNDEFINED> instruction: 6465656e
    23c8:	4c554e5f 	mrrcmi	14, 5, r4, r5, cr15
    23cc:	5f5f004c 			@ <UNDEFINED> instruction: 5f5f004c
    23d0:	52455355 			@ <UNDEFINED> instruction: 52455355
    23d4:	42414c5f 			@ <UNDEFINED> instruction: 42414c5f
    23d8:	505f4c45 			@ <UNDEFINED> instruction: 505f4c45
    23dc:	49464552 			@ <UNDEFINED> instruction: 49464552
    23e0:	205f5f58 			@ <UNDEFINED> instruction: 205f5f58
    23e4:	555f5f00 			@ <UNDEFINED> instruction: 555f5f00
    23e8:	36544e49 			@ <UNDEFINED> instruction: 36544e49
    23ec:	414d5f34 			@ <UNDEFINED> instruction: 414d5f34
    23f0:	205f5f58 			@ <UNDEFINED> instruction: 205f5f58
    23f4:	66667830 			@ <UNDEFINED> instruction: 66667830
    23f8:	66666666 			@ <UNDEFINED> instruction: 66666666
    23fc:	66666666 			@ <UNDEFINED> instruction: 66666666
    2400:	66666666 			@ <UNDEFINED> instruction: 66666666
    2404:	4c556666 	mrrcmi	6, 6, r6, r5, cr6
    2408:	4e49004c 			@ <UNDEFINED> instruction: 4e49004c
    240c:	41465f54 			@ <UNDEFINED> instruction: 41465f54
    2410:	5f385453 			@ <UNDEFINED> instruction: 5f385453
    2414:	004e494d 			@ <UNDEFINED> instruction: 004e494d
    2418:	5f544e49 			@ <UNDEFINED> instruction: 5f544e49
    241c:	54534146 			@ <UNDEFINED> instruction: 54534146
    2420:	414d5f38 			@ <UNDEFINED> instruction: 414d5f38
    2424:	5f5f2058 			@ <UNDEFINED> instruction: 5f5f2058
    2428:	5f544e49 			@ <UNDEFINED> instruction: 5f544e49
    242c:	54534146 			@ <UNDEFINED> instruction: 54534146
    2430:	414d5f38 			@ <UNDEFINED> instruction: 414d5f38
    2434:	005f5f58 			@ <UNDEFINED> instruction: 005f5f58
    2438:	52415355 			@ <UNDEFINED> instruction: 52415355
    243c:	52435f54 			@ <UNDEFINED> instruction: 52435f54
    2440:	57525f31 	smmlarpl	r2, r1, pc, r5	@ <UNPREDICTABLE>
    2444:	31282055 	qsubcc	r2, r5, r8
    2448:	3c204c55 			@ <UNDEFINED> instruction: 3c204c55
    244c:	2931203c 			@ <UNDEFINED> instruction: 2931203c
    2450:	555f5f00 			@ <UNDEFINED> instruction: 555f5f00
    2454:	33544e49 			@ <UNDEFINED> instruction: 33544e49
    2458:	414d5f32 			@ <UNDEFINED> instruction: 414d5f32
    245c:	205f5f58 			@ <UNDEFINED> instruction: 205f5f58
    2460:	66667830 			@ <UNDEFINED> instruction: 66667830
    2464:	66666666 			@ <UNDEFINED> instruction: 66666666
    2468:	4c556666 	mrrcmi	6, 6, r6, r5, cr6
    246c:	49504700 			@ <UNDEFINED> instruction: 49504700
    2470:	46415f4f 			@ <UNDEFINED> instruction: 46415f4f
    2474:	30203131 			@ <UNDEFINED> instruction: 30203131
    2478:	55423078 			@ <UNDEFINED> instruction: 55423078
    247c:	535f5f00 			@ <UNDEFINED> instruction: 535f5f00
    2480:	5f434454 			@ <UNDEFINED> instruction: 5f434454
    2484:	53524556 			@ <UNDEFINED> instruction: 53524556
    2488:	5f4e4f49 			@ <UNDEFINED> instruction: 5f4e4f49
    248c:	3032205f 			@ <UNDEFINED> instruction: 3032205f
    2490:	32313131 			@ <UNDEFINED> instruction: 32313131
    2494:	5f5f004c 			@ <UNDEFINED> instruction: 5f5f004c
    2498:	5f544e49 			@ <UNDEFINED> instruction: 5f544e49
    249c:	5341454c 	movtpl	r4, #5452	@ 0x154c
    24a0:	4d5f3854 			@ <UNDEFINED> instruction: 4d5f3854
    24a4:	5f5f5841 			@ <UNDEFINED> instruction: 5f5f5841
    24a8:	37783020 			@ <UNDEFINED> instruction: 37783020
    24ac:	53550066 			@ <UNDEFINED> instruction: 53550066
    24b0:	5f545241 			@ <UNDEFINED> instruction: 5f545241
    24b4:	4f5f5253 			@ <UNDEFINED> instruction: 4f5f5253
    24b8:	28204552 			@ <UNDEFINED> instruction: 28204552
    24bc:	204c5531 			@ <UNDEFINED> instruction: 204c5531
    24c0:	33203c3c 			@ <UNDEFINED> instruction: 33203c3c
    24c4:	5f5f0029 			@ <UNDEFINED> instruction: 5f5f0029
    24c8:	5f515355 			@ <UNDEFINED> instruction: 5f515355
    24cc:	54494246 			@ <UNDEFINED> instruction: 54494246
    24d0:	33205f5f 			@ <UNDEFINED> instruction: 33205f5f
    24d4:	5f5f0032 			@ <UNDEFINED> instruction: 5f5f0032
    24d8:	5f4d5241 			@ <UNDEFINED> instruction: 5f4d5241
    24dc:	54414546 			@ <UNDEFINED> instruction: 54414546
    24e0:	5f455255 			@ <UNDEFINED> instruction: 5f455255
    24e4:	54494251 			@ <UNDEFINED> instruction: 54494251
    24e8:	5f003120 			@ <UNDEFINED> instruction: 5f003120
    24ec:	4d52415f 			@ <UNDEFINED> instruction: 4d52415f
    24f0:	4145465f 			@ <UNDEFINED> instruction: 4145465f
    24f4:	45525554 			@ <UNDEFINED> instruction: 45525554
    24f8:	5a4c435f 			@ <UNDEFINED> instruction: 5a4c435f
    24fc:	5f003120 			@ <UNDEFINED> instruction: 5f003120
    2500:	4f54415f 			@ <UNDEFINED> instruction: 4f54415f
    2504:	5f43494d 			@ <UNDEFINED> instruction: 5f43494d
    2508:	55514341 			@ <UNDEFINED> instruction: 55514341
    250c:	20455249 			@ <UNDEFINED> instruction: 20455249
    2510:	5f5f0032 			@ <UNDEFINED> instruction: 5f5f0032
    2514:	5f4d5241 			@ <UNDEFINED> instruction: 5f4d5241
    2518:	54414546 			@ <UNDEFINED> instruction: 54414546
    251c:	5f455255 			@ <UNDEFINED> instruction: 5f455255
    2520:	504d4f43 			@ <UNDEFINED> instruction: 504d4f43
    2524:	0058454c 			@ <UNDEFINED> instruction: 0058454c
    2528:	4f495047 			@ <UNDEFINED> instruction: 4f495047
    252c:	55505f41 			@ <UNDEFINED> instruction: 55505f41
    2530:	20524450 			@ <UNDEFINED> instruction: 20524450
    2534:	33474552 	movtcc	r4, #30034	@ 0x7552
    2538:	50472832 			@ <UNDEFINED> instruction: 50472832
    253c:	5f414f49 			@ <UNDEFINED> instruction: 5f414f49
    2540:	45534142 			@ <UNDEFINED> instruction: 45534142
    2544:	5047202c 			@ <UNDEFINED> instruction: 5047202c
    2548:	505f4f49 			@ <UNDEFINED> instruction: 505f4f49
    254c:	52445055 			@ <UNDEFINED> instruction: 52445055
    2550:	46464f5f 			@ <UNDEFINED> instruction: 46464f5f
    2554:	29544553 			@ <UNDEFINED> instruction: 29544553
    2558:	43435200 	movtmi	r5, #12800	@ 0x3200
    255c:	4250415f 			@ <UNDEFINED> instruction: 4250415f
    2560:	524e4532 			@ <UNDEFINED> instruction: 524e4532
    2564:	4153555f 			@ <UNDEFINED> instruction: 4153555f
    2568:	45365452 			@ <UNDEFINED> instruction: 45365452
    256c:	3128204e 			@ <UNDEFINED> instruction: 3128204e
    2570:	3c204c55 			@ <UNDEFINED> instruction: 3c204c55
    2574:	2935203c 			@ <UNDEFINED> instruction: 2935203c
    2578:	41535500 			@ <UNDEFINED> instruction: 41535500
    257c:	435f5452 			@ <UNDEFINED> instruction: 435f5452
    2580:	435f3352 			@ <UNDEFINED> instruction: 435f3352
    2584:	20455354 			@ <UNDEFINED> instruction: 20455354
    2588:	4c553128 	mrrcmi	1, 2, r3, r5, cr8
    258c:	203c3c20 			@ <UNDEFINED> instruction: 203c3c20
    2590:	5f002939 			@ <UNDEFINED> instruction: 5f002939
    2594:	4d52415f 			@ <UNDEFINED> instruction: 4d52415f
    2598:	5a49535f 			@ <UNDEFINED> instruction: 5a49535f
    259c:	5f464f45 			@ <UNDEFINED> instruction: 5f464f45
    25a0:	41484357 			@ <UNDEFINED> instruction: 41484357
    25a4:	20545f52 			@ <UNDEFINED> instruction: 20545f52
    25a8:	5f5f0034 			@ <UNDEFINED> instruction: 5f5f0034
    25ac:	33544c46 			@ <UNDEFINED> instruction: 33544c46
    25b0:	4d5f5832 			@ <UNDEFINED> instruction: 4d5f5832
    25b4:	455f5841 			@ <UNDEFINED> instruction: 455f5841
    25b8:	5f5f5058 			@ <UNDEFINED> instruction: 5f5f5058
    25bc:	32303120 			@ <UNDEFINED> instruction: 32303120
    25c0:	5f5f0034 			@ <UNDEFINED> instruction: 5f5f0034
    25c4:	544e4955 			@ <UNDEFINED> instruction: 544e4955
    25c8:	41454c5f 			@ <UNDEFINED> instruction: 41454c5f
    25cc:	32335453 			@ <UNDEFINED> instruction: 32335453
    25d0:	58414d5f 			@ <UNDEFINED> instruction: 58414d5f
    25d4:	30205f5f 			@ <UNDEFINED> instruction: 30205f5f
    25d8:	66666678 			@ <UNDEFINED> instruction: 66666678
    25dc:	66666666 			@ <UNDEFINED> instruction: 66666666
    25e0:	004c5566 			@ <UNDEFINED> instruction: 004c5566
    25e4:	42445f5f 			@ <UNDEFINED> instruction: 42445f5f
    25e8:	50455f4c 			@ <UNDEFINED> instruction: 50455f4c
    25ec:	4f4c4953 			@ <UNDEFINED> instruction: 4f4c4953
    25f0:	205f5f4e 			@ <UNDEFINED> instruction: 205f5f4e
    25f4:	6f642828 			@ <UNDEFINED> instruction: 6f642828
    25f8:	656c6275 			@ <UNDEFINED> instruction: 656c6275
    25fc:	322e3229 			@ <UNDEFINED> instruction: 322e3229
    2600:	34343032 			@ <UNDEFINED> instruction: 34343032
    2604:	39343036 			@ <UNDEFINED> instruction: 39343036
    2608:	33303532 			@ <UNDEFINED> instruction: 33303532
    260c:	65313331 			@ <UNDEFINED> instruction: 65313331
    2610:	4c36312d 			@ <UNDEFINED> instruction: 4c36312d
    2614:	4e490029 			@ <UNDEFINED> instruction: 4e490029
    2618:	41465f54 			@ <UNDEFINED> instruction: 41465f54
    261c:	5f385453 			@ <UNDEFINED> instruction: 5f385453
    2620:	204e494d 			@ <UNDEFINED> instruction: 204e494d
    2624:	4e492d28 			@ <UNDEFINED> instruction: 4e492d28
    2628:	41465f54 			@ <UNDEFINED> instruction: 41465f54
    262c:	5f385453 			@ <UNDEFINED> instruction: 5f385453
    2630:	2058414d 			@ <UNDEFINED> instruction: 2058414d
    2634:	2931202d 			@ <UNDEFINED> instruction: 2931202d
    2638:	4c5f5f00 	mrrcmi	15, 0, r5, pc, cr0	@ <UNPREDICTABLE>
    263c:	43415246 	movtmi	r5, #4678	@ 0x1246
    2640:	494d5f54 			@ <UNDEFINED> instruction: 494d5f54
    2644:	205f5f4e 			@ <UNDEFINED> instruction: 205f5f4e
    2648:	2e302d28 			@ <UNDEFINED> instruction: 2e302d28
    264c:	2d524c35 			@ <UNDEFINED> instruction: 2d524c35
    2650:	4c352e30 			@ <UNDEFINED> instruction: 4c352e30
    2654:	5f002952 			@ <UNDEFINED> instruction: 5f002952
    2658:	544e495f 			@ <UNDEFINED> instruction: 544e495f
    265c:	41454c5f 			@ <UNDEFINED> instruction: 41454c5f
    2660:	34365453 			@ <UNDEFINED> instruction: 34365453
    2664:	4449575f 			@ <UNDEFINED> instruction: 4449575f
    2668:	5f5f4854 			@ <UNDEFINED> instruction: 5f5f4854
    266c:	00343620 			@ <UNDEFINED> instruction: 00343620
    2670:	4c465f5f 	mcrrmi	15, 5, r5, r6, cr15
    2674:	41485f54 			@ <UNDEFINED> instruction: 41485f54
    2678:	4e495f53 			@ <UNDEFINED> instruction: 4e495f53
    267c:	494e4946 			@ <UNDEFINED> instruction: 494e4946
    2680:	5f5f5954 			@ <UNDEFINED> instruction: 5f5f5954
    2684:	55003120 			@ <UNDEFINED> instruction: 55003120
    2688:	54524153 			@ <UNDEFINED> instruction: 54524153
    268c:	3252435f 			@ <UNDEFINED> instruction: 3252435f
    2690:	4f54535f 			@ <UNDEFINED> instruction: 4f54535f
    2694:	414d5f50 			@ <UNDEFINED> instruction: 414d5f50
    2698:	28204b53 			@ <UNDEFINED> instruction: 28204b53
    269c:	55337830 			@ <UNDEFINED> instruction: 55337830
    26a0:	3c3c204c 			@ <UNDEFINED> instruction: 3c3c204c
    26a4:	29323120 			@ <UNDEFINED> instruction: 29323120
    26a8:	415f5f00 			@ <UNDEFINED> instruction: 415f5f00
    26ac:	4d554343 			@ <UNDEFINED> instruction: 4d554343
    26b0:	58414d5f 			@ <UNDEFINED> instruction: 58414d5f
    26b4:	30205f5f 			@ <UNDEFINED> instruction: 30205f5f
    26b8:	46463758 			@ <UNDEFINED> instruction: 46463758
    26bc:	46464646 			@ <UNDEFINED> instruction: 46464646
    26c0:	312d5046 			@ <UNDEFINED> instruction: 312d5046
    26c4:	5f004b35 			@ <UNDEFINED> instruction: 5f004b35
    26c8:	544e495f 			@ <UNDEFINED> instruction: 544e495f
    26cc:	414d5f38 			@ <UNDEFINED> instruction: 414d5f38
    26d0:	205f5f58 			@ <UNDEFINED> instruction: 205f5f58
    26d4:	66377830 			@ <UNDEFINED> instruction: 66377830
    26d8:	475f5f00 			@ <UNDEFINED> instruction: 475f5f00
    26dc:	485f4343 			@ <UNDEFINED> instruction: 485f4343
    26e0:	5f455641 			@ <UNDEFINED> instruction: 5f455641
    26e4:	52415744 			@ <UNDEFINED> instruction: 52415744
    26e8:	435f3246 			@ <UNDEFINED> instruction: 435f3246
    26ec:	415f4946 			@ <UNDEFINED> instruction: 415f4946
    26f0:	31204d53 			@ <UNDEFINED> instruction: 31204d53
    26f4:	5c3a4300 			@ <UNDEFINED> instruction: 5c3a4300
    26f8:	72657355 			@ <UNDEFINED> instruction: 72657355
    26fc:	6d495c73 			@ <UNDEFINED> instruction: 6d495c73
    2700:	76617961 			@ <UNDEFINED> instruction: 76617961
    2704:	6d617261 			@ <UNDEFINED> instruction: 6d617261
    2708:	5c6e6162 			@ <UNDEFINED> instruction: 5c6e6162
    270c:	45424d45 			@ <UNDEFINED> instruction: 45424d45
    2710:	44454444 			@ <UNDEFINED> instruction: 44454444
    2714:	414f525f 			@ <UNDEFINED> instruction: 414f525f
    2718:	50414d44 			@ <UNDEFINED> instruction: 50414d44
    271c:	7361545c 			@ <UNDEFINED> instruction: 7361545c
    2720:	6f635f6b 			@ <UNDEFINED> instruction: 6f635f6b
    2724:	495c6564 			@ <UNDEFINED> instruction: 495c6564
    2728:	7375646e 			@ <UNDEFINED> instruction: 7375646e
    272c:	5f797274 			@ <UNDEFINED> instruction: 5f797274
    2730:	6e617473 			@ <UNDEFINED> instruction: 6e617473
    2734:	64726164 			@ <UNDEFINED> instruction: 64726164
    2738:	646f635f 			@ <UNDEFINED> instruction: 646f635f
    273c:	41555c65 			@ <UNDEFINED> instruction: 41555c65
    2740:	485f5452 			@ <UNDEFINED> instruction: 485f5452
    2744:	5f5f0049 			@ <UNDEFINED> instruction: 5f5f0049
    2748:	41524653 			@ <UNDEFINED> instruction: 41524653
    274c:	4d5f5443 			@ <UNDEFINED> instruction: 4d5f5443
    2750:	5f5f4e49 			@ <UNDEFINED> instruction: 5f5f4e49
    2754:	302d2820 			@ <UNDEFINED> instruction: 302d2820
    2758:	5248352e 			@ <UNDEFINED> instruction: 5248352e
    275c:	352e302d 			@ <UNDEFINED> instruction: 352e302d
    2760:	00295248 			@ <UNDEFINED> instruction: 00295248
    2764:	41535f5f 			@ <UNDEFINED> instruction: 41535f5f
    2768:	4942495f 			@ <UNDEFINED> instruction: 4942495f
    276c:	205f5f54 			@ <UNDEFINED> instruction: 205f5f54
    2770:	5f003631 			@ <UNDEFINED> instruction: 5f003631
    2774:	5248535f 			@ <UNDEFINED> instruction: 5248535f
    2778:	49575f54 			@ <UNDEFINED> instruction: 49575f54
    277c:	5f485444 			@ <UNDEFINED> instruction: 5f485444
    2780:	3631205f 			@ <UNDEFINED> instruction: 3631205f
    2784:	475f5f00 			@ <UNDEFINED> instruction: 475f5f00
    2788:	495f4343 			@ <UNDEFINED> instruction: 495f4343
    278c:	355f4345 			@ <UNDEFINED> instruction: 355f4345
    2790:	435f3935 			@ <UNDEFINED> instruction: 435f3935
    2794:	4c504d4f 	mrrcmi	13, 4, r4, r0, cr15
    2798:	30205845 			@ <UNDEFINED> instruction: 30205845
    279c:	415f5f00 			@ <UNDEFINED> instruction: 415f5f00
    27a0:	465f4d52 			@ <UNDEFINED> instruction: 465f4d52
    27a4:	55544145 			@ <UNDEFINED> instruction: 55544145
    27a8:	4d5f4552 			@ <UNDEFINED> instruction: 4d5f4552
    27ac:	55004556 			@ <UNDEFINED> instruction: 55004556
    27b0:	54524153 			@ <UNDEFINED> instruction: 54524153
    27b4:	52425f32 			@ <UNDEFINED> instruction: 52425f32
    27b8:	45522052 			@ <UNDEFINED> instruction: 45522052
    27bc:	28323347 			@ <UNDEFINED> instruction: 28323347
    27c0:	52415355 			@ <UNDEFINED> instruction: 52415355
    27c4:	425f3254 			@ <UNDEFINED> instruction: 425f3254
    27c8:	2c455341 	mcrrcs	3, 4, r5, r5, cr1
    27cc:	41535520 			@ <UNDEFINED> instruction: 41535520
    27d0:	425f5452 			@ <UNDEFINED> instruction: 425f5452
    27d4:	4f5f5252 			@ <UNDEFINED> instruction: 4f5f5252
    27d8:	45534646 			@ <UNDEFINED> instruction: 45534646
    27dc:	5f002954 			@ <UNDEFINED> instruction: 5f002954
    27e0:	4d52415f 			@ <UNDEFINED> instruction: 4d52415f
    27e4:	3150465f 			@ <UNDEFINED> instruction: 3150465f
    27e8:	4f465f36 			@ <UNDEFINED> instruction: 4f465f36
    27ec:	54414d52 			@ <UNDEFINED> instruction: 54414d52
    27f0:	4545495f 			@ <UNDEFINED> instruction: 4545495f
    27f4:	5f5f0045 			@ <UNDEFINED> instruction: 5f5f0045
    27f8:	544e4955 			@ <UNDEFINED> instruction: 544e4955
    27fc:	545f3631 			@ <UNDEFINED> instruction: 545f3631
    2800:	5f455059 			@ <UNDEFINED> instruction: 5f455059
    2804:	6873205f 			@ <UNDEFINED> instruction: 6873205f
    2808:	2074726f 			@ <UNDEFINED> instruction: 2074726f
    280c:	69736e75 			@ <UNDEFINED> instruction: 69736e75
    2810:	64656e67 			@ <UNDEFINED> instruction: 64656e67
    2814:	746e6920 			@ <UNDEFINED> instruction: 746e6920
    2818:	53595300 			@ <UNDEFINED> instruction: 53595300
    281c:	4b434954 			@ <UNDEFINED> instruction: 4b434954
    2820:	4c41435f 	mcrrmi	3, 5, r4, r1, cr15
    2824:	535f4249 			@ <UNDEFINED> instruction: 535f4249
    2828:	2057454b 			@ <UNDEFINED> instruction: 2057454b
    282c:	4c553128 	mrrcmi	1, 2, r3, r5, cr8
    2830:	203c3c20 			@ <UNDEFINED> instruction: 203c3c20
    2834:	00293033 			@ <UNDEFINED> instruction: 00293033
    2838:	5f544e49 			@ <UNDEFINED> instruction: 5f544e49
    283c:	54534146 			@ <UNDEFINED> instruction: 54534146
    2840:	4d5f3233 			@ <UNDEFINED> instruction: 4d5f3233
    2844:	5f004e49 			@ <UNDEFINED> instruction: 5f004e49
    2848:	49535f54 			@ <UNDEFINED> instruction: 49535f54
    284c:	205f455a 			@ <UNDEFINED> instruction: 205f455a
    2850:	465f5f00 			@ <UNDEFINED> instruction: 465f5f00
    2854:	455f544c 			@ <UNDEFINED> instruction: 455f544c
    2858:	5f4c4156 			@ <UNDEFINED> instruction: 5f4c4156
    285c:	4854454d 			@ <UNDEFINED> instruction: 4854454d
    2860:	545f444f 			@ <UNDEFINED> instruction: 545f444f
    2864:	38315f53 			@ <UNDEFINED> instruction: 38315f53
    2868:	5f313636 			@ <UNDEFINED> instruction: 5f313636
    286c:	205f5f33 			@ <UNDEFINED> instruction: 205f5f33
    2870:	43520030 			@ <UNDEFINED> instruction: 43520030
    2874:	50415f43 			@ <UNDEFINED> instruction: 50415f43
    2878:	4e453242 			@ <UNDEFINED> instruction: 4e453242
    287c:	45522052 			@ <UNDEFINED> instruction: 45522052
    2880:	28323347 			@ <UNDEFINED> instruction: 28323347
    2884:	5f434352 			@ <UNDEFINED> instruction: 5f434352
    2888:	45534142 			@ <UNDEFINED> instruction: 45534142
    288c:	4352202c 			@ <UNDEFINED> instruction: 4352202c
    2890:	50415f43 			@ <UNDEFINED> instruction: 50415f43
    2894:	4e453242 			@ <UNDEFINED> instruction: 4e453242
    2898:	464f5f52 			@ <UNDEFINED> instruction: 464f5f52
    289c:	54455346 			@ <UNDEFINED> instruction: 54455346
    28a0:	5f5f0029 			@ <UNDEFINED> instruction: 5f5f0029
    28a4:	41484353 			@ <UNDEFINED> instruction: 41484353
    28a8:	49575f52 			@ <UNDEFINED> instruction: 49575f52
    28ac:	5f485444 			@ <UNDEFINED> instruction: 5f485444
    28b0:	0038205f 			@ <UNDEFINED> instruction: 0038205f
    28b4:	544e4955 			@ <UNDEFINED> instruction: 544e4955
    28b8:	5341465f 	movtpl	r4, #5727	@ 0x165f
    28bc:	5f363154 			@ <UNDEFINED> instruction: 5f363154
    28c0:	0058414d 			@ <UNDEFINED> instruction: 0058414d
    28c4:	4f495047 			@ <UNDEFINED> instruction: 4f495047
    28c8:	4e49505f 			@ <UNDEFINED> instruction: 4e49505f
    28cc:	5345525f 	movtpl	r5, #21087	@ 0x525f
    28d0:	5f005445 			@ <UNDEFINED> instruction: 5f005445
    28d4:	4e49555f 			@ <UNDEFINED> instruction: 4e49555f
    28d8:	41465f54 			@ <UNDEFINED> instruction: 41465f54
    28dc:	5f385453 			@ <UNDEFINED> instruction: 5f385453
    28e0:	45505954 			@ <UNDEFINED> instruction: 45505954
    28e4:	75205f5f 			@ <UNDEFINED> instruction: 75205f5f
    28e8:	6769736e 			@ <UNDEFINED> instruction: 6769736e
    28ec:	2064656e 			@ <UNDEFINED> instruction: 2064656e
    28f0:	00746e69 			@ <UNDEFINED> instruction: 00746e69
    28f4:	4c4c5f5f 	mcrrmi	15, 5, r5, ip, cr15
    28f8:	55434341 			@ <UNDEFINED> instruction: 55434341
    28fc:	42495f4d 			@ <UNDEFINED> instruction: 42495f4d
    2900:	5f5f5449 			@ <UNDEFINED> instruction: 5f5f5449
    2904:	00323320 			@ <UNDEFINED> instruction: 00323320
    2908:	4c465f5f 	mcrrmi	15, 5, r5, r6, cr15
    290c:	5f343654 			@ <UNDEFINED> instruction: 5f343654
    2910:	49535045 			@ <UNDEFINED> instruction: 49535045
    2914:	5f4e4f4c 			@ <UNDEFINED> instruction: 5f4e4f4c
    2918:	2e32205f 			@ <UNDEFINED> instruction: 2e32205f
    291c:	34303232 			@ <UNDEFINED> instruction: 34303232
    2920:	34303634 			@ <UNDEFINED> instruction: 34303634
    2924:	30353239 			@ <UNDEFINED> instruction: 30353239
    2928:	31333133 			@ <UNDEFINED> instruction: 31333133
    292c:	36312d65 			@ <UNDEFINED> instruction: 36312d65
    2930:	00343646 			@ <UNDEFINED> instruction: 00343646
    2934:	4e495f5f 			@ <UNDEFINED> instruction: 4e495f5f
    2938:	5f323354 			@ <UNDEFINED> instruction: 5f323354
    293c:	5f58414d 			@ <UNDEFINED> instruction: 5f58414d
    2940:	7830205f 			@ <UNDEFINED> instruction: 7830205f
    2944:	66666637 			@ <UNDEFINED> instruction: 66666637
    2948:	66666666 			@ <UNDEFINED> instruction: 66666666
    294c:	5f5f004c 			@ <UNDEFINED> instruction: 5f5f004c
    2950:	5f585847 			@ <UNDEFINED> instruction: 5f585847
    2954:	45505954 			@ <UNDEFINED> instruction: 45505954
    2958:	4f464e49 			@ <UNDEFINED> instruction: 4f464e49
    295c:	5551455f 			@ <UNDEFINED> instruction: 5551455f
    2960:	54494c41 			@ <UNDEFINED> instruction: 54494c41
    2964:	4e495f59 			@ <UNDEFINED> instruction: 4e495f59
    2968:	454e494c 			@ <UNDEFINED> instruction: 454e494c
    296c:	55003020 			@ <UNDEFINED> instruction: 55003020
    2970:	4d544e49 			@ <UNDEFINED> instruction: 4d544e49
    2974:	4d5f5841 			@ <UNDEFINED> instruction: 4d5f5841
    2978:	5f005841 			@ <UNDEFINED> instruction: 5f005841
    297c:	544e495f 			@ <UNDEFINED> instruction: 544e495f
    2980:	41454c5f 			@ <UNDEFINED> instruction: 41454c5f
    2984:	34365453 			@ <UNDEFINED> instruction: 34365453
    2988:	58414d5f 			@ <UNDEFINED> instruction: 58414d5f
    298c:	30205f5f 			@ <UNDEFINED> instruction: 30205f5f
    2990:	66663778 			@ <UNDEFINED> instruction: 66663778
    2994:	66666666 			@ <UNDEFINED> instruction: 66666666
    2998:	66666666 			@ <UNDEFINED> instruction: 66666666
    299c:	66666666 			@ <UNDEFINED> instruction: 66666666
    29a0:	004c4c66 			@ <UNDEFINED> instruction: 004c4c66
    29a4:	50415f5f 			@ <UNDEFINED> instruction: 50415f5f
    29a8:	335f5343 			@ <UNDEFINED> instruction: 335f5343
    29ac:	205f5f32 			@ <UNDEFINED> instruction: 205f5f32
    29b0:	5f5f0031 			@ <UNDEFINED> instruction: 5f5f0031
    29b4:	5f4d5241 			@ <UNDEFINED> instruction: 5f4d5241
    29b8:	54414546 			@ <UNDEFINED> instruction: 54414546
    29bc:	5f455255 			@ <UNDEFINED> instruction: 5f455255
    29c0:	36314642 			@ <UNDEFINED> instruction: 36314642
    29c4:	4345565f 	movtmi	r5, #22111	@ 0x565f
    29c8:	5f524f54 			@ <UNDEFINED> instruction: 5f524f54
    29cc:	54495241 			@ <UNDEFINED> instruction: 54495241
    29d0:	54454d48 			@ <UNDEFINED> instruction: 54454d48
    29d4:	52004349 			@ <UNDEFINED> instruction: 52004349
    29d8:	505f4343 			@ <UNDEFINED> instruction: 505f4343
    29dc:	46434c4c 			@ <UNDEFINED> instruction: 46434c4c
    29e0:	4f5f5247 			@ <UNDEFINED> instruction: 4f5f5247
    29e4:	45534646 			@ <UNDEFINED> instruction: 45534646
    29e8:	78302054 			@ <UNDEFINED> instruction: 78302054
    29ec:	4c553430 	mrrcmi	4, 3, r3, r5, cr0
    29f0:	43435200 	movtmi	r5, #12800	@ 0x3200
    29f4:	4b43445f 			@ <UNDEFINED> instruction: 4b43445f
    29f8:	52474643 			@ <UNDEFINED> instruction: 52474643
    29fc:	46464f5f 			@ <UNDEFINED> instruction: 46464f5f
    2a00:	20544553 			@ <UNDEFINED> instruction: 20544553
    2a04:	43387830 			@ <UNDEFINED> instruction: 43387830
    2a08:	55004c55 			@ <UNDEFINED> instruction: 55004c55
    2a0c:	54524153 			@ <UNDEFINED> instruction: 54524153
    2a10:	52435f36 			@ <UNDEFINED> instruction: 52435f36
    2a14:	45522031 			@ <UNDEFINED> instruction: 45522031
    2a18:	28323347 			@ <UNDEFINED> instruction: 28323347
    2a1c:	52415355 			@ <UNDEFINED> instruction: 52415355
    2a20:	425f3654 			@ <UNDEFINED> instruction: 425f3654
    2a24:	2c455341 	mcrrcs	3, 4, r5, r5, cr1
    2a28:	41535520 			@ <UNDEFINED> instruction: 41535520
    2a2c:	435f5452 			@ <UNDEFINED> instruction: 435f5452
    2a30:	4f5f3152 			@ <UNDEFINED> instruction: 4f5f3152
    2a34:	45534646 			@ <UNDEFINED> instruction: 45534646
    2a38:	55002954 			@ <UNDEFINED> instruction: 55002954
    2a3c:	54524153 			@ <UNDEFINED> instruction: 54524153
    2a40:	52435f36 			@ <UNDEFINED> instruction: 52435f36
    2a44:	45522032 			@ <UNDEFINED> instruction: 45522032
    2a48:	28323347 			@ <UNDEFINED> instruction: 28323347
    2a4c:	52415355 			@ <UNDEFINED> instruction: 52415355
    2a50:	425f3654 			@ <UNDEFINED> instruction: 425f3654
    2a54:	2c455341 	mcrrcs	3, 4, r5, r5, cr1
    2a58:	41535520 			@ <UNDEFINED> instruction: 41535520
    2a5c:	435f5452 			@ <UNDEFINED> instruction: 435f5452
    2a60:	4f5f3252 			@ <UNDEFINED> instruction: 4f5f3252
    2a64:	45534646 			@ <UNDEFINED> instruction: 45534646
    2a68:	5f002954 			@ <UNDEFINED> instruction: 5f002954
    2a6c:	544c465f 			@ <UNDEFINED> instruction: 544c465f
    2a70:	4d5f3233 			@ <UNDEFINED> instruction: 4d5f3233
    2a74:	5f544e41 			@ <UNDEFINED> instruction: 5f544e41
    2a78:	5f474944 			@ <UNDEFINED> instruction: 5f474944
    2a7c:	3432205f 			@ <UNDEFINED> instruction: 3432205f
    2a80:	41535500 			@ <UNDEFINED> instruction: 41535500
    2a84:	475f5452 			@ <UNDEFINED> instruction: 475f5452
    2a88:	5f525054 			@ <UNDEFINED> instruction: 5f525054
    2a8c:	5346464f 	movtpl	r4, #26191	@ 0x664f
    2a90:	30205445 			@ <UNDEFINED> instruction: 30205445
    2a94:	55383178 			@ <UNDEFINED> instruction: 55383178
    2a98:	5f5f004c 			@ <UNDEFINED> instruction: 5f5f004c
    2a9c:	33544c46 			@ <UNDEFINED> instruction: 33544c46
    2aa0:	45445f32 			@ <UNDEFINED> instruction: 45445f32
    2aa4:	4d524f4e 			@ <UNDEFINED> instruction: 4d524f4e
    2aa8:	4e494d5f 			@ <UNDEFINED> instruction: 4e494d5f
    2aac:	31205f5f 			@ <UNDEFINED> instruction: 31205f5f
    2ab0:	3130342e 			@ <UNDEFINED> instruction: 3130342e
    2ab4:	34383932 			@ <UNDEFINED> instruction: 34383932
    2ab8:	32333436 			@ <UNDEFINED> instruction: 32333436
    2abc:	37313834 			@ <UNDEFINED> instruction: 37313834
    2ac0:	342d6531 			@ <UNDEFINED> instruction: 342d6531
    2ac4:	32334635 			@ <UNDEFINED> instruction: 32334635
    2ac8:	66666f00 			@ <UNDEFINED> instruction: 66666f00
    2acc:	6f746573 			@ <UNDEFINED> instruction: 6f746573
    2ad0:	59542866 			@ <UNDEFINED> instruction: 59542866
    2ad4:	4d2c4550 			@ <UNDEFINED> instruction: 4d2c4550
    2ad8:	45424d45 			@ <UNDEFINED> instruction: 45424d45
    2adc:	5f202952 			@ <UNDEFINED> instruction: 5f202952
    2ae0:	6975625f 			@ <UNDEFINED> instruction: 6975625f
    2ae4:	6e69746c 			@ <UNDEFINED> instruction: 6e69746c
    2ae8:	66666f5f 	uqsaxvs	r6, r6, pc	@ <UNPREDICTABLE>
    2aec:	6f746573 			@ <UNDEFINED> instruction: 6f746573
    2af0:	54282066 			@ <UNDEFINED> instruction: 54282066
    2af4:	2c455059 	mcrrcs	0, 5, r5, r5, cr9
    2af8:	4d454d20 			@ <UNDEFINED> instruction: 4d454d20
    2afc:	29524542 			@ <UNDEFINED> instruction: 29524542
    2b00:	555f5f00 			@ <UNDEFINED> instruction: 555f5f00
    2b04:	36544e49 			@ <UNDEFINED> instruction: 36544e49
    2b08:	28435f34 			@ <UNDEFINED> instruction: 28435f34
    2b0c:	63202963 			@ <UNDEFINED> instruction: 63202963
    2b10:	20232320 			@ <UNDEFINED> instruction: 20232320
    2b14:	004c4c55 			@ <UNDEFINED> instruction: 004c4c55
    2b18:	49555f5f 			@ <UNDEFINED> instruction: 49555f5f
    2b1c:	4c5f544e 	mrrcmi	4, 4, r5, pc, cr14	@ <UNPREDICTABLE>
    2b20:	54534145 			@ <UNDEFINED> instruction: 54534145
    2b24:	545f3436 			@ <UNDEFINED> instruction: 545f3436
    2b28:	5f455059 			@ <UNDEFINED> instruction: 5f455059
    2b2c:	6f6c205f 			@ <UNDEFINED> instruction: 6f6c205f
    2b30:	6c20676e 			@ <UNDEFINED> instruction: 6c20676e
    2b34:	20676e6f 			@ <UNDEFINED> instruction: 20676e6f
    2b38:	69736e75 			@ <UNDEFINED> instruction: 69736e75
    2b3c:	64656e67 			@ <UNDEFINED> instruction: 64656e67
    2b40:	746e6920 			@ <UNDEFINED> instruction: 746e6920
    2b44:	415f5f00 			@ <UNDEFINED> instruction: 415f5f00
    2b48:	465f4d52 			@ <UNDEFINED> instruction: 465f4d52
    2b4c:	55544145 			@ <UNDEFINED> instruction: 55544145
    2b50:	415f4552 			@ <UNDEFINED> instruction: 415f4552
    2b54:	5f005345 			@ <UNDEFINED> instruction: 5f005345
    2b58:	42444c5f 			@ <UNDEFINED> instruction: 42444c5f
    2b5c:	50455f4c 			@ <UNDEFINED> instruction: 50455f4c
    2b60:	4f4c4953 			@ <UNDEFINED> instruction: 4f4c4953
    2b64:	205f5f4e 			@ <UNDEFINED> instruction: 205f5f4e
    2b68:	32322e32 			@ <UNDEFINED> instruction: 32322e32
    2b6c:	36343430 			@ <UNDEFINED> instruction: 36343430
    2b70:	32393430 			@ <UNDEFINED> instruction: 32393430
    2b74:	31333035 			@ <UNDEFINED> instruction: 31333035
    2b78:	2d653133 			@ <UNDEFINED> instruction: 2d653133
    2b7c:	004c3631 			@ <UNDEFINED> instruction: 004c3631
    2b80:	5f434352 			@ <UNDEFINED> instruction: 5f434352
    2b84:	31425041 			@ <UNDEFINED> instruction: 31425041
    2b88:	4e45504c 			@ <UNDEFINED> instruction: 4e45504c
    2b8c:	464f5f52 			@ <UNDEFINED> instruction: 464f5f52
    2b90:	54455346 			@ <UNDEFINED> instruction: 54455346
    2b94:	36783020 			@ <UNDEFINED> instruction: 36783020
    2b98:	004c5530 			@ <UNDEFINED> instruction: 004c5530
    2b9c:	54524155 			@ <UNDEFINED> instruction: 54524155
    2ba0:	5241505f 			@ <UNDEFINED> instruction: 5241505f
    2ba4:	5f595449 			@ <UNDEFINED> instruction: 5f595449
    2ba8:	454e4f4e 			@ <UNDEFINED> instruction: 454e4f4e
    2bac:	00553020 			@ <UNDEFINED> instruction: 00553020
    2bb0:	43475f5f 	movtmi	r5, #32607	@ 0x7f5f
    2bb4:	54415f43 			@ <UNDEFINED> instruction: 54415f43
    2bb8:	43494d4f 	movtmi	r4, #40271	@ 0x9d4f
    2bbc:	4148435f 			@ <UNDEFINED> instruction: 4148435f
    2bc0:	5f363152 			@ <UNDEFINED> instruction: 5f363152
    2bc4:	4f4c5f54 			@ <UNDEFINED> instruction: 4f4c5f54
    2bc8:	465f4b43 			@ <UNDEFINED> instruction: 465f4b43
    2bcc:	20454552 			@ <UNDEFINED> instruction: 20454552
    2bd0:	6f700032 			@ <UNDEFINED> instruction: 6f700032
    2bd4:	625f7472 			@ <UNDEFINED> instruction: 625f7472
    2bd8:	00657361 			@ <UNDEFINED> instruction: 00657361
    2bdc:	42445f5f 			@ <UNDEFINED> instruction: 42445f5f
    2be0:	414d5f4c 			@ <UNDEFINED> instruction: 414d5f4c
    2be4:	58455f58 			@ <UNDEFINED> instruction: 58455f58
    2be8:	205f5f50 			@ <UNDEFINED> instruction: 205f5f50
    2bec:	34323031 			@ <UNDEFINED> instruction: 34323031
    2bf0:	41535500 			@ <UNDEFINED> instruction: 41535500
    2bf4:	535f5452 			@ <UNDEFINED> instruction: 535f5452
    2bf8:	424c5f52 			@ <UNDEFINED> instruction: 424c5f52
    2bfc:	31282044 			@ <UNDEFINED> instruction: 31282044
    2c00:	3c204c55 			@ <UNDEFINED> instruction: 3c204c55
    2c04:	2938203c 			@ <UNDEFINED> instruction: 2938203c
    2c08:	415f5f00 			@ <UNDEFINED> instruction: 415f5f00
    2c0c:	494d4f54 			@ <UNDEFINED> instruction: 494d4f54
    2c10:	45525f43 			@ <UNDEFINED> instruction: 45525f43
    2c14:	5341454c 	movtpl	r4, #5452	@ 0x154c
    2c18:	00332045 			@ <UNDEFINED> instruction: 00332045
    2c1c:	52415355 			@ <UNDEFINED> instruction: 52415355
    2c20:	52445f54 			@ <UNDEFINED> instruction: 52445f54
    2c24:	46464f5f 			@ <UNDEFINED> instruction: 46464f5f
    2c28:	20544553 			@ <UNDEFINED> instruction: 20544553
    2c2c:	34307830 			@ <UNDEFINED> instruction: 34307830
    2c30:	55004c55 			@ <UNDEFINED> instruction: 55004c55
    2c34:	5f544e49 			@ <UNDEFINED> instruction: 5f544e49
    2c38:	54534146 			@ <UNDEFINED> instruction: 54534146
    2c3c:	414d5f38 			@ <UNDEFINED> instruction: 414d5f38
    2c40:	5f5f0058 			@ <UNDEFINED> instruction: 5f5f0058
    2c44:	5f544c46 			@ <UNDEFINED> instruction: 5f544c46
    2c48:	544e414d 			@ <UNDEFINED> instruction: 544e414d
    2c4c:	4749445f 	smlsldmi	r4, r9, pc, r4	@ <UNPREDICTABLE>
    2c50:	32205f5f 			@ <UNDEFINED> instruction: 32205f5f
    2c54:	53550034 			@ <UNDEFINED> instruction: 53550034
    2c58:	32545241 			@ <UNDEFINED> instruction: 32545241
    2c5c:	2052445f 			@ <UNDEFINED> instruction: 2052445f
    2c60:	33474552 	movtcc	r4, #30034	@ 0x7552
    2c64:	53552832 			@ <UNDEFINED> instruction: 53552832
    2c68:	32545241 			@ <UNDEFINED> instruction: 32545241
    2c6c:	5341425f 	movtpl	r4, #4703	@ 0x125f
    2c70:	55202c45 			@ <UNDEFINED> instruction: 55202c45
    2c74:	54524153 			@ <UNDEFINED> instruction: 54524153
    2c78:	5f52445f 			@ <UNDEFINED> instruction: 5f52445f
    2c7c:	5346464f 	movtpl	r4, #26191	@ 0x664f
    2c80:	00295445 			@ <UNDEFINED> instruction: 00295445
    2c84:	44555f5f 			@ <UNDEFINED> instruction: 44555f5f
    2c88:	42495f51 			@ <UNDEFINED> instruction: 42495f51
    2c8c:	5f5f5449 			@ <UNDEFINED> instruction: 5f5f5449
    2c90:	55003020 			@ <UNDEFINED> instruction: 55003020
    2c94:	5f545241 			@ <UNDEFINED> instruction: 5f545241
    2c98:	45444f4d 			@ <UNDEFINED> instruction: 45444f4d
    2c9c:	2058545f 			@ <UNDEFINED> instruction: 2058545f
    2ca0:	5f005530 			@ <UNDEFINED> instruction: 5f005530
    2ca4:	4341555f 	movtmi	r5, #5471	@ 0x155f
    2ca8:	5f4d5543 			@ <UNDEFINED> instruction: 5f4d5543
    2cac:	5f58414d 			@ <UNDEFINED> instruction: 5f58414d
    2cb0:	5830205f 			@ <UNDEFINED> instruction: 5830205f
    2cb4:	46464646 			@ <UNDEFINED> instruction: 46464646
    2cb8:	46464646 			@ <UNDEFINED> instruction: 46464646
    2cbc:	36312d50 			@ <UNDEFINED> instruction: 36312d50
    2cc0:	55004b55 			@ <UNDEFINED> instruction: 55004b55
    2cc4:	54524153 			@ <UNDEFINED> instruction: 54524153
    2cc8:	41425f32 			@ <UNDEFINED> instruction: 41425f32
    2ccc:	30204553 			@ <UNDEFINED> instruction: 30204553
    2cd0:	30303478 			@ <UNDEFINED> instruction: 30303478
    2cd4:	30343430 			@ <UNDEFINED> instruction: 30343430
    2cd8:	004c5530 			@ <UNDEFINED> instruction: 004c5530
    2cdc:	4c465f5f 	mcrrmi	15, 5, r5, r6, cr15
    2ce0:	5f343654 			@ <UNDEFINED> instruction: 5f343654
    2ce4:	4d524f4e 			@ <UNDEFINED> instruction: 4d524f4e
    2ce8:	58414d5f 			@ <UNDEFINED> instruction: 58414d5f
    2cec:	31205f5f 			@ <UNDEFINED> instruction: 31205f5f
    2cf0:	3739372e 			@ <UNDEFINED> instruction: 3739372e
    2cf4:	31333936 			@ <UNDEFINED> instruction: 31333936
    2cf8:	36383433 			@ <UNDEFINED> instruction: 36383433
    2cfc:	35313332 			@ <UNDEFINED> instruction: 35313332
    2d00:	332b6537 			@ <UNDEFINED> instruction: 332b6537
    2d04:	36463830 			@ <UNDEFINED> instruction: 36463830
    2d08:	53550034 			@ <UNDEFINED> instruction: 53550034
    2d0c:	5f545241 			@ <UNDEFINED> instruction: 5f545241
    2d10:	5f335243 			@ <UNDEFINED> instruction: 5f335243
    2d14:	42454e4f 			@ <UNDEFINED> instruction: 42454e4f
    2d18:	28205449 			@ <UNDEFINED> instruction: 28205449
    2d1c:	204c5531 			@ <UNDEFINED> instruction: 204c5531
    2d20:	31203c3c 			@ <UNDEFINED> instruction: 31203c3c
    2d24:	55002931 			@ <UNDEFINED> instruction: 55002931
    2d28:	54524153 			@ <UNDEFINED> instruction: 54524153
    2d2c:	5f52535f 			@ <UNDEFINED> instruction: 5f52535f
    2d30:	5346464f 	movtpl	r4, #26191	@ 0x664f
    2d34:	30205445 			@ <UNDEFINED> instruction: 30205445
    2d38:	55303078 			@ <UNDEFINED> instruction: 55303078
    2d3c:	4955004c 			@ <UNDEFINED> instruction: 4955004c
    2d40:	5450544e 			@ <UNDEFINED> instruction: 5450544e
    2d44:	414d5f52 			@ <UNDEFINED> instruction: 414d5f52
    2d48:	545f0058 			@ <UNDEFINED> instruction: 545f0058
    2d4c:	5254505f 			@ <UNDEFINED> instruction: 5254505f
    2d50:	46464944 			@ <UNDEFINED> instruction: 46464944
    2d54:	5f00205f 			@ <UNDEFINED> instruction: 5f00205f
    2d58:	42444c5f 			@ <UNDEFINED> instruction: 42444c5f
    2d5c:	45445f4c 			@ <UNDEFINED> instruction: 45445f4c
    2d60:	4d524f4e 			@ <UNDEFINED> instruction: 4d524f4e
    2d64:	4e494d5f 			@ <UNDEFINED> instruction: 4e494d5f
    2d68:	34205f5f 			@ <UNDEFINED> instruction: 34205f5f
    2d6c:	3034392e 			@ <UNDEFINED> instruction: 3034392e
    2d70:	34363536 			@ <UNDEFINED> instruction: 34363536
    2d74:	31343835 			@ <UNDEFINED> instruction: 31343835
    2d78:	35363432 			@ <UNDEFINED> instruction: 35363432
    2d7c:	332d6534 			@ <UNDEFINED> instruction: 332d6534
    2d80:	004c3432 			@ <UNDEFINED> instruction: 004c3432
    2d84:	4e495f5f 			@ <UNDEFINED> instruction: 4e495f5f
    2d88:	5f343654 			@ <UNDEFINED> instruction: 5f343654
    2d8c:	5f58414d 			@ <UNDEFINED> instruction: 5f58414d
    2d90:	7830205f 			@ <UNDEFINED> instruction: 7830205f
    2d94:	66666637 			@ <UNDEFINED> instruction: 66666637
    2d98:	66666666 			@ <UNDEFINED> instruction: 66666666
    2d9c:	66666666 			@ <UNDEFINED> instruction: 66666666
    2da0:	66666666 			@ <UNDEFINED> instruction: 66666666
    2da4:	5f004c4c 			@ <UNDEFINED> instruction: 5f004c4c
    2da8:	4d52415f 			@ <UNDEFINED> instruction: 4d52415f
    2dac:	4145465f 			@ <UNDEFINED> instruction: 4145465f
    2db0:	45525554 			@ <UNDEFINED> instruction: 45525554
    2db4:	5441535f 			@ <UNDEFINED> instruction: 5441535f
    2db8:	5f003120 			@ <UNDEFINED> instruction: 5f003120
    2dbc:	4c4c555f 	mcrrmi	5, 5, r5, ip, cr15
    2dc0:	43415246 	movtmi	r5, #4678	@ 0x1246
    2dc4:	42495f54 			@ <UNDEFINED> instruction: 42495f54
    2dc8:	5f5f5449 			@ <UNDEFINED> instruction: 5f5f5449
    2dcc:	47003020 			@ <UNDEFINED> instruction: 47003020
    2dd0:	5f4f4950 			@ <UNDEFINED> instruction: 5f4f4950
    2dd4:	32314641 			@ <UNDEFINED> instruction: 32314641
    2dd8:	30783020 			@ <UNDEFINED> instruction: 30783020
    2ddc:	5f005543 			@ <UNDEFINED> instruction: 5f005543
    2de0:	49534e41 			@ <UNDEFINED> instruction: 49534e41
    2de4:	4454535f 			@ <UNDEFINED> instruction: 4454535f
    2de8:	5f464544 			@ <UNDEFINED> instruction: 5f464544
    2dec:	55002048 			@ <UNDEFINED> instruction: 55002048
    2df0:	54524153 			@ <UNDEFINED> instruction: 54524153
    2df4:	3152435f 			@ <UNDEFINED> instruction: 3152435f
    2df8:	2045545f 			@ <UNDEFINED> instruction: 2045545f
    2dfc:	4c553128 	mrrcmi	1, 2, r3, r5, cr8
    2e00:	203c3c20 			@ <UNDEFINED> instruction: 203c3c20
    2e04:	55002933 			@ <UNDEFINED> instruction: 55002933
    2e08:	54524153 			@ <UNDEFINED> instruction: 54524153
    2e0c:	3152435f 			@ <UNDEFINED> instruction: 3152435f
    2e10:	46464f5f 			@ <UNDEFINED> instruction: 46464f5f
    2e14:	20544553 			@ <UNDEFINED> instruction: 20544553
    2e18:	43307830 			@ <UNDEFINED> instruction: 43307830
    2e1c:	52004c55 			@ <UNDEFINED> instruction: 52004c55
    2e20:	415f4343 			@ <UNDEFINED> instruction: 415f4343
    2e24:	45314248 			@ <UNDEFINED> instruction: 45314248
    2e28:	475f524e 			@ <UNDEFINED> instruction: 475f524e
    2e2c:	434f4950 	movtmi	r4, #63824	@ 0xf950
    2e30:	28204e45 			@ <UNDEFINED> instruction: 28204e45
    2e34:	204c5531 			@ <UNDEFINED> instruction: 204c5531
    2e38:	32203c3c 			@ <UNDEFINED> instruction: 32203c3c
    2e3c:	5f5f0029 			@ <UNDEFINED> instruction: 5f5f0029
    2e40:	43554e47 			@ <UNDEFINED> instruction: 43554e47
    2e44:	31205f5f 			@ <UNDEFINED> instruction: 31205f5f
    2e48:	43570034 			@ <UNDEFINED> instruction: 43570034
    2e4c:	5f524148 			@ <UNDEFINED> instruction: 5f524148
    2e50:	0058414d 			@ <UNDEFINED> instruction: 0058414d
    2e54:	4f4c5f5f 			@ <UNDEFINED> instruction: 4f4c5f5f
    2e58:	575f474e 			@ <UNDEFINED> instruction: 575f474e
    2e5c:	48544449 			@ <UNDEFINED> instruction: 48544449
    2e60:	33205f5f 			@ <UNDEFINED> instruction: 33205f5f
    2e64:	545f0032 			@ <UNDEFINED> instruction: 545f0032
    2e68:	4843575f 			@ <UNDEFINED> instruction: 4843575f
    2e6c:	205f5241 			@ <UNDEFINED> instruction: 205f5241
    2e70:	544e4900 			@ <UNDEFINED> instruction: 544e4900
    2e74:	4d5f3233 			@ <UNDEFINED> instruction: 4d5f3233
    2e78:	5f205841 			@ <UNDEFINED> instruction: 5f205841
    2e7c:	544e495f 			@ <UNDEFINED> instruction: 544e495f
    2e80:	4d5f3233 			@ <UNDEFINED> instruction: 4d5f3233
    2e84:	5f5f5841 			@ <UNDEFINED> instruction: 5f5f5841
    2e88:	555f5f00 			@ <UNDEFINED> instruction: 555f5f00
    2e8c:	55434341 			@ <UNDEFINED> instruction: 55434341
    2e90:	42465f4d 			@ <UNDEFINED> instruction: 42465f4d
    2e94:	5f5f5449 			@ <UNDEFINED> instruction: 5f5f5449
    2e98:	00363120 			@ <UNDEFINED> instruction: 00363120
    2e9c:	33474552 	movtcc	r4, #30034	@ 0x7552
    2ea0:	61422832 			@ <UNDEFINED> instruction: 61422832
    2ea4:	4f2c6573 			@ <UNDEFINED> instruction: 4f2c6573
    2ea8:	65736666 			@ <UNDEFINED> instruction: 65736666
    2eac:	28202974 			@ <UNDEFINED> instruction: 28202974
    2eb0:	6f76282a 			@ <UNDEFINED> instruction: 6f76282a
    2eb4:	6974616c 			@ <UNDEFINED> instruction: 6974616c
    2eb8:	7520656c 			@ <UNDEFINED> instruction: 7520656c
    2ebc:	33746e69 			@ <UNDEFINED> instruction: 33746e69
    2ec0:	20745f32 			@ <UNDEFINED> instruction: 20745f32
    2ec4:	2828292a 			@ <UNDEFINED> instruction: 2828292a
    2ec8:	65736142 			@ <UNDEFINED> instruction: 65736142
    2ecc:	202b2029 			@ <UNDEFINED> instruction: 202b2029
    2ed0:	66664f28 			@ <UNDEFINED> instruction: 66664f28
    2ed4:	29746573 			@ <UNDEFINED> instruction: 29746573
    2ed8:	5f002929 			@ <UNDEFINED> instruction: 5f002929
    2edc:	5246555f 			@ <UNDEFINED> instruction: 5246555f
    2ee0:	5f544341 			@ <UNDEFINED> instruction: 5f544341
    2ee4:	49535045 			@ <UNDEFINED> instruction: 49535045
    2ee8:	5f4e4f4c 			@ <UNDEFINED> instruction: 5f4e4f4c
    2eec:	7830205f 			@ <UNDEFINED> instruction: 7830205f
    2ef0:	312d5031 			@ <UNDEFINED> instruction: 312d5031
    2ef4:	00525536 			@ <UNDEFINED> instruction: 00525536
    2ef8:	43575f5f 			@ <UNDEFINED> instruction: 43575f5f
    2efc:	5f524148 			@ <UNDEFINED> instruction: 5f524148
    2f00:	5f4e494d 			@ <UNDEFINED> instruction: 5f4e494d
    2f04:	5530205f 			@ <UNDEFINED> instruction: 5530205f
    2f08:	49504700 			@ <UNDEFINED> instruction: 49504700
    2f0c:	55505f4f 			@ <UNDEFINED> instruction: 55505f4f
    2f10:	5f524450 			@ <UNDEFINED> instruction: 5f524450
    2f14:	4c4c5550 	mcrrmi	5, 5, r5, ip, cr0
    2f18:	4e574f44 			@ <UNDEFINED> instruction: 4e574f44
    2f1c:	30783020 			@ <UNDEFINED> instruction: 30783020
    2f20:	5f005532 			@ <UNDEFINED> instruction: 5f005532
    2f24:	5151555f 			@ <UNDEFINED> instruction: 5151555f
    2f28:	4942495f 			@ <UNDEFINED> instruction: 4942495f
    2f2c:	205f5f54 			@ <UNDEFINED> instruction: 205f5f54
    2f30:	5f5f0030 			@ <UNDEFINED> instruction: 5f5f0030
    2f34:	5f434347 			@ <UNDEFINED> instruction: 5f434347
    2f38:	4d4f5441 			@ <UNDEFINED> instruction: 4d4f5441
    2f3c:	4c5f4349 	mrrcmi	3, 4, r4, pc, cr9	@ <UNPREDICTABLE>
    2f40:	5f474e4f 			@ <UNDEFINED> instruction: 5f474e4f
    2f44:	4b434f4c 			@ <UNDEFINED> instruction: 4b434f4c
    2f48:	4552465f 			@ <UNDEFINED> instruction: 4552465f
    2f4c:	00322045 			@ <UNDEFINED> instruction: 00322045
    2f50:	4c555f5f 	mrrcmi	15, 5, r5, r5, cr15	@ <UNPREDICTABLE>
    2f54:	55434341 			@ <UNDEFINED> instruction: 55434341
    2f58:	494d5f4d 			@ <UNDEFINED> instruction: 494d5f4d
    2f5c:	205f5f4e 			@ <UNDEFINED> instruction: 205f5f4e
    2f60:	55302e30 			@ <UNDEFINED> instruction: 55302e30
    2f64:	52004b4c 			@ <UNDEFINED> instruction: 52004b4c
    2f68:	415f4343 			@ <UNDEFINED> instruction: 415f4343
    2f6c:	45314250 			@ <UNDEFINED> instruction: 45314250
    2f70:	4f5f524e 			@ <UNDEFINED> instruction: 4f5f524e
    2f74:	45534646 			@ <UNDEFINED> instruction: 45534646
    2f78:	78302054 			@ <UNDEFINED> instruction: 78302054
    2f7c:	4c553034 	mrrcmi	0, 3, r3, r5, cr4
    2f80:	6e5f5f00 			@ <UNDEFINED> instruction: 6e5f5f00
    2f84:	5f646565 			@ <UNDEFINED> instruction: 5f646565
    2f88:	657a6973 			@ <UNDEFINED> instruction: 657a6973
    2f8c:	5f00745f 			@ <UNDEFINED> instruction: 5f00745f
    2f90:	42444c5f 			@ <UNDEFINED> instruction: 42444c5f
    2f94:	414d5f4c 			@ <UNDEFINED> instruction: 414d5f4c
    2f98:	205f5f58 			@ <UNDEFINED> instruction: 205f5f58
    2f9c:	39372e31 			@ <UNDEFINED> instruction: 39372e31
    2fa0:	33393637 			@ <UNDEFINED> instruction: 33393637
    2fa4:	38343331 			@ <UNDEFINED> instruction: 38343331
    2fa8:	31333236 			@ <UNDEFINED> instruction: 31333236
    2fac:	2b653735 			@ <UNDEFINED> instruction: 2b653735
    2fb0:	4c383033 			@ <UNDEFINED> instruction: 4c383033
    2fb4:	415f5f00 			@ <UNDEFINED> instruction: 415f5f00
    2fb8:	415f4d52 			@ <UNDEFINED> instruction: 415f4d52
    2fbc:	20484352 			@ <UNDEFINED> instruction: 20484352
    2fc0:	43520037 			@ <UNDEFINED> instruction: 43520037
    2fc4:	48415f43 			@ <UNDEFINED> instruction: 48415f43
    2fc8:	4e453142 			@ <UNDEFINED> instruction: 4e453142
    2fcc:	464f5f52 			@ <UNDEFINED> instruction: 464f5f52
    2fd0:	54455346 			@ <UNDEFINED> instruction: 54455346
    2fd4:	33783020 			@ <UNDEFINED> instruction: 33783020
    2fd8:	004c5530 			@ <UNDEFINED> instruction: 004c5530
    2fdc:	4c465f5f 	mcrrmi	15, 5, r5, r6, cr15
    2fe0:	41525f54 			@ <UNDEFINED> instruction: 41525f54
    2fe4:	5f584944 			@ <UNDEFINED> instruction: 5f584944
    2fe8:	0032205f 			@ <UNDEFINED> instruction: 0032205f
    2fec:	54524155 			@ <UNDEFINED> instruction: 54524155
    2ff0:	5241505f 			@ <UNDEFINED> instruction: 5241505f
    2ff4:	5f595449 			@ <UNDEFINED> instruction: 5f595449
    2ff8:	4e455645 			@ <UNDEFINED> instruction: 4e455645
    2ffc:	00553120 			@ <UNDEFINED> instruction: 00553120
    3000:	4f495047 			@ <UNDEFINED> instruction: 4f495047
    3004:	3546415f 			@ <UNDEFINED> instruction: 3546415f
    3008:	30783020 			@ <UNDEFINED> instruction: 30783020
    300c:	5f005535 			@ <UNDEFINED> instruction: 5f005535
    3010:	4d52415f 			@ <UNDEFINED> instruction: 4d52415f
    3014:	4145465f 			@ <UNDEFINED> instruction: 4145465f
    3018:	45525554 			@ <UNDEFINED> instruction: 45525554
    301c:	534d435f 	movtpl	r4, #54111	@ 0xd35f
    3020:	43520045 			@ <UNDEFINED> instruction: 43520045
    3024:	46435f43 			@ <UNDEFINED> instruction: 46435f43
    3028:	535f5247 			@ <UNDEFINED> instruction: 535f5247
    302c:	485f5357 			@ <UNDEFINED> instruction: 485f5357
    3030:	28204553 			@ <UNDEFINED> instruction: 28204553
    3034:	55317830 			@ <UNDEFINED> instruction: 55317830
    3038:	3c3c204c 			@ <UNDEFINED> instruction: 3c3c204c
    303c:	00293220 			@ <UNDEFINED> instruction: 00293220
    3040:	5f434352 			@ <UNDEFINED> instruction: 5f434352
    3044:	52474643 			@ <UNDEFINED> instruction: 52474643
    3048:	5f57535f 			@ <UNDEFINED> instruction: 5f57535f
    304c:	20455348 			@ <UNDEFINED> instruction: 20455348
    3050:	31783028 			@ <UNDEFINED> instruction: 31783028
    3054:	00294c55 			@ <UNDEFINED> instruction: 00294c55
    3058:	4f4c5f5f 			@ <UNDEFINED> instruction: 4f4c5f5f
    305c:	4c5f474e 	mrrcmi	7, 4, r4, pc, cr14	@ <UNPREDICTABLE>
    3060:	5f474e4f 			@ <UNDEFINED> instruction: 5f474e4f
    3064:	54444957 			@ <UNDEFINED> instruction: 54444957
    3068:	205f5f48 			@ <UNDEFINED> instruction: 205f5f48
    306c:	52003436 			@ <UNDEFINED> instruction: 52003436
    3070:	415f4343 			@ <UNDEFINED> instruction: 415f4343
    3074:	45314250 			@ <UNDEFINED> instruction: 45314250
    3078:	555f524e 			@ <UNDEFINED> instruction: 555f524e
    307c:	54524153 			@ <UNDEFINED> instruction: 54524153
    3080:	204e4532 			@ <UNDEFINED> instruction: 204e4532
    3084:	4c553128 	mrrcmi	1, 2, r3, r5, cr8
    3088:	203c3c20 			@ <UNDEFINED> instruction: 203c3c20
    308c:	00293731 			@ <UNDEFINED> instruction: 00293731
    3090:	45445f5f 			@ <UNDEFINED> instruction: 45445f5f
    3094:	454e4946 			@ <UNDEFINED> instruction: 454e4946
    3098:	63775f44 			@ <UNDEFINED> instruction: 63775f44
    309c:	5f726168 			@ <UNDEFINED> instruction: 5f726168
    30a0:	5f002074 			@ <UNDEFINED> instruction: 5f002074
    30a4:	4e49555f 			@ <UNDEFINED> instruction: 4e49555f
    30a8:	41465f54 			@ <UNDEFINED> instruction: 41465f54
    30ac:	34365453 			@ <UNDEFINED> instruction: 34365453
    30b0:	58414d5f 			@ <UNDEFINED> instruction: 58414d5f
    30b4:	30205f5f 			@ <UNDEFINED> instruction: 30205f5f
    30b8:	66666678 			@ <UNDEFINED> instruction: 66666678
    30bc:	66666666 			@ <UNDEFINED> instruction: 66666666
    30c0:	66666666 			@ <UNDEFINED> instruction: 66666666
    30c4:	66666666 			@ <UNDEFINED> instruction: 66666666
    30c8:	4c4c5566 	mcrrmi	5, 6, r5, ip, cr6
    30cc:	415f5f00 			@ <UNDEFINED> instruction: 415f5f00
    30d0:	465f4d52 			@ <UNDEFINED> instruction: 465f4d52
    30d4:	43520050 			@ <UNDEFINED> instruction: 43520050
    30d8:	52435f43 			@ <UNDEFINED> instruction: 52435f43
    30dc:	4c4c505f 	mcrrmi	0, 5, r5, ip, cr15
    30e0:	4f533249 			@ <UNDEFINED> instruction: 4f533249
    30e4:	3128204e 			@ <UNDEFINED> instruction: 3128204e
    30e8:	3c204c55 			@ <UNDEFINED> instruction: 3c204c55
    30ec:	3632203c 			@ <UNDEFINED> instruction: 3632203c
    30f0:	5f5f0029 			@ <UNDEFINED> instruction: 5f5f0029
    30f4:	495f4148 			@ <UNDEFINED> instruction: 495f4148
    30f8:	5f544942 			@ <UNDEFINED> instruction: 5f544942
    30fc:	0038205f 			@ <UNDEFINED> instruction: 0038205f
    3100:	665f7768 			@ <UNDEFINED> instruction: 665f7768
    3104:	5f776f6c 			@ <UNDEFINED> instruction: 5f776f6c
    3108:	6c727463 			@ <UNDEFINED> instruction: 6c727463
    310c:	495f5f00 			@ <UNDEFINED> instruction: 495f5f00
    3110:	5450544e 			@ <UNDEFINED> instruction: 5450544e
    3114:	49575f52 			@ <UNDEFINED> instruction: 49575f52
    3118:	5f485444 			@ <UNDEFINED> instruction: 5f485444
    311c:	3233205f 			@ <UNDEFINED> instruction: 3233205f
    3120:	475f5f00 			@ <UNDEFINED> instruction: 475f5f00
    3124:	415f4343 			@ <UNDEFINED> instruction: 415f4343
    3128:	494d4f54 			@ <UNDEFINED> instruction: 494d4f54
    312c:	4c4c5f43 	mcrrmi	15, 4, r5, ip, cr3
    3130:	5f474e4f 			@ <UNDEFINED> instruction: 5f474e4f
    3134:	4b434f4c 			@ <UNDEFINED> instruction: 4b434f4c
    3138:	4552465f 			@ <UNDEFINED> instruction: 4552465f
    313c:	00312045 			@ <UNDEFINED> instruction: 00312045
    3140:	4c465f5f 	mcrrmi	15, 5, r5, r6, cr15
    3144:	58323354 			@ <UNDEFINED> instruction: 58323354
    3148:	4e494d5f 			@ <UNDEFINED> instruction: 4e494d5f
    314c:	32205f5f 			@ <UNDEFINED> instruction: 32205f5f
    3150:	3532322e 			@ <UNDEFINED> instruction: 3532322e
    3154:	38333730 			@ <UNDEFINED> instruction: 38333730
    3158:	30353835 			@ <UNDEFINED> instruction: 30353835
    315c:	31303237 			@ <UNDEFINED> instruction: 31303237
    3160:	332d6534 			@ <UNDEFINED> instruction: 332d6534
    3164:	33463830 	movtcc	r3, #26672	@ 0x6830
    3168:	49007832 			@ <UNDEFINED> instruction: 49007832
    316c:	414d544e 			@ <UNDEFINED> instruction: 414d544e
    3170:	414d5f58 			@ <UNDEFINED> instruction: 414d5f58
    3174:	5f5f2058 			@ <UNDEFINED> instruction: 5f5f2058
    3178:	4d544e49 			@ <UNDEFINED> instruction: 4d544e49
    317c:	4d5f5841 			@ <UNDEFINED> instruction: 4d5f5841
    3180:	5f5f5841 			@ <UNDEFINED> instruction: 5f5f5841
    3184:	465f5f00 			@ <UNDEFINED> instruction: 465f5f00
    3188:	3436544c 			@ <UNDEFINED> instruction: 3436544c
    318c:	58414d5f 			@ <UNDEFINED> instruction: 58414d5f
    3190:	5058455f 			@ <UNDEFINED> instruction: 5058455f
    3194:	31205f5f 			@ <UNDEFINED> instruction: 31205f5f
    3198:	00343230 			@ <UNDEFINED> instruction: 00343230
    319c:	544e4955 			@ <UNDEFINED> instruction: 544e4955
    31a0:	4d5f3631 			@ <UNDEFINED> instruction: 4d5f3631
    31a4:	5f005841 			@ <UNDEFINED> instruction: 5f005841
    31a8:	544c465f 			@ <UNDEFINED> instruction: 544c465f
    31ac:	4d5f3436 			@ <UNDEFINED> instruction: 4d5f3436
    31b0:	5f5f4e49 			@ <UNDEFINED> instruction: 5f5f4e49
    31b4:	322e3220 			@ <UNDEFINED> instruction: 322e3220
    31b8:	37303532 			@ <UNDEFINED> instruction: 37303532
    31bc:	38353833 			@ <UNDEFINED> instruction: 38353833
    31c0:	32373035 			@ <UNDEFINED> instruction: 32373035
    31c4:	65343130 			@ <UNDEFINED> instruction: 65343130
    31c8:	3830332d 			@ <UNDEFINED> instruction: 3830332d
    31cc:	00343646 			@ <UNDEFINED> instruction: 00343646
    31d0:	4e495f5f 			@ <UNDEFINED> instruction: 4e495f5f
    31d4:	58414d54 			@ <UNDEFINED> instruction: 58414d54
    31d8:	6328435f 			@ <UNDEFINED> instruction: 6328435f
    31dc:	20632029 			@ <UNDEFINED> instruction: 20632029
    31e0:	4c202323 			@ <UNDEFINED> instruction: 4c202323
    31e4:	5f5f004c 			@ <UNDEFINED> instruction: 5f5f004c
    31e8:	5f544c46 			@ <UNDEFINED> instruction: 5f544c46
    31ec:	5f4e494d 			@ <UNDEFINED> instruction: 5f4e494d
    31f0:	5f505845 			@ <UNDEFINED> instruction: 5f505845
    31f4:	2d28205f 			@ <UNDEFINED> instruction: 2d28205f
    31f8:	29353231 			@ <UNDEFINED> instruction: 29353231
    31fc:	415f5f00 			@ <UNDEFINED> instruction: 415f5f00
    3200:	415f4d52 			@ <UNDEFINED> instruction: 415f4d52
    3204:	5f484352 			@ <UNDEFINED> instruction: 5f484352
    3208:	464f5250 			@ <UNDEFINED> instruction: 464f5250
    320c:	00454c49 			@ <UNDEFINED> instruction: 00454c49
    3210:	4e495f5f 			@ <UNDEFINED> instruction: 4e495f5f
    3214:	5f343654 			@ <UNDEFINED> instruction: 5f343654
    3218:	45505954 			@ <UNDEFINED> instruction: 45505954
    321c:	6c205f5f 			@ <UNDEFINED> instruction: 6c205f5f
    3220:	20676e6f 			@ <UNDEFINED> instruction: 20676e6f
    3224:	676e6f6c 			@ <UNDEFINED> instruction: 676e6f6c
    3228:	746e6920 			@ <UNDEFINED> instruction: 746e6920
    322c:	52415500 			@ <UNDEFINED> instruction: 52415500
    3230:	4f575f54 			@ <UNDEFINED> instruction: 4f575f54
    3234:	454c4452 			@ <UNDEFINED> instruction: 454c4452
    3238:	42385f4e 			@ <UNDEFINED> instruction: 42385f4e
    323c:	30205449 			@ <UNDEFINED> instruction: 30205449
    3240:	5f5f0055 			@ <UNDEFINED> instruction: 5f5f0055
    3244:	4152464c 			@ <UNDEFINED> instruction: 4152464c
    3248:	465f5443 			@ <UNDEFINED> instruction: 465f5443
    324c:	5f544942 			@ <UNDEFINED> instruction: 5f544942
    3250:	3133205f 			@ <UNDEFINED> instruction: 3133205f
    3254:	435f5f00 			@ <UNDEFINED> instruction: 435f5f00
    3258:	5f524148 			@ <UNDEFINED> instruction: 5f524148
    325c:	5f544942 			@ <UNDEFINED> instruction: 5f544942
    3260:	0038205f 			@ <UNDEFINED> instruction: 0038205f
    3264:	49535f5f 			@ <UNDEFINED> instruction: 49535f5f
    3268:	464f455a 			@ <UNDEFINED> instruction: 464f455a
    326c:	4843575f 			@ <UNDEFINED> instruction: 4843575f
    3270:	545f5241 			@ <UNDEFINED> instruction: 545f5241
    3274:	34205f5f 			@ <UNDEFINED> instruction: 34205f5f
    3278:	49504700 			@ <UNDEFINED> instruction: 49504700
    327c:	544f5f4f 			@ <UNDEFINED> instruction: 544f5f4f
    3280:	52455059 			@ <UNDEFINED> instruction: 52455059
    3284:	2050505f 			@ <UNDEFINED> instruction: 2050505f
    3288:	30307830 			@ <UNDEFINED> instruction: 30307830
    328c:	53550055 			@ <UNDEFINED> instruction: 53550055
    3290:	31545241 			@ <UNDEFINED> instruction: 31545241
    3294:	5341425f 	movtpl	r4, #4703	@ 0x125f
    3298:	78302045 			@ <UNDEFINED> instruction: 78302045
    329c:	31303034 			@ <UNDEFINED> instruction: 31303034
    32a0:	30303031 			@ <UNDEFINED> instruction: 30303031
    32a4:	5f004c55 			@ <UNDEFINED> instruction: 5f004c55
    32a8:	4343475f 	movtmi	r4, #14175	@ 0x375f
    32ac:	4d53415f 			@ <UNDEFINED> instruction: 4d53415f
    32b0:	414c465f 			@ <UNDEFINED> instruction: 414c465f
    32b4:	554f5f47 			@ <UNDEFINED> instruction: 554f5f47
    32b8:	54555054 			@ <UNDEFINED> instruction: 54555054
    32bc:	205f5f53 			@ <UNDEFINED> instruction: 205f5f53
    32c0:	41550031 			@ <UNDEFINED> instruction: 41550031
    32c4:	545f5452 			@ <UNDEFINED> instruction: 545f5452
    32c8:	736e6172 			@ <UNDEFINED> instruction: 736e6172
    32cc:	5374696d 			@ <UNDEFINED> instruction: 5374696d
    32d0:	6e697274 			@ <UNDEFINED> instruction: 6e697274
    32d4:	5f5f0067 			@ <UNDEFINED> instruction: 5f5f0067
    32d8:	41524655 			@ <UNDEFINED> instruction: 41524655
    32dc:	4d5f5443 			@ <UNDEFINED> instruction: 4d5f5443
    32e0:	5f5f5841 			@ <UNDEFINED> instruction: 5f5f5841
    32e4:	46583020 			@ <UNDEFINED> instruction: 46583020
    32e8:	50464646 			@ <UNDEFINED> instruction: 50464646
    32ec:	5536312d 			@ <UNDEFINED> instruction: 5536312d
    32f0:	5f5f0052 			@ <UNDEFINED> instruction: 5f5f0052
    32f4:	544e4955 			@ <UNDEFINED> instruction: 544e4955
    32f8:	41454c5f 			@ <UNDEFINED> instruction: 41454c5f
    32fc:	32335453 			@ <UNDEFINED> instruction: 32335453
    3300:	5059545f 			@ <UNDEFINED> instruction: 5059545f
    3304:	205f5f45 			@ <UNDEFINED> instruction: 205f5f45
    3308:	676e6f6c 			@ <UNDEFINED> instruction: 676e6f6c
    330c:	736e7520 			@ <UNDEFINED> instruction: 736e7520
    3310:	656e6769 			@ <UNDEFINED> instruction: 656e6769
    3314:	6e692064 			@ <UNDEFINED> instruction: 6e692064
    3318:	5f5f0074 			@ <UNDEFINED> instruction: 5f5f0074
    331c:	5f4d5241 			@ <UNDEFINED> instruction: 5f4d5241
    3320:	54414546 			@ <UNDEFINED> instruction: 54414546
    3324:	5f455255 			@ <UNDEFINED> instruction: 5f455255
    3328:	54554150 			@ <UNDEFINED> instruction: 54554150
    332c:	4e490048 			@ <UNDEFINED> instruction: 4e490048
    3330:	41465f54 			@ <UNDEFINED> instruction: 41465f54
    3334:	34365453 			@ <UNDEFINED> instruction: 34365453
    3338:	4e494d5f 			@ <UNDEFINED> instruction: 4e494d5f
    333c:	492d2820 			@ <UNDEFINED> instruction: 492d2820
    3340:	465f544e 			@ <UNDEFINED> instruction: 465f544e
    3344:	36545341 			@ <UNDEFINED> instruction: 36545341
    3348:	414d5f34 			@ <UNDEFINED> instruction: 414d5f34
    334c:	202d2058 			@ <UNDEFINED> instruction: 202d2058
    3350:	5f002931 			@ <UNDEFINED> instruction: 5f002931
    3354:	5246535f 			@ <UNDEFINED> instruction: 5246535f
    3358:	5f544341 			@ <UNDEFINED> instruction: 5f544341
    335c:	54494249 			@ <UNDEFINED> instruction: 54494249
    3360:	30205f5f 			@ <UNDEFINED> instruction: 30205f5f
    3364:	6c637000 			@ <UNDEFINED> instruction: 6c637000
    3368:	7a685f6b 			@ <UNDEFINED> instruction: 7a685f6b
    336c:	425f5f00 			@ <UNDEFINED> instruction: 425f5f00
    3370:	5f455459 			@ <UNDEFINED> instruction: 5f455459
    3374:	4544524f 			@ <UNDEFINED> instruction: 4544524f
    3378:	205f5f52 			@ <UNDEFINED> instruction: 205f5f52
    337c:	524f5f5f 			@ <UNDEFINED> instruction: 524f5f5f
    3380:	5f524544 			@ <UNDEFINED> instruction: 5f524544
    3384:	5454494c 			@ <UNDEFINED> instruction: 5454494c
    3388:	455f454c 			@ <UNDEFINED> instruction: 455f454c
    338c:	4149444e 			@ <UNDEFINED> instruction: 4149444e
    3390:	005f5f4e 			@ <UNDEFINED> instruction: 005f5f4e
    3394:	4c465f5f 	mcrrmi	15, 5, r5, r6, cr15
    3398:	5f323354 			@ <UNDEFINED> instruction: 5f323354
    339c:	49535045 			@ <UNDEFINED> instruction: 49535045
    33a0:	5f4e4f4c 			@ <UNDEFINED> instruction: 5f4e4f4c
    33a4:	2e31205f 			@ <UNDEFINED> instruction: 2e31205f
    33a8:	30323931 			@ <UNDEFINED> instruction: 30323931
    33ac:	39383239 			@ <UNDEFINED> instruction: 39383239
    33b0:	37303535 			@ <UNDEFINED> instruction: 37303535
    33b4:	35323138 			@ <UNDEFINED> instruction: 35323138
    33b8:	46372d65 			@ <UNDEFINED> instruction: 46372d65
    33bc:	5f003233 			@ <UNDEFINED> instruction: 5f003233
    33c0:	4d52415f 			@ <UNDEFINED> instruction: 4d52415f
    33c4:	4f454e5f 			@ <UNDEFINED> instruction: 4f454e5f
    33c8:	50465f4e 			@ <UNDEFINED> instruction: 50465f4e
    33cc:	544e4900 			@ <UNDEFINED> instruction: 544e4900
    33d0:	5f525450 			@ <UNDEFINED> instruction: 5f525450
    33d4:	204e494d 			@ <UNDEFINED> instruction: 204e494d
    33d8:	4e492d28 			@ <UNDEFINED> instruction: 4e492d28
    33dc:	52545054 			@ <UNDEFINED> instruction: 52545054
    33e0:	58414d5f 			@ <UNDEFINED> instruction: 58414d5f
    33e4:	31202d20 			@ <UNDEFINED> instruction: 31202d20
    33e8:	49550029 			@ <UNDEFINED> instruction: 49550029
    33ec:	465f544e 			@ <UNDEFINED> instruction: 465f544e
    33f0:	36545341 			@ <UNDEFINED> instruction: 36545341
    33f4:	414d5f34 			@ <UNDEFINED> instruction: 414d5f34
    33f8:	5f5f2058 			@ <UNDEFINED> instruction: 5f5f2058
    33fc:	544e4955 			@ <UNDEFINED> instruction: 544e4955
    3400:	5341465f 	movtpl	r4, #5727	@ 0x165f
    3404:	5f343654 			@ <UNDEFINED> instruction: 5f343654
    3408:	5f58414d 			@ <UNDEFINED> instruction: 5f58414d
    340c:	4352005f 			@ <UNDEFINED> instruction: 4352005f
    3410:	49435f43 			@ <UNDEFINED> instruction: 49435f43
    3414:	464f5f52 			@ <UNDEFINED> instruction: 464f5f52
    3418:	54455346 			@ <UNDEFINED> instruction: 54455346
    341c:	30783020 			@ <UNDEFINED> instruction: 30783020
    3420:	004c5543 			@ <UNDEFINED> instruction: 004c5543
    3424:	52415355 			@ <UNDEFINED> instruction: 52415355
    3428:	425f3654 			@ <UNDEFINED> instruction: 425f3654
    342c:	52205252 			@ <UNDEFINED> instruction: 52205252
    3430:	32334745 			@ <UNDEFINED> instruction: 32334745
    3434:	41535528 			@ <UNDEFINED> instruction: 41535528
    3438:	5f365452 			@ <UNDEFINED> instruction: 5f365452
    343c:	45534142 			@ <UNDEFINED> instruction: 45534142
    3440:	5355202c 			@ <UNDEFINED> instruction: 5355202c
    3444:	5f545241 			@ <UNDEFINED> instruction: 5f545241
    3448:	5f525242 			@ <UNDEFINED> instruction: 5f525242
    344c:	5346464f 	movtpl	r4, #26191	@ 0x664f
    3450:	00295445 			@ <UNDEFINED> instruction: 00295445
    3454:	54535953 			@ <UNDEFINED> instruction: 54535953
    3458:	5f4b4349 			@ <UNDEFINED> instruction: 5f4b4349
    345c:	4c525443 	mrrcmi	4, 4, r5, r2, cr3
    3460:	4349545f 	movtmi	r5, #37983	@ 0x945f
    3464:	544e494b 			@ <UNDEFINED> instruction: 544e494b
    3468:	55312820 			@ <UNDEFINED> instruction: 55312820
    346c:	3c3c204c 			@ <UNDEFINED> instruction: 3c3c204c
    3470:	00293120 			@ <UNDEFINED> instruction: 00293120
    3474:	5f434352 			@ <UNDEFINED> instruction: 5f434352
    3478:	31424841 			@ <UNDEFINED> instruction: 31424841
    347c:	52545352 			@ <UNDEFINED> instruction: 52545352
    3480:	46464f5f 			@ <UNDEFINED> instruction: 46464f5f
    3484:	20544553 			@ <UNDEFINED> instruction: 20544553
    3488:	30317830 			@ <UNDEFINED> instruction: 30317830
    348c:	5f004c55 			@ <UNDEFINED> instruction: 5f004c55
    3490:	5246555f 			@ <UNDEFINED> instruction: 5246555f
    3494:	5f544341 			@ <UNDEFINED> instruction: 5f544341
    3498:	54494246 			@ <UNDEFINED> instruction: 54494246
    349c:	31205f5f 			@ <UNDEFINED> instruction: 31205f5f
    34a0:	5f5f0036 			@ <UNDEFINED> instruction: 5f5f0036
    34a4:	5f514455 			@ <UNDEFINED> instruction: 5f514455
    34a8:	54494246 			@ <UNDEFINED> instruction: 54494246
    34ac:	36205f5f 	qsaxcc	r5, r0, pc	@ <UNPREDICTABLE>
    34b0:	5f5f0034 			@ <UNDEFINED> instruction: 5f5f0034
    34b4:	5f4c4244 			@ <UNDEFINED> instruction: 5f4c4244
    34b8:	4d524f4e 			@ <UNDEFINED> instruction: 4d524f4e
    34bc:	58414d5f 			@ <UNDEFINED> instruction: 58414d5f
    34c0:	28205f5f 			@ <UNDEFINED> instruction: 28205f5f
    34c4:	756f6428 			@ <UNDEFINED> instruction: 756f6428
    34c8:	29656c62 			@ <UNDEFINED> instruction: 29656c62
    34cc:	39372e31 			@ <UNDEFINED> instruction: 39372e31
    34d0:	33393637 			@ <UNDEFINED> instruction: 33393637
    34d4:	38343331 			@ <UNDEFINED> instruction: 38343331
    34d8:	31333236 			@ <UNDEFINED> instruction: 31333236
    34dc:	2b653735 			@ <UNDEFINED> instruction: 2b653735
    34e0:	4c383033 			@ <UNDEFINED> instruction: 4c383033
    34e4:	53550029 			@ <UNDEFINED> instruction: 53550029
    34e8:	32545241 			@ <UNDEFINED> instruction: 32545241
    34ec:	2052535f 			@ <UNDEFINED> instruction: 2052535f
    34f0:	33474552 	movtcc	r4, #30034	@ 0x7552
    34f4:	53552832 			@ <UNDEFINED> instruction: 53552832
    34f8:	32545241 			@ <UNDEFINED> instruction: 32545241
    34fc:	5341425f 	movtpl	r4, #4703	@ 0x125f
    3500:	55202c45 			@ <UNDEFINED> instruction: 55202c45
    3504:	54524153 			@ <UNDEFINED> instruction: 54524153
    3508:	5f52535f 			@ <UNDEFINED> instruction: 5f52535f
    350c:	5346464f 	movtpl	r4, #26191	@ 0x664f
    3510:	00295445 			@ <UNDEFINED> instruction: 00295445
    3514:	444c5f5f 			@ <UNDEFINED> instruction: 444c5f5f
    3518:	4d5f4c42 			@ <UNDEFINED> instruction: 4d5f4c42
    351c:	315f5841 			@ <UNDEFINED> instruction: 315f5841
    3520:	58455f30 			@ <UNDEFINED> instruction: 58455f30
    3524:	205f5f50 			@ <UNDEFINED> instruction: 205f5f50
    3528:	00383033 			@ <UNDEFINED> instruction: 00383033
    352c:	52415f5f 			@ <UNDEFINED> instruction: 52415f5f
    3530:	45465f4d 			@ <UNDEFINED> instruction: 45465f4d
    3534:	52555441 			@ <UNDEFINED> instruction: 52555441
    3538:	4f435f45 			@ <UNDEFINED> instruction: 4f435f45
    353c:	434f5250 	movtmi	r5, #62032	@ 0xf250
    3540:	00353120 			@ <UNDEFINED> instruction: 00353120
    3544:	4f495047 			@ <UNDEFINED> instruction: 4f495047
    3548:	55505f42 			@ <UNDEFINED> instruction: 55505f42
    354c:	20524450 			@ <UNDEFINED> instruction: 20524450
    3550:	33474552 	movtcc	r4, #30034	@ 0x7552
    3554:	50472832 			@ <UNDEFINED> instruction: 50472832
    3558:	5f424f49 			@ <UNDEFINED> instruction: 5f424f49
    355c:	45534142 			@ <UNDEFINED> instruction: 45534142
    3560:	5047202c 			@ <UNDEFINED> instruction: 5047202c
    3564:	505f4f49 			@ <UNDEFINED> instruction: 505f4f49
    3568:	52445055 			@ <UNDEFINED> instruction: 52445055
    356c:	46464f5f 			@ <UNDEFINED> instruction: 46464f5f
    3570:	29544553 			@ <UNDEFINED> instruction: 29544553
    3574:	49504700 			@ <UNDEFINED> instruction: 49504700
    3578:	534f5f4f 	movtpl	r5, #65359	@ 0xff4f
    357c:	44454550 			@ <UNDEFINED> instruction: 44454550
    3580:	464f5f52 			@ <UNDEFINED> instruction: 464f5f52
    3584:	54455346 			@ <UNDEFINED> instruction: 54455346
    3588:	30783020 			@ <UNDEFINED> instruction: 30783020
    358c:	004c5538 			@ <UNDEFINED> instruction: 004c5538
    3590:	4f495047 			@ <UNDEFINED> instruction: 4f495047
    3594:	3146415f 			@ <UNDEFINED> instruction: 3146415f
    3598:	78302033 			@ <UNDEFINED> instruction: 78302033
    359c:	00554430 			@ <UNDEFINED> instruction: 00554430
    35a0:	42445f5f 			@ <UNDEFINED> instruction: 42445f5f
    35a4:	45445f4c 			@ <UNDEFINED> instruction: 45445f4c
    35a8:	4d524f4e 			@ <UNDEFINED> instruction: 4d524f4e
    35ac:	4e494d5f 			@ <UNDEFINED> instruction: 4e494d5f
    35b0:	28205f5f 			@ <UNDEFINED> instruction: 28205f5f
    35b4:	756f6428 			@ <UNDEFINED> instruction: 756f6428
    35b8:	29656c62 			@ <UNDEFINED> instruction: 29656c62
    35bc:	34392e34 			@ <UNDEFINED> instruction: 34392e34
    35c0:	36353630 			@ <UNDEFINED> instruction: 36353630
    35c4:	34383534 			@ <UNDEFINED> instruction: 34383534
    35c8:	36343231 			@ <UNDEFINED> instruction: 36343231
    35cc:	2d653435 			@ <UNDEFINED> instruction: 2d653435
    35d0:	4c343233 			@ <UNDEFINED> instruction: 4c343233
    35d4:	50470029 			@ <UNDEFINED> instruction: 50470029
    35d8:	5f424f49 			@ <UNDEFINED> instruction: 5f424f49
    35dc:	20524449 			@ <UNDEFINED> instruction: 20524449
    35e0:	33474552 	movtcc	r4, #30034	@ 0x7552
    35e4:	50472832 			@ <UNDEFINED> instruction: 50472832
    35e8:	5f424f49 			@ <UNDEFINED> instruction: 5f424f49
    35ec:	45534142 			@ <UNDEFINED> instruction: 45534142
    35f0:	5047202c 			@ <UNDEFINED> instruction: 5047202c
    35f4:	495f4f49 			@ <UNDEFINED> instruction: 495f4f49
    35f8:	4f5f5244 			@ <UNDEFINED> instruction: 4f5f5244
    35fc:	45534646 			@ <UNDEFINED> instruction: 45534646
    3600:	5f002954 			@ <UNDEFINED> instruction: 5f002954
    3604:	544e495f 			@ <UNDEFINED> instruction: 544e495f
    3608:	5341465f 	movtpl	r4, #5727	@ 0x165f
    360c:	5f323354 			@ <UNDEFINED> instruction: 5f323354
    3610:	45505954 			@ <UNDEFINED> instruction: 45505954
    3614:	69205f5f 			@ <UNDEFINED> instruction: 69205f5f
    3618:	5500746e 			@ <UNDEFINED> instruction: 5500746e
    361c:	54524153 			@ <UNDEFINED> instruction: 54524153
    3620:	3352435f 			@ <UNDEFINED> instruction: 3352435f
    3624:	5354525f 			@ <UNDEFINED> instruction: 5354525f
    3628:	31282045 			@ <UNDEFINED> instruction: 31282045
    362c:	3c204c55 			@ <UNDEFINED> instruction: 3c204c55
    3630:	2938203c 			@ <UNDEFINED> instruction: 2938203c
    3634:	415f5f00 			@ <UNDEFINED> instruction: 415f5f00
    3638:	415f4d52 			@ <UNDEFINED> instruction: 415f4d52
    363c:	5f484352 			@ <UNDEFINED> instruction: 5f484352
    3640:	464f5250 			@ <UNDEFINED> instruction: 464f5250
    3644:	20454c49 			@ <UNDEFINED> instruction: 20454c49
    3648:	52003737 			@ <UNDEFINED> instruction: 52003737
    364c:	505f4343 			@ <UNDEFINED> instruction: 505f4343
    3650:	41534c4c 			@ <UNDEFINED> instruction: 41534c4c
    3654:	47464349 			@ <UNDEFINED> instruction: 47464349
    3658:	464f5f52 			@ <UNDEFINED> instruction: 464f5f52
    365c:	54455346 			@ <UNDEFINED> instruction: 54455346
    3660:	38783020 			@ <UNDEFINED> instruction: 38783020
    3664:	004c5538 			@ <UNDEFINED> instruction: 004c5538
    3668:	5a49535f 			@ <UNDEFINED> instruction: 5a49535f
    366c:	205f5445 			@ <UNDEFINED> instruction: 205f5445
    3670:	465f5f00 			@ <UNDEFINED> instruction: 465f5f00
    3674:	3436544c 			@ <UNDEFINED> instruction: 3436544c
    3678:	5341485f 	movtpl	r4, #6239	@ 0x185f
    367c:	4955515f 			@ <UNDEFINED> instruction: 4955515f
    3680:	4e5f5445 			@ <UNDEFINED> instruction: 4e5f5445
    3684:	5f5f4e41 			@ <UNDEFINED> instruction: 5f5f4e41
    3688:	55003120 			@ <UNDEFINED> instruction: 55003120
    368c:	5f545241 			@ <UNDEFINED> instruction: 5f545241
    3690:	5f525245 			@ <UNDEFINED> instruction: 5f525245
    3694:	4c4c554e 	mcrrmi	5, 4, r5, ip, cr14
    3698:	5254505f 			@ <UNDEFINED> instruction: 5254505f
    369c:	415f5f00 			@ <UNDEFINED> instruction: 415f5f00
    36a0:	415f4d52 			@ <UNDEFINED> instruction: 415f4d52
    36a4:	5f484352 			@ <UNDEFINED> instruction: 5f484352
    36a8:	5f4d4537 			@ <UNDEFINED> instruction: 5f4d4537
    36ac:	0031205f 			@ <UNDEFINED> instruction: 0031205f
    36b0:	4c465f5f 	mcrrmi	15, 5, r5, r6, cr15
    36b4:	5f343654 			@ <UNDEFINED> instruction: 5f343654
    36b8:	5f534148 			@ <UNDEFINED> instruction: 5f534148
    36bc:	4f4e4544 			@ <UNDEFINED> instruction: 4f4e4544
    36c0:	5f5f4d52 			@ <UNDEFINED> instruction: 5f5f4d52
    36c4:	5f003120 			@ <UNDEFINED> instruction: 5f003120
    36c8:	4c4c555f 	mcrrmi	5, 5, r5, ip, cr15
    36cc:	55434341 			@ <UNDEFINED> instruction: 55434341
    36d0:	42495f4d 			@ <UNDEFINED> instruction: 42495f4d
    36d4:	5f5f5449 			@ <UNDEFINED> instruction: 5f5f5449
    36d8:	00323320 			@ <UNDEFINED> instruction: 00323320
    36dc:	41555f5f 			@ <UNDEFINED> instruction: 41555f5f
    36e0:	4d554343 			@ <UNDEFINED> instruction: 4d554343
    36e4:	5350455f 			@ <UNDEFINED> instruction: 5350455f
    36e8:	4e4f4c49 			@ <UNDEFINED> instruction: 4e4f4c49
    36ec:	30205f5f 			@ <UNDEFINED> instruction: 30205f5f
    36f0:	2d503178 			@ <UNDEFINED> instruction: 2d503178
    36f4:	4b553631 			@ <UNDEFINED> instruction: 4b553631
    36f8:	43575f00 			@ <UNDEFINED> instruction: 43575f00
    36fc:	5f524148 			@ <UNDEFINED> instruction: 5f524148
    3700:	45445f54 			@ <UNDEFINED> instruction: 45445f54
    3704:	52414c43 			@ <UNDEFINED> instruction: 52414c43
    3708:	00204445 			@ <UNDEFINED> instruction: 00204445
    370c:	5f495348 			@ <UNDEFINED> instruction: 5f495348
    3710:	51455246 			@ <UNDEFINED> instruction: 51455246
    3714:	205a485f 			@ <UNDEFINED> instruction: 205a485f
    3718:	30303631 			@ <UNDEFINED> instruction: 30303631
    371c:	30303030 			@ <UNDEFINED> instruction: 30303030
    3720:	47004c55 	smlsdmi	r0, r5, ip, r4
    3724:	5f4f4950 			@ <UNDEFINED> instruction: 5f4f4950
    3728:	4550534f 			@ <UNDEFINED> instruction: 4550534f
    372c:	5f524445 			@ <UNDEFINED> instruction: 5f524445
    3730:	4b53414d 			@ <UNDEFINED> instruction: 4b53414d
    3734:	30783020 			@ <UNDEFINED> instruction: 30783020
    3738:	5f005533 			@ <UNDEFINED> instruction: 5f005533
    373c:	544c465f 			@ <UNDEFINED> instruction: 544c465f
    3740:	4156455f 			@ <UNDEFINED> instruction: 4156455f
    3744:	454d5f4c 			@ <UNDEFINED> instruction: 454d5f4c
    3748:	444f4854 			@ <UNDEFINED> instruction: 444f4854
    374c:	30205f5f 			@ <UNDEFINED> instruction: 30205f5f
    3750:	535f5f00 			@ <UNDEFINED> instruction: 535f5f00
    3754:	52414843 			@ <UNDEFINED> instruction: 52414843
    3758:	58414d5f 			@ <UNDEFINED> instruction: 58414d5f
    375c:	30205f5f 			@ <UNDEFINED> instruction: 30205f5f
    3760:	00663778 			@ <UNDEFINED> instruction: 00663778
    3764:	5f544e49 			@ <UNDEFINED> instruction: 5f544e49
    3768:	5341454c 	movtpl	r4, #5452	@ 0x154c
    376c:	5f323354 			@ <UNDEFINED> instruction: 5f323354
    3770:	004e494d 			@ <UNDEFINED> instruction: 004e494d
    3774:	4e495f5f 			@ <UNDEFINED> instruction: 4e495f5f
    3778:	41465f54 			@ <UNDEFINED> instruction: 41465f54
    377c:	5f385453 			@ <UNDEFINED> instruction: 5f385453
    3780:	54444957 			@ <UNDEFINED> instruction: 54444957
    3784:	205f5f48 			@ <UNDEFINED> instruction: 205f5f48
    3788:	5f003233 			@ <UNDEFINED> instruction: 5f003233
    378c:	4454535f 			@ <UNDEFINED> instruction: 4454535f
    3790:	54555f43 			@ <UNDEFINED> instruction: 54555f43
    3794:	36315f46 			@ <UNDEFINED> instruction: 36315f46
    3798:	31205f5f 			@ <UNDEFINED> instruction: 31205f5f
    379c:	415f5f00 			@ <UNDEFINED> instruction: 415f5f00
    37a0:	465f4d52 			@ <UNDEFINED> instruction: 465f4d52
    37a4:	55544145 			@ <UNDEFINED> instruction: 55544145
    37a8:	4c5f4552 	mrrcmi	5, 5, r4, pc, cr2	@ <UNPREDICTABLE>
    37ac:	58455244 			@ <UNDEFINED> instruction: 58455244
    37b0:	5f545f00 			@ <UNDEFINED> instruction: 5f545f00
    37b4:	44525450 			@ <UNDEFINED> instruction: 44525450
    37b8:	20464649 			@ <UNDEFINED> instruction: 20464649
    37bc:	555f5f00 			@ <UNDEFINED> instruction: 555f5f00
    37c0:	465f5151 			@ <UNDEFINED> instruction: 465f5151
    37c4:	5f544942 			@ <UNDEFINED> instruction: 5f544942
    37c8:	0038205f 			@ <UNDEFINED> instruction: 0038205f
    37cc:	49575f5f 			@ <UNDEFINED> instruction: 49575f5f
    37d0:	545f544e 			@ <UNDEFINED> instruction: 545f544e
    37d4:	5f455059 			@ <UNDEFINED> instruction: 5f455059
    37d8:	6e75205f 			@ <UNDEFINED> instruction: 6e75205f
    37dc:	6e676973 			@ <UNDEFINED> instruction: 6e676973
    37e0:	69206465 			@ <UNDEFINED> instruction: 69206465
    37e4:	5f00746e 			@ <UNDEFINED> instruction: 5f00746e
    37e8:	4d52415f 			@ <UNDEFINED> instruction: 4d52415f
    37ec:	3150465f 			@ <UNDEFINED> instruction: 3150465f
    37f0:	52415f36 			@ <UNDEFINED> instruction: 52415f36
    37f4:	5f005347 			@ <UNDEFINED> instruction: 5f005347
    37f8:	4343475f 	movtmi	r4, #14175	@ 0x375f
    37fc:	4345495f 	movtmi	r4, #22879	@ 0x595f
    3800:	3935355f 			@ <UNDEFINED> instruction: 3935355f
    3804:	52003020 			@ <UNDEFINED> instruction: 52003020
    3808:	415f4343 			@ <UNDEFINED> instruction: 415f4343
    380c:	52334248 			@ <UNDEFINED> instruction: 52334248
    3810:	5f525453 			@ <UNDEFINED> instruction: 5f525453
    3814:	5346464f 	movtpl	r4, #26191	@ 0x664f
    3818:	30205445 			@ <UNDEFINED> instruction: 30205445
    381c:	55383178 			@ <UNDEFINED> instruction: 55383178
    3820:	4e49004c 			@ <UNDEFINED> instruction: 4e49004c
    3824:	454c5f54 			@ <UNDEFINED> instruction: 454c5f54
    3828:	38545341 			@ <UNDEFINED> instruction: 38545341
    382c:	4e494d5f 			@ <UNDEFINED> instruction: 4e494d5f
    3830:	492d2820 			@ <UNDEFINED> instruction: 492d2820
    3834:	4c5f544e 	mrrcmi	4, 4, r5, pc, cr14	@ <UNPREDICTABLE>
    3838:	54534145 			@ <UNDEFINED> instruction: 54534145
    383c:	414d5f38 			@ <UNDEFINED> instruction: 414d5f38
    3840:	202d2058 			@ <UNDEFINED> instruction: 202d2058
    3844:	49002931 			@ <UNDEFINED> instruction: 49002931
    3848:	4c5f544e 	mrrcmi	4, 4, r5, pc, cr14	@ <UNPREDICTABLE>
    384c:	54534145 			@ <UNDEFINED> instruction: 54534145
    3850:	4d5f3631 			@ <UNDEFINED> instruction: 4d5f3631
    3854:	5f205841 			@ <UNDEFINED> instruction: 5f205841
    3858:	544e495f 			@ <UNDEFINED> instruction: 544e495f
    385c:	41454c5f 			@ <UNDEFINED> instruction: 41454c5f
    3860:	36315453 			@ <UNDEFINED> instruction: 36315453
    3864:	58414d5f 			@ <UNDEFINED> instruction: 58414d5f
    3868:	5f005f5f 			@ <UNDEFINED> instruction: 5f005f5f
    386c:	52464c5f 			@ <UNDEFINED> instruction: 52464c5f
    3870:	5f544341 			@ <UNDEFINED> instruction: 5f544341
    3874:	5f58414d 			@ <UNDEFINED> instruction: 5f58414d
    3878:	5830205f 			@ <UNDEFINED> instruction: 5830205f
    387c:	46464637 			@ <UNDEFINED> instruction: 46464637
    3880:	46464646 			@ <UNDEFINED> instruction: 46464646
    3884:	31332d50 			@ <UNDEFINED> instruction: 31332d50
    3888:	5f00524c 			@ <UNDEFINED> instruction: 5f00524c
    388c:	5a49535f 			@ <UNDEFINED> instruction: 5a49535f
    3890:	5f464f45 			@ <UNDEFINED> instruction: 5f464f45
    3894:	44525450 			@ <UNDEFINED> instruction: 44525450
    3898:	5f464649 			@ <UNDEFINED> instruction: 5f464649
    389c:	205f5f54 			@ <UNDEFINED> instruction: 205f5f54
    38a0:	505f0034 			@ <UNDEFINED> instruction: 505f0034
    38a4:	49445254 			@ <UNDEFINED> instruction: 49445254
    38a8:	545f4646 			@ <UNDEFINED> instruction: 545f4646
    38ac:	4345445f 	movtmi	r4, #21599	@ 0x545f
    38b0:	4552414c 			@ <UNDEFINED> instruction: 4552414c
    38b4:	5f002044 			@ <UNDEFINED> instruction: 5f002044
    38b8:	4d52415f 			@ <UNDEFINED> instruction: 4d52415f
    38bc:	4145465f 			@ <UNDEFINED> instruction: 4145465f
    38c0:	45525554 			@ <UNDEFINED> instruction: 45525554
    38c4:	4944495f 			@ <UNDEFINED> instruction: 4944495f
    38c8:	00312056 			@ <UNDEFINED> instruction: 00312056
    38cc:	54524155 			@ <UNDEFINED> instruction: 54524155
    38d0:	5252455f 			@ <UNDEFINED> instruction: 5252455f
    38d4:	564e495f 			@ <UNDEFINED> instruction: 564e495f
    38d8:	44494c41 			@ <UNDEFINED> instruction: 44494c41
    38dc:	444f4d5f 			@ <UNDEFINED> instruction: 444f4d5f
    38e0:	5f5f0045 			@ <UNDEFINED> instruction: 5f5f0045
    38e4:	414f4c46 			@ <UNDEFINED> instruction: 414f4c46
    38e8:	4f575f54 			@ <UNDEFINED> instruction: 4f575f54
    38ec:	4f5f4452 			@ <UNDEFINED> instruction: 4f5f4452
    38f0:	52454452 			@ <UNDEFINED> instruction: 52454452
    38f4:	5f205f5f 			@ <UNDEFINED> instruction: 5f205f5f
    38f8:	44524f5f 			@ <UNDEFINED> instruction: 44524f5f
    38fc:	4c5f5245 	mrrcmi	2, 4, r5, pc, cr5	@ <UNPREDICTABLE>
    3900:	4c545449 	mrrcmi	4, 4, r5, r4, cr9
    3904:	4e455f45 			@ <UNDEFINED> instruction: 4e455f45
    3908:	4e414944 			@ <UNDEFINED> instruction: 4e414944
    390c:	47005f5f 	smlsdmi	r0, pc, pc, r5	@ <UNPREDICTABLE>
    3910:	5f4f4950 			@ <UNDEFINED> instruction: 5f4f4950
    3914:	524b434c 			@ <UNDEFINED> instruction: 524b434c
    3918:	46464f5f 			@ <UNDEFINED> instruction: 46464f5f
    391c:	20544553 			@ <UNDEFINED> instruction: 20544553
    3920:	43317830 			@ <UNDEFINED> instruction: 43317830
    3924:	5f004c55 			@ <UNDEFINED> instruction: 5f004c55
    3928:	5f434347 			@ <UNDEFINED> instruction: 5f434347
    392c:	41484357 			@ <UNDEFINED> instruction: 41484357
    3930:	20545f52 			@ <UNDEFINED> instruction: 20545f52
    3934:	41535500 			@ <UNDEFINED> instruction: 41535500
    3938:	535f5452 			@ <UNDEFINED> instruction: 535f5452
    393c:	54435f52 			@ <UNDEFINED> instruction: 54435f52
    3940:	31282053 	qsubcc	r2, r3, r8
    3944:	3c204c55 			@ <UNDEFINED> instruction: 3c204c55
    3948:	2939203c 			@ <UNDEFINED> instruction: 2939203c
    394c:	555f5f00 			@ <UNDEFINED> instruction: 555f5f00
    3950:	5f544e49 			@ <UNDEFINED> instruction: 5f544e49
    3954:	5341454c 	movtpl	r4, #5452	@ 0x154c
    3958:	545f3854 			@ <UNDEFINED> instruction: 545f3854
    395c:	5f455059 			@ <UNDEFINED> instruction: 5f455059
    3960:	6e75205f 			@ <UNDEFINED> instruction: 6e75205f
    3964:	6e676973 			@ <UNDEFINED> instruction: 6e676973
    3968:	63206465 			@ <UNDEFINED> instruction: 63206465
    396c:	00726168 			@ <UNDEFINED> instruction: 00726168
    3970:	52415355 			@ <UNDEFINED> instruction: 52415355
    3974:	52435f54 			@ <UNDEFINED> instruction: 52435f54
    3978:	54535f32 			@ <UNDEFINED> instruction: 54535f32
    397c:	325f504f 			@ <UNDEFINED> instruction: 325f504f
    3980:	78302820 			@ <UNDEFINED> instruction: 78302820
    3984:	204c5532 			@ <UNDEFINED> instruction: 204c5532
    3988:	31203c3c 			@ <UNDEFINED> instruction: 31203c3c
    398c:	55002932 			@ <UNDEFINED> instruction: 55002932
    3990:	54524153 			@ <UNDEFINED> instruction: 54524153
    3994:	5252425f 			@ <UNDEFINED> instruction: 5252425f
    3998:	46464f5f 			@ <UNDEFINED> instruction: 46464f5f
    399c:	20544553 			@ <UNDEFINED> instruction: 20544553
    39a0:	38307830 			@ <UNDEFINED> instruction: 38307830
    39a4:	55004c55 			@ <UNDEFINED> instruction: 55004c55
    39a8:	36544e49 			@ <UNDEFINED> instruction: 36544e49
    39ac:	414d5f34 			@ <UNDEFINED> instruction: 414d5f34
    39b0:	5f5f2058 			@ <UNDEFINED> instruction: 5f5f2058
    39b4:	544e4955 			@ <UNDEFINED> instruction: 544e4955
    39b8:	4d5f3436 			@ <UNDEFINED> instruction: 4d5f3436
    39bc:	5f5f5841 			@ <UNDEFINED> instruction: 5f5f5841
    39c0:	49504700 			@ <UNDEFINED> instruction: 49504700
    39c4:	46415f4f 			@ <UNDEFINED> instruction: 46415f4f
    39c8:	78302032 			@ <UNDEFINED> instruction: 78302032
    39cc:	00553230 			@ <UNDEFINED> instruction: 00553230
    39d0:	38544e49 			@ <UNDEFINED> instruction: 38544e49
    39d4:	4e494d5f 			@ <UNDEFINED> instruction: 4e494d5f
    39d8:	41535500 			@ <UNDEFINED> instruction: 41535500
    39dc:	5f365452 			@ <UNDEFINED> instruction: 5f365452
    39e0:	20335243 			@ <UNDEFINED> instruction: 20335243
    39e4:	33474552 	movtcc	r4, #30034	@ 0x7552
    39e8:	53552832 			@ <UNDEFINED> instruction: 53552832
    39ec:	36545241 			@ <UNDEFINED> instruction: 36545241
    39f0:	5341425f 	movtpl	r4, #4703	@ 0x125f
    39f4:	55202c45 			@ <UNDEFINED> instruction: 55202c45
    39f8:	54524153 			@ <UNDEFINED> instruction: 54524153
    39fc:	3352435f 			@ <UNDEFINED> instruction: 3352435f
    3a00:	46464f5f 			@ <UNDEFINED> instruction: 46464f5f
    3a04:	29544553 			@ <UNDEFINED> instruction: 29544553
    3a08:	555f5f00 			@ <UNDEFINED> instruction: 555f5f00
    3a0c:	465f4153 			@ <UNDEFINED> instruction: 465f4153
    3a10:	5f544942 			@ <UNDEFINED> instruction: 5f544942
    3a14:	3631205f 			@ <UNDEFINED> instruction: 3631205f
    3a18:	4e495500 			@ <UNDEFINED> instruction: 4e495500
    3a1c:	58414d54 			@ <UNDEFINED> instruction: 58414d54
    3a20:	6328435f 			@ <UNDEFINED> instruction: 6328435f
    3a24:	5f5f2029 			@ <UNDEFINED> instruction: 5f5f2029
    3a28:	544e4955 			@ <UNDEFINED> instruction: 544e4955
    3a2c:	5f58414d 			@ <UNDEFINED> instruction: 5f58414d
    3a30:	29632843 			@ <UNDEFINED> instruction: 29632843
    3a34:	63637200 			@ <UNDEFINED> instruction: 63637200
    3a38:	7469625f 			@ <UNDEFINED> instruction: 7469625f
    3a3c:	63637200 			@ <UNDEFINED> instruction: 63637200
    3a40:	6270615f 			@ <UNDEFINED> instruction: 6270615f
    3a44:	6765725f 			@ <UNDEFINED> instruction: 6765725f
    3a48:	4c5f5f00 	mrrcmi	15, 0, r5, pc, cr0	@ <UNPREDICTABLE>
    3a4c:	5f4c4244 			@ <UNDEFINED> instruction: 5f4c4244
    3a50:	5f4e494d 			@ <UNDEFINED> instruction: 5f4e494d
    3a54:	455f3031 			@ <UNDEFINED> instruction: 455f3031
    3a58:	5f5f5058 			@ <UNDEFINED> instruction: 5f5f5058
    3a5c:	332d2820 			@ <UNDEFINED> instruction: 332d2820
    3a60:	00293730 			@ <UNDEFINED> instruction: 00293730
    3a64:	5f544e49 			@ <UNDEFINED> instruction: 5f544e49
    3a68:	5341454c 	movtpl	r4, #5452	@ 0x154c
    3a6c:	5f363154 			@ <UNDEFINED> instruction: 5f363154
    3a70:	204e494d 			@ <UNDEFINED> instruction: 204e494d
    3a74:	4e492d28 			@ <UNDEFINED> instruction: 4e492d28
    3a78:	454c5f54 			@ <UNDEFINED> instruction: 454c5f54
    3a7c:	31545341 			@ <UNDEFINED> instruction: 31545341
    3a80:	414d5f36 			@ <UNDEFINED> instruction: 414d5f36
    3a84:	202d2058 			@ <UNDEFINED> instruction: 202d2058
    3a88:	5f002931 			@ <UNDEFINED> instruction: 5f002931
    3a8c:	544c465f 			@ <UNDEFINED> instruction: 544c465f
    3a90:	5341485f 	movtpl	r4, #6239	@ 0x185f
    3a94:	4955515f 			@ <UNDEFINED> instruction: 4955515f
    3a98:	4e5f5445 			@ <UNDEFINED> instruction: 4e5f5445
    3a9c:	5f5f4e41 			@ <UNDEFINED> instruction: 5f5f4e41
    3aa0:	5f003120 			@ <UNDEFINED> instruction: 5f003120
    3aa4:	4343475f 	movtmi	r4, #14175	@ 0x375f
    3aa8:	4f54415f 			@ <UNDEFINED> instruction: 4f54415f
    3aac:	5f43494d 			@ <UNDEFINED> instruction: 5f43494d
    3ab0:	52414843 			@ <UNDEFINED> instruction: 52414843
    3ab4:	434f4c5f 	movtmi	r4, #64607	@ 0xfc5f
    3ab8:	52465f4b 			@ <UNDEFINED> instruction: 52465f4b
    3abc:	32204545 			@ <UNDEFINED> instruction: 32204545
    3ac0:	49504700 			@ <UNDEFINED> instruction: 49504700
    3ac4:	544f5f4f 			@ <UNDEFINED> instruction: 544f5f4f
    3ac8:	52455059 			@ <UNDEFINED> instruction: 52455059
    3acc:	46464f5f 			@ <UNDEFINED> instruction: 46464f5f
    3ad0:	20544553 			@ <UNDEFINED> instruction: 20544553
    3ad4:	34307830 			@ <UNDEFINED> instruction: 34307830
    3ad8:	5f004c55 			@ <UNDEFINED> instruction: 5f004c55
    3adc:	52464c5f 			@ <UNDEFINED> instruction: 52464c5f
    3ae0:	5f544341 			@ <UNDEFINED> instruction: 5f544341
    3ae4:	49535045 			@ <UNDEFINED> instruction: 49535045
    3ae8:	5f4e4f4c 			@ <UNDEFINED> instruction: 5f4e4f4c
    3aec:	7830205f 			@ <UNDEFINED> instruction: 7830205f
    3af0:	332d5031 			@ <UNDEFINED> instruction: 332d5031
    3af4:	00524c31 			@ <UNDEFINED> instruction: 00524c31
    3af8:	54535953 			@ <UNDEFINED> instruction: 54535953
    3afc:	5f4b4349 			@ <UNDEFINED> instruction: 5f4b4349
    3b00:	494c4143 			@ <UNDEFINED> instruction: 494c4143
    3b04:	45522042 			@ <UNDEFINED> instruction: 45522042
    3b08:	28323347 			@ <UNDEFINED> instruction: 28323347
    3b0c:	54535953 			@ <UNDEFINED> instruction: 54535953
    3b10:	5f4b4349 			@ <UNDEFINED> instruction: 5f4b4349
    3b14:	45534142 			@ <UNDEFINED> instruction: 45534142
    3b18:	5953202c 			@ <UNDEFINED> instruction: 5953202c
    3b1c:	43495453 	movtmi	r5, #37971	@ 0x9453
    3b20:	41435f4b 			@ <UNDEFINED> instruction: 41435f4b
    3b24:	5f42494c 			@ <UNDEFINED> instruction: 5f42494c
    3b28:	5346464f 	movtpl	r4, #26191	@ 0x664f
    3b2c:	00295445 			@ <UNDEFINED> instruction: 00295445
    3b30:	5f434352 			@ <UNDEFINED> instruction: 5f434352
    3b34:	32425041 			@ <UNDEFINED> instruction: 32425041
    3b38:	5f524e45 			@ <UNDEFINED> instruction: 5f524e45
    3b3c:	52415355 			@ <UNDEFINED> instruction: 52415355
    3b40:	4e453154 			@ <UNDEFINED> instruction: 4e453154
    3b44:	55312820 			@ <UNDEFINED> instruction: 55312820
    3b48:	3c3c204c 			@ <UNDEFINED> instruction: 3c3c204c
    3b4c:	00293420 			@ <UNDEFINED> instruction: 00293420
    3b50:	52415f5f 			@ <UNDEFINED> instruction: 52415f5f
    3b54:	49535f4d 			@ <UNDEFINED> instruction: 49535f4d
    3b58:	464f455a 			@ <UNDEFINED> instruction: 464f455a
    3b5c:	4e494d5f 			@ <UNDEFINED> instruction: 4e494d5f
    3b60:	4c414d49 	mcrrmi	13, 4, r4, r1, cr9
    3b64:	554e455f 			@ <UNDEFINED> instruction: 554e455f
    3b68:	0031204d 			@ <UNDEFINED> instruction: 0031204d
    3b6c:	4c465f5f 	mcrrmi	15, 5, r5, r6, cr15
    3b70:	58323354 			@ <UNDEFINED> instruction: 58323354
    3b74:	524f4e5f 			@ <UNDEFINED> instruction: 524f4e5f
    3b78:	414d5f4d 			@ <UNDEFINED> instruction: 414d5f4d
    3b7c:	205f5f58 			@ <UNDEFINED> instruction: 205f5f58
    3b80:	39372e31 			@ <UNDEFINED> instruction: 39372e31
    3b84:	33393637 			@ <UNDEFINED> instruction: 33393637
    3b88:	38343331 			@ <UNDEFINED> instruction: 38343331
    3b8c:	31333236 			@ <UNDEFINED> instruction: 31333236
    3b90:	2b653735 			@ <UNDEFINED> instruction: 2b653735
    3b94:	46383033 			@ <UNDEFINED> instruction: 46383033
    3b98:	00783233 			@ <UNDEFINED> instruction: 00783233
    3b9c:	72615f5f 			@ <UNDEFINED> instruction: 72615f5f
    3ba0:	205f5f6d 			@ <UNDEFINED> instruction: 205f5f6d
    3ba4:	5f5f0031 			@ <UNDEFINED> instruction: 5f5f0031
    3ba8:	43415246 	movtmi	r5, #4678	@ 0x1246
    3bac:	50455f54 			@ <UNDEFINED> instruction: 50455f54
    3bb0:	4f4c4953 			@ <UNDEFINED> instruction: 4f4c4953
    3bb4:	205f5f4e 			@ <UNDEFINED> instruction: 205f5f4e
    3bb8:	50317830 			@ <UNDEFINED> instruction: 50317830
    3bbc:	5235312d 			@ <UNDEFINED> instruction: 5235312d
    3bc0:	43435200 	movtmi	r5, #12800	@ 0x3200
    3bc4:	4250415f 			@ <UNDEFINED> instruction: 4250415f
    3bc8:	524e4531 			@ <UNDEFINED> instruction: 524e4531
    3bcc:	5241555f 			@ <UNDEFINED> instruction: 5241555f
    3bd0:	4e453454 			@ <UNDEFINED> instruction: 4e453454
    3bd4:	55312820 			@ <UNDEFINED> instruction: 55312820
    3bd8:	3c3c204c 			@ <UNDEFINED> instruction: 3c3c204c
    3bdc:	29393120 			@ <UNDEFINED> instruction: 29393120
    3be0:	465f5f00 			@ <UNDEFINED> instruction: 465f5f00
    3be4:	3233544c 			@ <UNDEFINED> instruction: 3233544c
    3be8:	4e494d5f 			@ <UNDEFINED> instruction: 4e494d5f
    3bec:	5f30315f 			@ <UNDEFINED> instruction: 5f30315f
    3bf0:	5f505845 			@ <UNDEFINED> instruction: 5f505845
    3bf4:	2d28205f 			@ <UNDEFINED> instruction: 2d28205f
    3bf8:	00293733 			@ <UNDEFINED> instruction: 00293733
    3bfc:	52415355 			@ <UNDEFINED> instruction: 52415355
    3c00:	52535f54 			@ <UNDEFINED> instruction: 52535f54
    3c04:	2045505f 			@ <UNDEFINED> instruction: 2045505f
    3c08:	4c553128 	mrrcmi	1, 2, r3, r5, cr8
    3c0c:	203c3c20 			@ <UNDEFINED> instruction: 203c3c20
    3c10:	47002930 	smladxmi	r0, r0, r9, r2
    3c14:	414f4950 			@ <UNDEFINED> instruction: 414f4950
    3c18:	59544f5f 			@ <UNDEFINED> instruction: 59544f5f
    3c1c:	20524550 			@ <UNDEFINED> instruction: 20524550
    3c20:	33474552 	movtcc	r4, #30034	@ 0x7552
    3c24:	50472832 			@ <UNDEFINED> instruction: 50472832
    3c28:	5f414f49 			@ <UNDEFINED> instruction: 5f414f49
    3c2c:	45534142 			@ <UNDEFINED> instruction: 45534142
    3c30:	5047202c 			@ <UNDEFINED> instruction: 5047202c
    3c34:	4f5f4f49 			@ <UNDEFINED> instruction: 4f5f4f49
    3c38:	45505954 			@ <UNDEFINED> instruction: 45505954
    3c3c:	464f5f52 			@ <UNDEFINED> instruction: 464f5f52
    3c40:	54455346 			@ <UNDEFINED> instruction: 54455346
    3c44:	59530029 			@ <UNDEFINED> instruction: 59530029
    3c48:	43495453 	movtmi	r5, #37971	@ 0x9453
    3c4c:	54435f4b 			@ <UNDEFINED> instruction: 54435f4b
    3c50:	52204c52 			@ <UNDEFINED> instruction: 52204c52
    3c54:	32334745 			@ <UNDEFINED> instruction: 32334745
    3c58:	53595328 			@ <UNDEFINED> instruction: 53595328
    3c5c:	4b434954 			@ <UNDEFINED> instruction: 4b434954
    3c60:	5341425f 	movtpl	r4, #4703	@ 0x125f
    3c64:	53202c45 			@ <UNDEFINED> instruction: 53202c45
    3c68:	49545359 			@ <UNDEFINED> instruction: 49545359
    3c6c:	435f4b43 			@ <UNDEFINED> instruction: 435f4b43
    3c70:	5f4c5254 			@ <UNDEFINED> instruction: 5f4c5254
    3c74:	5346464f 	movtpl	r4, #26191	@ 0x664f
    3c78:	00295445 			@ <UNDEFINED> instruction: 00295445
    3c7c:	38544e49 			@ <UNDEFINED> instruction: 38544e49
    3c80:	58414d5f 			@ <UNDEFINED> instruction: 58414d5f
    3c84:	495f5f20 			@ <UNDEFINED> instruction: 495f5f20
    3c88:	5f38544e 			@ <UNDEFINED> instruction: 5f38544e
    3c8c:	5f58414d 			@ <UNDEFINED> instruction: 5f58414d
    3c90:	5f5f005f 			@ <UNDEFINED> instruction: 5f5f005f
    3c94:	5f4d5241 			@ <UNDEFINED> instruction: 5f4d5241
    3c98:	36315046 			@ <UNDEFINED> instruction: 36315046
    3c9c:	524f465f 			@ <UNDEFINED> instruction: 524f465f
    3ca0:	5f54414d 			@ <UNDEFINED> instruction: 5f54414d
    3ca4:	45544c41 			@ <UNDEFINED> instruction: 45544c41
    3ca8:	54414e52 			@ <UNDEFINED> instruction: 54414e52
    3cac:	00455649 			@ <UNDEFINED> instruction: 00455649
    3cb0:	5f434352 			@ <UNDEFINED> instruction: 5f434352
    3cb4:	52474643 			@ <UNDEFINED> instruction: 52474643
    3cb8:	5f57535f 			@ <UNDEFINED> instruction: 5f57535f
    3cbc:	204c4c50 			@ <UNDEFINED> instruction: 204c4c50
    3cc0:	32783028 			@ <UNDEFINED> instruction: 32783028
    3cc4:	00294c55 			@ <UNDEFINED> instruction: 00294c55
    3cc8:	444c5f5f 			@ <UNDEFINED> instruction: 444c5f5f
    3ccc:	4e5f4c42 			@ <UNDEFINED> instruction: 4e5f4c42
    3cd0:	5f4d524f 			@ <UNDEFINED> instruction: 5f4d524f
    3cd4:	5f58414d 			@ <UNDEFINED> instruction: 5f58414d
    3cd8:	2e31205f 			@ <UNDEFINED> instruction: 2e31205f
    3cdc:	36373937 			@ <UNDEFINED> instruction: 36373937
    3ce0:	33313339 			@ <UNDEFINED> instruction: 33313339
    3ce4:	32363834 			@ <UNDEFINED> instruction: 32363834
    3ce8:	37353133 			@ <UNDEFINED> instruction: 37353133
    3cec:	30332b65 			@ <UNDEFINED> instruction: 30332b65
    3cf0:	47004c38 	smladxmi	r0, r8, ip, r4
    3cf4:	5f4f4950 			@ <UNDEFINED> instruction: 5f4f4950
    3cf8:	5f525245 			@ <UNDEFINED> instruction: 5f525245
    3cfc:	41564e49 			@ <UNDEFINED> instruction: 41564e49
    3d00:	5f44494c 			@ <UNDEFINED> instruction: 5f44494c
    3d04:	004e4950 			@ <UNDEFINED> instruction: 004e4950
    3d08:	50544e49 			@ <UNDEFINED> instruction: 50544e49
    3d0c:	4d5f5254 			@ <UNDEFINED> instruction: 4d5f5254
    3d10:	5f004e49 			@ <UNDEFINED> instruction: 5f004e49
    3d14:	4749425f 	smlsldmi	r4, r9, pc, r2	@ <UNPREDICTABLE>
    3d18:	54534547 			@ <UNDEFINED> instruction: 54534547
    3d1c:	494c415f 			@ <UNDEFINED> instruction: 494c415f
    3d20:	454d4e47 			@ <UNDEFINED> instruction: 454d4e47
    3d24:	5f5f544e 			@ <UNDEFINED> instruction: 5f5f544e
    3d28:	53003820 	movwpl	r3, #2080	@ 0x820
    3d2c:	69547379 			@ <UNDEFINED> instruction: 69547379
    3d30:	495f6b63 			@ <UNDEFINED> instruction: 495f6b63
    3d34:	0074696e 			@ <UNDEFINED> instruction: 0074696e
    3d38:	4343475f 	movtmi	r4, #14175	@ 0x375f
    3d3c:	5254505f 			@ <UNDEFINED> instruction: 5254505f
    3d40:	46464944 			@ <UNDEFINED> instruction: 46464944
    3d44:	0020545f 			@ <UNDEFINED> instruction: 0020545f
    3d48:	41545f5f 			@ <UNDEFINED> instruction: 41545f5f
    3d4c:	4942495f 			@ <UNDEFINED> instruction: 4942495f
    3d50:	205f5f54 			@ <UNDEFINED> instruction: 205f5f54
    3d54:	5f003436 			@ <UNDEFINED> instruction: 5f003436
    3d58:	4d52415f 			@ <UNDEFINED> instruction: 4d52415f
    3d5c:	4145465f 			@ <UNDEFINED> instruction: 4145465f
    3d60:	45525554 			@ <UNDEFINED> instruction: 45525554
    3d64:	4452515f 			@ <UNDEFINED> instruction: 4452515f
    3d68:	5200584d 			@ <UNDEFINED> instruction: 5200584d
    3d6c:	415f4343 			@ <UNDEFINED> instruction: 415f4343
    3d70:	45334248 			@ <UNDEFINED> instruction: 45334248
    3d74:	4f5f524e 			@ <UNDEFINED> instruction: 4f5f524e
    3d78:	45534646 			@ <UNDEFINED> instruction: 45534646
    3d7c:	78302054 			@ <UNDEFINED> instruction: 78302054
    3d80:	4c553833 	mrrcmi	8, 3, r3, r5, cr3
    3d84:	4c5f5f00 	mrrcmi	15, 0, r5, pc, cr0	@ <UNPREDICTABLE>
    3d88:	5f474e4f 			@ <UNDEFINED> instruction: 5f474e4f
    3d8c:	474e4f4c 			@ <UNDEFINED> instruction: 474e4f4c
    3d90:	58414d5f 			@ <UNDEFINED> instruction: 58414d5f
    3d94:	30205f5f 			@ <UNDEFINED> instruction: 30205f5f
    3d98:	66663778 			@ <UNDEFINED> instruction: 66663778
    3d9c:	66666666 			@ <UNDEFINED> instruction: 66666666
    3da0:	66666666 			@ <UNDEFINED> instruction: 66666666
    3da4:	66666666 			@ <UNDEFINED> instruction: 66666666
    3da8:	004c4c66 			@ <UNDEFINED> instruction: 004c4c66
    3dac:	676e6f6c 			@ <UNDEFINED> instruction: 676e6f6c
    3db0:	756f6420 			@ <UNDEFINED> instruction: 756f6420
    3db4:	00656c62 			@ <UNDEFINED> instruction: 00656c62
    3db8:	52415355 			@ <UNDEFINED> instruction: 52415355
    3dbc:	52435f54 			@ <UNDEFINED> instruction: 52435f54
    3dc0:	44485f33 			@ <UNDEFINED> instruction: 44485f33
    3dc4:	204c4553 			@ <UNDEFINED> instruction: 204c4553
    3dc8:	4c553128 	mrrcmi	1, 2, r3, r5, cr8
    3dcc:	203c3c20 			@ <UNDEFINED> instruction: 203c3c20
    3dd0:	53002933 	movwpl	r2, #2355	@ 0x933
    3dd4:	415f4749 			@ <UNDEFINED> instruction: 415f4749
    3dd8:	494d4f54 			@ <UNDEFINED> instruction: 494d4f54
    3ddc:	414d5f43 			@ <UNDEFINED> instruction: 414d5f43
    3de0:	5f5f2058 			@ <UNDEFINED> instruction: 5f5f2058
    3de4:	5f474953 			@ <UNDEFINED> instruction: 5f474953
    3de8:	4d4f5441 			@ <UNDEFINED> instruction: 4d4f5441
    3dec:	4d5f4349 			@ <UNDEFINED> instruction: 4d5f4349
    3df0:	5f5f5841 			@ <UNDEFINED> instruction: 5f5f5841
    3df4:	555f5f00 			@ <UNDEFINED> instruction: 555f5f00
    3df8:	495f5153 			@ <UNDEFINED> instruction: 495f5153
    3dfc:	5f544942 			@ <UNDEFINED> instruction: 5f544942
    3e00:	0030205f 			@ <UNDEFINED> instruction: 0030205f
    3e04:	5f434352 			@ <UNDEFINED> instruction: 5f434352
    3e08:	45534142 			@ <UNDEFINED> instruction: 45534142
    3e0c:	34783020 			@ <UNDEFINED> instruction: 34783020
    3e10:	33323030 			@ <UNDEFINED> instruction: 33323030
    3e14:	55303038 			@ <UNDEFINED> instruction: 55303038
    3e18:	4955004c 			@ <UNDEFINED> instruction: 4955004c
    3e1c:	4c5f544e 	mrrcmi	4, 4, r5, pc, cr14	@ <UNPREDICTABLE>
    3e20:	54534145 			@ <UNDEFINED> instruction: 54534145
    3e24:	4d5f3631 			@ <UNDEFINED> instruction: 4d5f3631
    3e28:	5f005841 			@ <UNDEFINED> instruction: 5f005841
    3e2c:	5246555f 			@ <UNDEFINED> instruction: 5246555f
    3e30:	5f544341 			@ <UNDEFINED> instruction: 5f544341
    3e34:	54494249 			@ <UNDEFINED> instruction: 54494249
    3e38:	30205f5f 			@ <UNDEFINED> instruction: 30205f5f
    3e3c:	415f5f00 			@ <UNDEFINED> instruction: 415f5f00
    3e40:	335f4d52 			@ <UNDEFINED> instruction: 335f4d52
    3e44:	54494232 			@ <UNDEFINED> instruction: 54494232
    3e48:	4154535f 			@ <UNDEFINED> instruction: 4154535f
    3e4c:	31204554 			@ <UNDEFINED> instruction: 31204554
    3e50:	43475f00 	movtmi	r5, #32512	@ 0x7f00
    3e54:	54535f43 			@ <UNDEFINED> instruction: 54535f43
    3e58:	544e4944 			@ <UNDEFINED> instruction: 544e4944
    3e5c:	0020485f 			@ <UNDEFINED> instruction: 0020485f
    3e60:	4e495f5f 			@ <UNDEFINED> instruction: 4e495f5f
    3e64:	435f3854 			@ <UNDEFINED> instruction: 435f3854
    3e68:	20296328 			@ <UNDEFINED> instruction: 20296328
    3e6c:	5f5f0063 			@ <UNDEFINED> instruction: 5f5f0063
    3e70:	4152464c 			@ <UNDEFINED> instruction: 4152464c
    3e74:	495f5443 			@ <UNDEFINED> instruction: 495f5443
    3e78:	5f544942 			@ <UNDEFINED> instruction: 5f544942
    3e7c:	0030205f 			@ <UNDEFINED> instruction: 0030205f
    3e80:	5f434352 			@ <UNDEFINED> instruction: 5f434352
    3e84:	485f5243 			@ <UNDEFINED> instruction: 485f5243
    3e88:	59424553 			@ <UNDEFINED> instruction: 59424553
    3e8c:	31282050 	qsubcc	r2, r0, r8
    3e90:	3c204c55 			@ <UNDEFINED> instruction: 3c204c55
    3e94:	3831203c 			@ <UNDEFINED> instruction: 3831203c
    3e98:	535f0029 			@ <UNDEFINED> instruction: 535f0029
    3e9c:	45444454 			@ <UNDEFINED> instruction: 45444454
    3ea0:	5f485f46 			@ <UNDEFINED> instruction: 5f485f46
    3ea4:	4e490020 			@ <UNDEFINED> instruction: 4e490020
    3ea8:	454c5f54 			@ <UNDEFINED> instruction: 454c5f54
    3eac:	36545341 			@ <UNDEFINED> instruction: 36545341
    3eb0:	494d5f34 			@ <UNDEFINED> instruction: 494d5f34
    3eb4:	2d28204e 			@ <UNDEFINED> instruction: 2d28204e
    3eb8:	5f544e49 			@ <UNDEFINED> instruction: 5f544e49
    3ebc:	5341454c 	movtpl	r4, #5452	@ 0x154c
    3ec0:	5f343654 			@ <UNDEFINED> instruction: 5f343654
    3ec4:	2058414d 			@ <UNDEFINED> instruction: 2058414d
    3ec8:	2931202d 			@ <UNDEFINED> instruction: 2931202d
    3ecc:	445f5f00 			@ <UNDEFINED> instruction: 445f5f00
    3ed0:	4d5f4c42 			@ <UNDEFINED> instruction: 4d5f4c42
    3ed4:	455f4e49 			@ <UNDEFINED> instruction: 455f4e49
    3ed8:	5f5f5058 			@ <UNDEFINED> instruction: 5f5f5058
    3edc:	312d2820 			@ <UNDEFINED> instruction: 312d2820
    3ee0:	29313230 			@ <UNDEFINED> instruction: 29313230
    3ee4:	535f5f00 			@ <UNDEFINED> instruction: 535f5f00
    3ee8:	5f455a49 			@ <UNDEFINED> instruction: 5f455a49
    3eec:	47002054 	smlsdmi	r0, r4, r0, r2
    3ef0:	5f4f4950 			@ <UNDEFINED> instruction: 5f4f4950
    3ef4:	44505550 			@ <UNDEFINED> instruction: 44505550
    3ef8:	55505f52 			@ <UNDEFINED> instruction: 55505f52
    3efc:	50554c4c 			@ <UNDEFINED> instruction: 50554c4c
    3f00:	30783020 			@ <UNDEFINED> instruction: 30783020
    3f04:	49005531 			@ <UNDEFINED> instruction: 49005531
    3f08:	5f38544e 			@ <UNDEFINED> instruction: 5f38544e
    3f0c:	204e494d 			@ <UNDEFINED> instruction: 204e494d
    3f10:	4e492d28 			@ <UNDEFINED> instruction: 4e492d28
    3f14:	4d5f3854 			@ <UNDEFINED> instruction: 4d5f3854
    3f18:	2d205841 			@ <UNDEFINED> instruction: 2d205841
    3f1c:	00293120 			@ <UNDEFINED> instruction: 00293120
    3f20:	4c465f5f 	mcrrmi	15, 5, r5, r6, cr15
    3f24:	5f323354 			@ <UNDEFINED> instruction: 5f323354
    3f28:	5f474944 			@ <UNDEFINED> instruction: 5f474944
    3f2c:	0036205f 			@ <UNDEFINED> instruction: 0036205f
    3f30:	544e4955 			@ <UNDEFINED> instruction: 544e4955
    3f34:	41454c5f 			@ <UNDEFINED> instruction: 41454c5f
    3f38:	34365453 			@ <UNDEFINED> instruction: 34365453
    3f3c:	58414d5f 			@ <UNDEFINED> instruction: 58414d5f
    3f40:	726f7700 			@ <UNDEFINED> instruction: 726f7700
    3f44:	656c5f64 			@ <UNDEFINED> instruction: 656c5f64
    3f48:	6874676e 			@ <UNDEFINED> instruction: 6874676e
    3f4c:	49504700 			@ <UNDEFINED> instruction: 49504700
    3f50:	53425f4f 	movtpl	r5, #12111	@ 0x2f4f
    3f54:	535f5252 			@ <UNDEFINED> instruction: 535f5252
    3f58:	4f5f5445 			@ <UNDEFINED> instruction: 4f5f5445
    3f5c:	45534646 			@ <UNDEFINED> instruction: 45534646
    3f60:	55302054 			@ <UNDEFINED> instruction: 55302054
    3f64:	43435200 	movtmi	r5, #12800	@ 0x3200
    3f68:	4250415f 			@ <UNDEFINED> instruction: 4250415f
    3f6c:	524e4531 			@ <UNDEFINED> instruction: 524e4531
    3f70:	5241555f 			@ <UNDEFINED> instruction: 5241555f
    3f74:	4e453554 			@ <UNDEFINED> instruction: 4e453554
    3f78:	55312820 			@ <UNDEFINED> instruction: 55312820
    3f7c:	3c3c204c 			@ <UNDEFINED> instruction: 3c3c204c
    3f80:	29303220 			@ <UNDEFINED> instruction: 29303220
    3f84:	43435200 	movtmi	r5, #12800	@ 0x3200
    3f88:	5f52435f 			@ <UNDEFINED> instruction: 5f52435f
    3f8c:	52495348 			@ <UNDEFINED> instruction: 52495348
    3f90:	28205944 			@ <UNDEFINED> instruction: 28205944
    3f94:	204c5531 			@ <UNDEFINED> instruction: 204c5531
    3f98:	31203c3c 			@ <UNDEFINED> instruction: 31203c3c
    3f9c:	5f5f0029 			@ <UNDEFINED> instruction: 5f5f0029
    3fa0:	4c42444c 	mcrrmi	4, 4, r4, r2, cr12
    3fa4:	5341485f 	movtpl	r4, #6239	@ 0x185f
    3fa8:	4e45445f 			@ <UNDEFINED> instruction: 4e45445f
    3fac:	5f4d524f 			@ <UNDEFINED> instruction: 5f4d524f
    3fb0:	0031205f 			@ <UNDEFINED> instruction: 0031205f
    3fb4:	41485f5f 			@ <UNDEFINED> instruction: 41485f5f
    3fb8:	535f4556 			@ <UNDEFINED> instruction: 535f4556
    3fbc:	55434550 			@ <UNDEFINED> instruction: 55434550
    3fc0:	4954414c 			@ <UNDEFINED> instruction: 4954414c
    3fc4:	535f4e4f 			@ <UNDEFINED> instruction: 535f4e4f
    3fc8:	5f454641 			@ <UNDEFINED> instruction: 5f454641
    3fcc:	554c4156 			@ <UNDEFINED> instruction: 554c4156
    3fd0:	00312045 			@ <UNDEFINED> instruction: 00312045
    3fd4:	41535f5f 			@ <UNDEFINED> instruction: 41535f5f
    3fd8:	4d554343 			@ <UNDEFINED> instruction: 4d554343
    3fdc:	4942465f 			@ <UNDEFINED> instruction: 4942465f
    3fe0:	205f5f54 			@ <UNDEFINED> instruction: 205f5f54
    3fe4:	43520037 			@ <UNDEFINED> instruction: 43520037
    3fe8:	48415f43 			@ <UNDEFINED> instruction: 48415f43
    3fec:	504c3142 			@ <UNDEFINED> instruction: 504c3142
    3ff0:	5f524e45 			@ <UNDEFINED> instruction: 5f524e45
    3ff4:	5346464f 	movtpl	r4, #26191	@ 0x664f
    3ff8:	30205445 			@ <UNDEFINED> instruction: 30205445
    3ffc:	55303578 			@ <UNDEFINED> instruction: 55303578
    4000:	5f5f004c 			@ <UNDEFINED> instruction: 5f5f004c
    4004:	55434341 			@ <UNDEFINED> instruction: 55434341
    4008:	494d5f4d 			@ <UNDEFINED> instruction: 494d5f4d
    400c:	205f5f4e 			@ <UNDEFINED> instruction: 205f5f4e
    4010:	58302d28 			@ <UNDEFINED> instruction: 58302d28
    4014:	35315031 			@ <UNDEFINED> instruction: 35315031
    4018:	58302d4b 			@ <UNDEFINED> instruction: 58302d4b
    401c:	35315031 			@ <UNDEFINED> instruction: 35315031
    4020:	5200294b 			@ <UNDEFINED> instruction: 5200294b
    4024:	415f4343 			@ <UNDEFINED> instruction: 415f4343
    4028:	52324250 			@ <UNDEFINED> instruction: 52324250
    402c:	5f525453 			@ <UNDEFINED> instruction: 5f525453
    4030:	5346464f 	movtpl	r4, #26191	@ 0x664f
    4034:	30205445 			@ <UNDEFINED> instruction: 30205445
    4038:	55343278 			@ <UNDEFINED> instruction: 55343278
    403c:	5f5f004c 			@ <UNDEFINED> instruction: 5f5f004c
    4040:	5f4d5241 			@ <UNDEFINED> instruction: 5f4d5241
    4044:	54414546 			@ <UNDEFINED> instruction: 54414546
    4048:	5f455255 			@ <UNDEFINED> instruction: 5f455255
    404c:	50595243 			@ <UNDEFINED> instruction: 50595243
    4050:	47004f54 	smlsdmi	r0, r4, pc, r4	@ <UNPREDICTABLE>
    4054:	5f4f4950 			@ <UNDEFINED> instruction: 5f4f4950
    4058:	74696e49 			@ <UNDEFINED> instruction: 74696e49
    405c:	495f5f00 			@ <UNDEFINED> instruction: 495f5f00
    4060:	4c5f544e 	mrrcmi	4, 4, r5, pc, cr14	@ <UNPREDICTABLE>
    4064:	54534145 			@ <UNDEFINED> instruction: 54534145
    4068:	545f3233 			@ <UNDEFINED> instruction: 545f3233
    406c:	5f455059 			@ <UNDEFINED> instruction: 5f455059
    4070:	6f6c205f 			@ <UNDEFINED> instruction: 6f6c205f
    4074:	6920676e 			@ <UNDEFINED> instruction: 6920676e
    4078:	5200746e 			@ <UNDEFINED> instruction: 5200746e
    407c:	415f4343 			@ <UNDEFINED> instruction: 415f4343
    4080:	45324250 			@ <UNDEFINED> instruction: 45324250
    4084:	4f5f524e 			@ <UNDEFINED> instruction: 4f5f524e
    4088:	45534646 			@ <UNDEFINED> instruction: 45534646
    408c:	78302054 			@ <UNDEFINED> instruction: 78302054
    4090:	4c553434 	mrrcmi	4, 3, r3, r5, cr4
    4094:	43435200 	movtmi	r5, #12800	@ 0x3200
    4098:	4c4c505f 	mcrrmi	0, 5, r5, ip, cr15
    409c:	43533249 			@ <UNDEFINED> instruction: 43533249
    40a0:	5f524746 			@ <UNDEFINED> instruction: 5f524746
    40a4:	5346464f 	movtpl	r4, #26191	@ 0x664f
    40a8:	30205445 			@ <UNDEFINED> instruction: 30205445
    40ac:	55343878 			@ <UNDEFINED> instruction: 55343878
    40b0:	5f5f004c 			@ <UNDEFINED> instruction: 5f5f004c
    40b4:	544e4955 			@ <UNDEFINED> instruction: 544e4955
    40b8:	41454c5f 			@ <UNDEFINED> instruction: 41454c5f
    40bc:	34365453 			@ <UNDEFINED> instruction: 34365453
    40c0:	58414d5f 			@ <UNDEFINED> instruction: 58414d5f
    40c4:	30205f5f 			@ <UNDEFINED> instruction: 30205f5f
    40c8:	66666678 			@ <UNDEFINED> instruction: 66666678
    40cc:	66666666 			@ <UNDEFINED> instruction: 66666666
    40d0:	66666666 			@ <UNDEFINED> instruction: 66666666
    40d4:	66666666 			@ <UNDEFINED> instruction: 66666666
    40d8:	4c4c5566 	mcrrmi	5, 6, r5, ip, cr6
    40dc:	465f5f00 			@ <UNDEFINED> instruction: 465f5f00
    40e0:	54434152 			@ <UNDEFINED> instruction: 54434152
    40e4:	4942495f 			@ <UNDEFINED> instruction: 4942495f
    40e8:	205f5f54 			@ <UNDEFINED> instruction: 205f5f54
    40ec:	5f5f0030 			@ <UNDEFINED> instruction: 5f5f0030
    40f0:	36544c46 			@ <UNDEFINED> instruction: 36544c46
    40f4:	53495f34 	movtpl	r5, #40756	@ 0x9f34
    40f8:	4345495f 	movtmi	r4, #22879	@ 0x595f
    40fc:	3530365f 			@ <UNDEFINED> instruction: 3530365f
    4100:	5f5f3935 			@ <UNDEFINED> instruction: 5f5f3935
    4104:	55003120 			@ <UNDEFINED> instruction: 55003120
    4108:	34545241 			@ <UNDEFINED> instruction: 34545241
    410c:	5f58525f 			@ <UNDEFINED> instruction: 5f58525f
    4110:	00314150 			@ <UNDEFINED> instruction: 00314150
    4114:	4f495047 			@ <UNDEFINED> instruction: 4f495047
    4118:	5244495f 			@ <UNDEFINED> instruction: 5244495f
    411c:	46464f5f 			@ <UNDEFINED> instruction: 46464f5f
    4120:	20544553 			@ <UNDEFINED> instruction: 20544553
    4124:	30317830 			@ <UNDEFINED> instruction: 30317830
    4128:	5f004c55 			@ <UNDEFINED> instruction: 5f004c55
    412c:	44524f5f 			@ <UNDEFINED> instruction: 44524f5f
    4130:	4c5f5245 	mrrcmi	2, 4, r5, pc, cr5	@ <UNPREDICTABLE>
    4134:	4c545449 	mrrcmi	4, 4, r5, r4, cr9
    4138:	4e455f45 			@ <UNDEFINED> instruction: 4e455f45
    413c:	4e414944 			@ <UNDEFINED> instruction: 4e414944
    4140:	31205f5f 			@ <UNDEFINED> instruction: 31205f5f
    4144:	00343332 			@ <UNDEFINED> instruction: 00343332
    4148:	54535953 			@ <UNDEFINED> instruction: 54535953
    414c:	5f4b4349 			@ <UNDEFINED> instruction: 5f4b4349
    4150:	44414f4c 			@ <UNDEFINED> instruction: 44414f4c
    4154:	46464f5f 			@ <UNDEFINED> instruction: 46464f5f
    4158:	20544553 			@ <UNDEFINED> instruction: 20544553
    415c:	34307830 			@ <UNDEFINED> instruction: 34307830
    4160:	5f004c55 			@ <UNDEFINED> instruction: 5f004c55
    4164:	544c465f 			@ <UNDEFINED> instruction: 544c465f
    4168:	524f4e5f 			@ <UNDEFINED> instruction: 524f4e5f
    416c:	414d5f4d 			@ <UNDEFINED> instruction: 414d5f4d
    4170:	205f5f58 			@ <UNDEFINED> instruction: 205f5f58
    4174:	30342e33 			@ <UNDEFINED> instruction: 30342e33
    4178:	33323832 			@ <UNDEFINED> instruction: 33323832
    417c:	33363634 			@ <UNDEFINED> instruction: 33363634
    4180:	38323538 			@ <UNDEFINED> instruction: 38323538
    4184:	2b653638 			@ <UNDEFINED> instruction: 2b653638
    4188:	00463833 			@ <UNDEFINED> instruction: 00463833
    418c:	5f434352 			@ <UNDEFINED> instruction: 5f434352
    4190:	52474643 			@ <UNDEFINED> instruction: 52474643
    4194:	5f57535f 			@ <UNDEFINED> instruction: 5f57535f
    4198:	4b53414d 			@ <UNDEFINED> instruction: 4b53414d
    419c:	78302820 			@ <UNDEFINED> instruction: 78302820
    41a0:	294c5533 			@ <UNDEFINED> instruction: 294c5533
    41a4:	43435200 	movtmi	r5, #12800	@ 0x3200
    41a8:	4250415f 			@ <UNDEFINED> instruction: 4250415f
    41ac:	45504c32 			@ <UNDEFINED> instruction: 45504c32
    41b0:	4f5f524e 			@ <UNDEFINED> instruction: 4f5f524e
    41b4:	45534646 			@ <UNDEFINED> instruction: 45534646
    41b8:	78302054 			@ <UNDEFINED> instruction: 78302054
    41bc:	4c553436 	mrrcmi	4, 3, r3, r5, cr6
    41c0:	53595300 			@ <UNDEFINED> instruction: 53595300
    41c4:	4b434954 			@ <UNDEFINED> instruction: 4b434954
    41c8:	5254435f 			@ <UNDEFINED> instruction: 5254435f
    41cc:	4e455f4c 			@ <UNDEFINED> instruction: 4e455f4c
    41d0:	454c4241 			@ <UNDEFINED> instruction: 454c4241
    41d4:	55312820 			@ <UNDEFINED> instruction: 55312820
    41d8:	3c3c204c 			@ <UNDEFINED> instruction: 3c3c204c
    41dc:	00293020 			@ <UNDEFINED> instruction: 00293020
    41e0:	4c555f5f 	mrrcmi	15, 5, r5, r5, cr15	@ <UNPREDICTABLE>
    41e4:	55434341 			@ <UNDEFINED> instruction: 55434341
    41e8:	42495f4d 			@ <UNDEFINED> instruction: 42495f4d
    41ec:	5f5f5449 			@ <UNDEFINED> instruction: 5f5f5449
    41f0:	00323320 			@ <UNDEFINED> instruction: 00323320
    41f4:	444c5f5f 			@ <UNDEFINED> instruction: 444c5f5f
    41f8:	495f4c42 			@ <UNDEFINED> instruction: 495f4c42
    41fc:	45495f53 			@ <UNDEFINED> instruction: 45495f53
    4200:	30365f43 			@ <UNDEFINED> instruction: 30365f43
    4204:	5f393535 			@ <UNDEFINED> instruction: 5f393535
    4208:	0031205f 			@ <UNDEFINED> instruction: 0031205f
    420c:	54535953 			@ <UNDEFINED> instruction: 54535953
    4210:	5f4b4349 			@ <UNDEFINED> instruction: 5f4b4349
    4214:	44414f4c 			@ <UNDEFINED> instruction: 44414f4c
    4218:	47455220 			@ <UNDEFINED> instruction: 47455220
    421c:	53283233 			@ <UNDEFINED> instruction: 53283233
    4220:	49545359 			@ <UNDEFINED> instruction: 49545359
    4224:	425f4b43 			@ <UNDEFINED> instruction: 425f4b43
    4228:	2c455341 	mcrrcs	3, 4, r5, r5, cr1
    422c:	53595320 			@ <UNDEFINED> instruction: 53595320
    4230:	4b434954 			@ <UNDEFINED> instruction: 4b434954
    4234:	414f4c5f 			@ <UNDEFINED> instruction: 414f4c5f
    4238:	464f5f44 			@ <UNDEFINED> instruction: 464f5f44
    423c:	54455346 			@ <UNDEFINED> instruction: 54455346
    4240:	43520029 			@ <UNDEFINED> instruction: 43520029
    4244:	52435f43 			@ <UNDEFINED> instruction: 52435f43
    4248:	4c4c505f 	mcrrmi	0, 5, r5, ip, cr15
    424c:	28204e4f 			@ <UNDEFINED> instruction: 28204e4f
    4250:	204c5531 			@ <UNDEFINED> instruction: 204c5531
    4254:	32203c3c 			@ <UNDEFINED> instruction: 32203c3c
    4258:	5f002934 			@ <UNDEFINED> instruction: 5f002934
    425c:	4c4c555f 	mcrrmi	5, 5, r5, ip, cr15
    4260:	55434341 			@ <UNDEFINED> instruction: 55434341
    4264:	50455f4d 			@ <UNDEFINED> instruction: 50455f4d
    4268:	4f4c4953 			@ <UNDEFINED> instruction: 4f4c4953
    426c:	205f5f4e 			@ <UNDEFINED> instruction: 205f5f4e
    4270:	50317830 			@ <UNDEFINED> instruction: 50317830
    4274:	5532332d 			@ <UNDEFINED> instruction: 5532332d
    4278:	004b4c4c 			@ <UNDEFINED> instruction: 004b4c4c
    427c:	5a49535f 			@ <UNDEFINED> instruction: 5a49535f
    4280:	5f545f45 			@ <UNDEFINED> instruction: 5f545f45
    4284:	49464544 			@ <UNDEFINED> instruction: 49464544
    4288:	2044454e 			@ <UNDEFINED> instruction: 2044454e
    428c:	445f5f00 			@ <UNDEFINED> instruction: 445f5f00
    4290:	42465f51 			@ <UNDEFINED> instruction: 42465f51
    4294:	5f5f5449 			@ <UNDEFINED> instruction: 5f5f5449
    4298:	00333620 			@ <UNDEFINED> instruction: 00333620
    429c:	4f495047 			@ <UNDEFINED> instruction: 4f495047
    42a0:	5253425f 			@ <UNDEFINED> instruction: 5253425f
    42a4:	45525f52 			@ <UNDEFINED> instruction: 45525f52
    42a8:	5f544553 			@ <UNDEFINED> instruction: 5f544553
    42ac:	5346464f 	movtpl	r4, #26191	@ 0x664f
    42b0:	31205445 			@ <UNDEFINED> instruction: 31205445
    42b4:	5f005536 			@ <UNDEFINED> instruction: 5f005536
    42b8:	4341535f 	movtmi	r5, #4959	@ 0x135f
    42bc:	5f4d5543 			@ <UNDEFINED> instruction: 5f4d5543
    42c0:	54494249 			@ <UNDEFINED> instruction: 54494249
    42c4:	38205f5f 			@ <UNDEFINED> instruction: 38205f5f
    42c8:	505f5f00 			@ <UNDEFINED> instruction: 505f5f00
    42cc:	49445254 			@ <UNDEFINED> instruction: 49445254
    42d0:	545f4646 			@ <UNDEFINED> instruction: 545f4646
    42d4:	5f5f0020 			@ <UNDEFINED> instruction: 5f5f0020
    42d8:	5f514855 			@ <UNDEFINED> instruction: 5f514855
    42dc:	54494249 			@ <UNDEFINED> instruction: 54494249
    42e0:	30205f5f 			@ <UNDEFINED> instruction: 30205f5f
    42e4:	544e4900 			@ <UNDEFINED> instruction: 544e4900
    42e8:	41454c5f 			@ <UNDEFINED> instruction: 41454c5f
    42ec:	5f385453 			@ <UNDEFINED> instruction: 5f385453
    42f0:	004e494d 			@ <UNDEFINED> instruction: 004e494d
    42f4:	43475f5f 	movtmi	r5, #32607	@ 0x7f5f
    42f8:	41485f43 			@ <UNDEFINED> instruction: 41485f43
    42fc:	535f4556 			@ <UNDEFINED> instruction: 535f4556
    4300:	5f434e59 			@ <UNDEFINED> instruction: 5f434e59
    4304:	504d4f43 			@ <UNDEFINED> instruction: 504d4f43
    4308:	5f455241 			@ <UNDEFINED> instruction: 5f455241
    430c:	5f444e41 			@ <UNDEFINED> instruction: 5f444e41
    4310:	50415753 			@ <UNDEFINED> instruction: 50415753
    4314:	3120345f 			@ <UNDEFINED> instruction: 3120345f
    4318:	495f5f00 			@ <UNDEFINED> instruction: 495f5f00
    431c:	465f544e 			@ <UNDEFINED> instruction: 465f544e
    4320:	31545341 			@ <UNDEFINED> instruction: 31545341
    4324:	59545f36 			@ <UNDEFINED> instruction: 59545f36
    4328:	5f5f4550 			@ <UNDEFINED> instruction: 5f5f4550
    432c:	746e6920 			@ <UNDEFINED> instruction: 746e6920
    4330:	555f5f00 			@ <UNDEFINED> instruction: 555f5f00
    4334:	4152464c 			@ <UNDEFINED> instruction: 4152464c
    4338:	4d5f5443 			@ <UNDEFINED> instruction: 4d5f5443
    433c:	5f5f5841 			@ <UNDEFINED> instruction: 5f5f5841
    4340:	46583020 			@ <UNDEFINED> instruction: 46583020
    4344:	46464646 			@ <UNDEFINED> instruction: 46464646
    4348:	50464646 			@ <UNDEFINED> instruction: 50464646
    434c:	5532332d 			@ <UNDEFINED> instruction: 5532332d
    4350:	4700524c 			@ <UNDEFINED> instruction: 4700524c
    4354:	424f4950 			@ <UNDEFINED> instruction: 424f4950
    4358:	52444f5f 			@ <UNDEFINED> instruction: 52444f5f
    435c:	47455220 			@ <UNDEFINED> instruction: 47455220
    4360:	47283233 			@ <UNDEFINED> instruction: 47283233
    4364:	424f4950 			@ <UNDEFINED> instruction: 424f4950
    4368:	5341425f 	movtpl	r4, #4703	@ 0x125f
    436c:	47202c45 			@ <UNDEFINED> instruction: 47202c45
    4370:	5f4f4950 			@ <UNDEFINED> instruction: 5f4f4950
    4374:	5f52444f 			@ <UNDEFINED> instruction: 5f52444f
    4378:	5346464f 	movtpl	r4, #26191	@ 0x664f
    437c:	00295445 			@ <UNDEFINED> instruction: 00295445
    4380:	49555f5f 			@ <UNDEFINED> instruction: 49555f5f
    4384:	4c5f544e 	mrrcmi	4, 4, r5, pc, cr14	@ <UNPREDICTABLE>
    4388:	54534145 			@ <UNDEFINED> instruction: 54534145
    438c:	545f3631 			@ <UNDEFINED> instruction: 545f3631
    4390:	5f455059 			@ <UNDEFINED> instruction: 5f455059
    4394:	6873205f 			@ <UNDEFINED> instruction: 6873205f
    4398:	2074726f 			@ <UNDEFINED> instruction: 2074726f
    439c:	69736e75 			@ <UNDEFINED> instruction: 69736e75
    43a0:	64656e67 			@ <UNDEFINED> instruction: 64656e67
    43a4:	746e6920 			@ <UNDEFINED> instruction: 746e6920
    43a8:	4c5f5f00 	mrrcmi	15, 0, r5, pc, cr0	@ <UNPREDICTABLE>
    43ac:	55434341 			@ <UNDEFINED> instruction: 55434341
    43b0:	414d5f4d 			@ <UNDEFINED> instruction: 414d5f4d
    43b4:	205f5f58 			@ <UNDEFINED> instruction: 205f5f58
    43b8:	46375830 			@ <UNDEFINED> instruction: 46375830
    43bc:	46464646 			@ <UNDEFINED> instruction: 46464646
    43c0:	46464646 			@ <UNDEFINED> instruction: 46464646
    43c4:	46464646 			@ <UNDEFINED> instruction: 46464646
    43c8:	2d504646 			@ <UNDEFINED> instruction: 2d504646
    43cc:	4b4c3133 			@ <UNDEFINED> instruction: 4b4c3133
    43d0:	435f5f00 			@ <UNDEFINED> instruction: 435f5f00
    43d4:	31524148 			@ <UNDEFINED> instruction: 31524148
    43d8:	59545f36 			@ <UNDEFINED> instruction: 59545f36
    43dc:	5f5f4550 			@ <UNDEFINED> instruction: 5f5f4550
    43e0:	6f687320 			@ <UNDEFINED> instruction: 6f687320
    43e4:	75207472 			@ <UNDEFINED> instruction: 75207472
    43e8:	6769736e 			@ <UNDEFINED> instruction: 6769736e
    43ec:	2064656e 			@ <UNDEFINED> instruction: 2064656e
    43f0:	00746e69 			@ <UNDEFINED> instruction: 00746e69
    43f4:	4f495047 			@ <UNDEFINED> instruction: 4f495047
    43f8:	5246415f 			@ <UNDEFINED> instruction: 5246415f
    43fc:	464f5f48 			@ <UNDEFINED> instruction: 464f5f48
    4400:	54455346 			@ <UNDEFINED> instruction: 54455346
    4404:	32783020 			@ <UNDEFINED> instruction: 32783020
    4408:	004c5534 			@ <UNDEFINED> instruction: 004c5534
    440c:	4c465f5f 	mcrrmi	15, 5, r5, r6, cr15
    4410:	58323354 			@ <UNDEFINED> instruction: 58323354
    4414:	4749445f 	smlsldmi	r4, r9, pc, r4	@ <UNPREDICTABLE>
    4418:	31205f5f 			@ <UNDEFINED> instruction: 31205f5f
    441c:	43520035 			@ <UNDEFINED> instruction: 43520035
    4420:	4b435f43 			@ <UNDEFINED> instruction: 4b435f43
    4424:	45544147 			@ <UNDEFINED> instruction: 45544147
    4428:	4f5f524e 			@ <UNDEFINED> instruction: 4f5f524e
    442c:	45534646 			@ <UNDEFINED> instruction: 45534646
    4430:	78302054 			@ <UNDEFINED> instruction: 78302054
    4434:	4c553039 	mrrcmi	0, 3, r3, r5, cr9
    4438:	43435200 	movtmi	r5, #12800	@ 0x3200
    443c:	4248415f 			@ <UNDEFINED> instruction: 4248415f
    4440:	524e4532 			@ <UNDEFINED> instruction: 524e4532
    4444:	46464f5f 			@ <UNDEFINED> instruction: 46464f5f
    4448:	20544553 			@ <UNDEFINED> instruction: 20544553
    444c:	34337830 			@ <UNDEFINED> instruction: 34337830
    4450:	47004c55 	smlsdmi	r0, r5, ip, r4
    4454:	424f4950 			@ <UNDEFINED> instruction: 424f4950
    4458:	50534f5f 			@ <UNDEFINED> instruction: 50534f5f
    445c:	52444545 			@ <UNDEFINED> instruction: 52444545
    4460:	47455220 			@ <UNDEFINED> instruction: 47455220
    4464:	47283233 			@ <UNDEFINED> instruction: 47283233
    4468:	424f4950 			@ <UNDEFINED> instruction: 424f4950
    446c:	5341425f 	movtpl	r4, #4703	@ 0x125f
    4470:	47202c45 			@ <UNDEFINED> instruction: 47202c45
    4474:	5f4f4950 			@ <UNDEFINED> instruction: 5f4f4950
    4478:	4550534f 			@ <UNDEFINED> instruction: 4550534f
    447c:	5f524445 			@ <UNDEFINED> instruction: 5f524445
    4480:	5346464f 	movtpl	r4, #26191	@ 0x664f
    4484:	00295445 			@ <UNDEFINED> instruction: 00295445
    4488:	54555f5f 			@ <UNDEFINED> instruction: 54555f5f
    448c:	42465f51 			@ <UNDEFINED> instruction: 42465f51
    4490:	5f5f5449 			@ <UNDEFINED> instruction: 5f5f5449
    4494:	38323120 			@ <UNDEFINED> instruction: 38323120
    4498:	465f5f00 			@ <UNDEFINED> instruction: 465f5f00
    449c:	54494e49 			@ <UNDEFINED> instruction: 54494e49
    44a0:	414d5f45 			@ <UNDEFINED> instruction: 414d5f45
    44a4:	4f5f4854 			@ <UNDEFINED> instruction: 4f5f4854
    44a8:	5f594c4e 			@ <UNDEFINED> instruction: 5f594c4e
    44ac:	0030205f 			@ <UNDEFINED> instruction: 0030205f
    44b0:	4f495047 			@ <UNDEFINED> instruction: 4f495047
    44b4:	444f4d5f 			@ <UNDEFINED> instruction: 444f4d5f
    44b8:	4d5f5245 			@ <UNDEFINED> instruction: 4d5f5245
    44bc:	204b5341 			@ <UNDEFINED> instruction: 204b5341
    44c0:	33307830 			@ <UNDEFINED> instruction: 33307830
    44c4:	5f5f0055 			@ <UNDEFINED> instruction: 5f5f0055
    44c8:	5f544e49 			@ <UNDEFINED> instruction: 5f544e49
    44cc:	54534146 			@ <UNDEFINED> instruction: 54534146
    44d0:	4d5f3631 			@ <UNDEFINED> instruction: 4d5f3631
    44d4:	5f5f5841 			@ <UNDEFINED> instruction: 5f5f5841
    44d8:	37783020 			@ <UNDEFINED> instruction: 37783020
    44dc:	66666666 			@ <UNDEFINED> instruction: 66666666
    44e0:	00666666 			@ <UNDEFINED> instruction: 00666666
    44e4:	334d5453 	movtcc	r5, #54355	@ 0xd453
    44e8:	34344632 			@ <UNDEFINED> instruction: 34344632
    44ec:	20787836 			@ <UNDEFINED> instruction: 20787836
    44f0:	50470031 			@ <UNDEFINED> instruction: 50470031
    44f4:	415f4f49 			@ <UNDEFINED> instruction: 415f4f49
    44f8:	20353146 			@ <UNDEFINED> instruction: 20353146
    44fc:	46307830 			@ <UNDEFINED> instruction: 46307830
    4500:	54500055 			@ <UNDEFINED> instruction: 54500055
    4504:	46494452 			@ <UNDEFINED> instruction: 46494452
    4508:	414d5f46 			@ <UNDEFINED> instruction: 414d5f46
    450c:	5f5f2058 			@ <UNDEFINED> instruction: 5f5f2058
    4510:	44525450 			@ <UNDEFINED> instruction: 44525450
    4514:	5f464649 			@ <UNDEFINED> instruction: 5f464649
    4518:	5f58414d 			@ <UNDEFINED> instruction: 5f58414d
    451c:	5f5f005f 			@ <UNDEFINED> instruction: 5f5f005f
    4520:	455a4953 			@ <UNDEFINED> instruction: 455a4953
    4524:	535f464f 			@ <UNDEFINED> instruction: 535f464f
    4528:	54524f48 			@ <UNDEFINED> instruction: 54524f48
    452c:	32205f5f 			@ <UNDEFINED> instruction: 32205f5f
    4530:	41535500 			@ <UNDEFINED> instruction: 41535500
    4534:	5f365452 			@ <UNDEFINED> instruction: 5f365452
    4538:	45534142 			@ <UNDEFINED> instruction: 45534142
    453c:	34783020 			@ <UNDEFINED> instruction: 34783020
    4540:	31313030 			@ <UNDEFINED> instruction: 31313030
    4544:	55303034 			@ <UNDEFINED> instruction: 55303034
    4548:	4352004c 			@ <UNDEFINED> instruction: 4352004c
    454c:	52435f43 			@ <UNDEFINED> instruction: 52435f43
    4550:	4c4c505f 	mcrrmi	0, 5, r5, ip, cr15
    4554:	52533249 			@ <UNDEFINED> instruction: 52533249
    4558:	28205944 			@ <UNDEFINED> instruction: 28205944
    455c:	204c5531 			@ <UNDEFINED> instruction: 204c5531
    4560:	32203c3c 			@ <UNDEFINED> instruction: 32203c3c
    4564:	5f002937 			@ <UNDEFINED> instruction: 5f002937
    4568:	41484357 			@ <UNDEFINED> instruction: 41484357
    456c:	5f545f52 			@ <UNDEFINED> instruction: 5f545f52
    4570:	49464544 			@ <UNDEFINED> instruction: 49464544
    4574:	2044454e 			@ <UNDEFINED> instruction: 2044454e
    4578:	555f5f00 			@ <UNDEFINED> instruction: 555f5f00
    457c:	4343414c 	movtmi	r4, #12620	@ 0x314c
    4580:	4d5f4d55 			@ <UNDEFINED> instruction: 4d5f4d55
    4584:	5f5f5841 			@ <UNDEFINED> instruction: 5f5f5841
    4588:	46583020 			@ <UNDEFINED> instruction: 46583020
    458c:	46464646 			@ <UNDEFINED> instruction: 46464646
    4590:	46464646 			@ <UNDEFINED> instruction: 46464646
    4594:	46464646 			@ <UNDEFINED> instruction: 46464646
    4598:	50464646 			@ <UNDEFINED> instruction: 50464646
    459c:	5532332d 			@ <UNDEFINED> instruction: 5532332d
    45a0:	55004b4c 			@ <UNDEFINED> instruction: 55004b4c
    45a4:	54524153 			@ <UNDEFINED> instruction: 54524153
    45a8:	3252435f 			@ <UNDEFINED> instruction: 3252435f
    45ac:	4f54535f 			@ <UNDEFINED> instruction: 4f54535f
    45b0:	5f315f50 			@ <UNDEFINED> instruction: 5f315f50
    45b4:	30282035 			@ <UNDEFINED> instruction: 30282035
    45b8:	4c553378 	mrrcmi	3, 7, r3, r5, cr8
    45bc:	203c3c20 			@ <UNDEFINED> instruction: 203c3c20
    45c0:	00293231 			@ <UNDEFINED> instruction: 00293231
    45c4:	544e4955 			@ <UNDEFINED> instruction: 544e4955
    45c8:	5341465f 	movtpl	r4, #5727	@ 0x165f
    45cc:	5f323354 			@ <UNDEFINED> instruction: 5f323354
    45d0:	2058414d 			@ <UNDEFINED> instruction: 2058414d
    45d4:	49555f5f 			@ <UNDEFINED> instruction: 49555f5f
    45d8:	465f544e 			@ <UNDEFINED> instruction: 465f544e
    45dc:	33545341 			@ <UNDEFINED> instruction: 33545341
    45e0:	414d5f32 			@ <UNDEFINED> instruction: 414d5f32
    45e4:	005f5f58 			@ <UNDEFINED> instruction: 005f5f58
    45e8:	4c555f5f 	mrrcmi	15, 5, r5, r5, cr15	@ <UNPREDICTABLE>
    45ec:	43415246 	movtmi	r5, #4678	@ 0x1246
    45f0:	494d5f54 			@ <UNDEFINED> instruction: 494d5f54
    45f4:	205f5f4e 			@ <UNDEFINED> instruction: 205f5f4e
    45f8:	55302e30 			@ <UNDEFINED> instruction: 55302e30
    45fc:	5200524c 			@ <UNDEFINED> instruction: 5200524c
    4600:	435f4343 			@ <UNDEFINED> instruction: 435f4343
    4604:	53485f52 	movtpl	r5, #36690	@ 0x8f52
    4608:	59445245 			@ <UNDEFINED> instruction: 59445245
    460c:	55312820 			@ <UNDEFINED> instruction: 55312820
    4610:	3c3c204c 			@ <UNDEFINED> instruction: 3c3c204c
    4614:	29373120 			@ <UNDEFINED> instruction: 29373120
    4618:	445f5f00 			@ <UNDEFINED> instruction: 445f5f00
    461c:	42495f51 			@ <UNDEFINED> instruction: 42495f51
    4620:	5f5f5449 			@ <UNDEFINED> instruction: 5f5f5449
    4624:	5f003020 			@ <UNDEFINED> instruction: 5f003020
    4628:	4d52415f 			@ <UNDEFINED> instruction: 4d52415f
    462c:	3146425f 			@ <UNDEFINED> instruction: 3146425f
    4630:	4f465f36 			@ <UNDEFINED> instruction: 4f465f36
    4634:	54414d52 			@ <UNDEFINED> instruction: 54414d52
    4638:	544c415f 			@ <UNDEFINED> instruction: 544c415f
    463c:	414e5245 			@ <UNDEFINED> instruction: 414e5245
    4640:	45564954 			@ <UNDEFINED> instruction: 45564954
    4644:	495f5f00 			@ <UNDEFINED> instruction: 495f5f00
    4648:	3233544e 			@ <UNDEFINED> instruction: 3233544e
    464c:	5059545f 			@ <UNDEFINED> instruction: 5059545f
    4650:	205f5f45 			@ <UNDEFINED> instruction: 205f5f45
    4654:	676e6f6c 			@ <UNDEFINED> instruction: 676e6f6c
    4658:	746e6920 			@ <UNDEFINED> instruction: 746e6920
    465c:	52415500 			@ <UNDEFINED> instruction: 52415500
    4660:	425f3554 			@ <UNDEFINED> instruction: 425f3554
    4664:	20455341 			@ <UNDEFINED> instruction: 20455341
    4668:	30347830 			@ <UNDEFINED> instruction: 30347830
    466c:	30353030 			@ <UNDEFINED> instruction: 30353030
    4670:	4c553030 	mrrcmi	0, 3, r3, r5, cr0
    4674:	53425f00 	movtpl	r5, #12032	@ 0x2f00
    4678:	49535f44 			@ <UNDEFINED> instruction: 49535f44
    467c:	545f455a 			@ <UNDEFINED> instruction: 545f455a
    4680:	5700205f 	smlsdpl	r0, pc, r0, r2	@ <UNPREDICTABLE>
    4684:	52414843 			@ <UNDEFINED> instruction: 52414843
    4688:	4e494d5f 			@ <UNDEFINED> instruction: 4e494d5f
    468c:	4e495500 			@ <UNDEFINED> instruction: 4e495500
    4690:	454c5f54 			@ <UNDEFINED> instruction: 454c5f54
    4694:	31545341 			@ <UNDEFINED> instruction: 31545341
    4698:	414d5f36 			@ <UNDEFINED> instruction: 414d5f36
    469c:	5f5f2058 			@ <UNDEFINED> instruction: 5f5f2058
    46a0:	544e4955 			@ <UNDEFINED> instruction: 544e4955
    46a4:	41454c5f 			@ <UNDEFINED> instruction: 41454c5f
    46a8:	36315453 			@ <UNDEFINED> instruction: 36315453
    46ac:	58414d5f 			@ <UNDEFINED> instruction: 58414d5f
    46b0:	47005f5f 	smlsdmi	r0, pc, pc, r5	@ <UNPREDICTABLE>
    46b4:	444f4950 			@ <UNDEFINED> instruction: 444f4950
    46b8:	5341425f 	movtpl	r4, #4703	@ 0x125f
    46bc:	78302045 			@ <UNDEFINED> instruction: 78302045
    46c0:	32303034 			@ <UNDEFINED> instruction: 32303034
    46c4:	30304330 			@ <UNDEFINED> instruction: 30304330
    46c8:	53004c55 	movwpl	r4, #3157	@ 0xc55
    46cc:	49545359 			@ <UNDEFINED> instruction: 49545359
    46d0:	425f4b43 			@ <UNDEFINED> instruction: 425f4b43
    46d4:	20455341 			@ <UNDEFINED> instruction: 20455341
    46d8:	30457830 			@ <UNDEFINED> instruction: 30457830
    46dc:	30453030 			@ <UNDEFINED> instruction: 30453030
    46e0:	4c553031 	mrrcmi	0, 3, r3, r5, cr1
    46e4:	5f545f00 			@ <UNDEFINED> instruction: 5f545f00
    46e8:	41484357 			@ <UNDEFINED> instruction: 41484357
    46ec:	55002052 			@ <UNDEFINED> instruction: 55002052
    46f0:	5f545241 			@ <UNDEFINED> instruction: 5f545241
    46f4:	666e6f43 			@ <UNDEFINED> instruction: 666e6f43
    46f8:	745f6769 			@ <UNDEFINED> instruction: 745f6769
    46fc:	49504700 			@ <UNDEFINED> instruction: 49504700
    4700:	46415f4f 			@ <UNDEFINED> instruction: 46415f4f
    4704:	78302038 			@ <UNDEFINED> instruction: 78302038
    4708:	00553830 			@ <UNDEFINED> instruction: 00553830
    470c:	54535953 			@ <UNDEFINED> instruction: 54535953
    4710:	5f4b4349 			@ <UNDEFINED> instruction: 5f4b4349
    4714:	494c4143 			@ <UNDEFINED> instruction: 494c4143
    4718:	4f4e5f42 			@ <UNDEFINED> instruction: 4f4e5f42
    471c:	20464552 			@ <UNDEFINED> instruction: 20464552
    4720:	4c553128 	mrrcmi	1, 2, r3, r5, cr8
    4724:	203c3c20 			@ <UNDEFINED> instruction: 203c3c20
    4728:	00293133 			@ <UNDEFINED> instruction: 00293133
    472c:	54555f5f 			@ <UNDEFINED> instruction: 54555f5f
    4730:	42495f51 			@ <UNDEFINED> instruction: 42495f51
    4734:	5f5f5449 			@ <UNDEFINED> instruction: 5f5f5449
    4738:	49003020 			@ <UNDEFINED> instruction: 49003020
    473c:	465f544e 			@ <UNDEFINED> instruction: 465f544e
    4740:	33545341 			@ <UNDEFINED> instruction: 33545341
    4744:	414d5f32 			@ <UNDEFINED> instruction: 414d5f32
    4748:	5f5f2058 			@ <UNDEFINED> instruction: 5f5f2058
    474c:	5f544e49 			@ <UNDEFINED> instruction: 5f544e49
    4750:	54534146 			@ <UNDEFINED> instruction: 54534146
    4754:	4d5f3233 			@ <UNDEFINED> instruction: 4d5f3233
    4758:	5f5f5841 			@ <UNDEFINED> instruction: 5f5f5841
    475c:	535f5f00 			@ <UNDEFINED> instruction: 535f5f00
    4760:	42465f41 			@ <UNDEFINED> instruction: 42465f41
    4764:	5f5f5449 			@ <UNDEFINED> instruction: 5f5f5449
    4768:	00353120 			@ <UNDEFINED> instruction: 00353120
    476c:	4e495f5f 			@ <UNDEFINED> instruction: 4e495f5f
    4770:	43575f54 			@ <UNDEFINED> instruction: 43575f54
    4774:	5f524148 			@ <UNDEFINED> instruction: 5f524148
    4778:	20485f54 			@ <UNDEFINED> instruction: 20485f54
    477c:	465f5f00 			@ <UNDEFINED> instruction: 465f5f00
    4780:	3233544c 			@ <UNDEFINED> instruction: 3233544c
    4784:	414d5f58 			@ <UNDEFINED> instruction: 414d5f58
    4788:	205f5f58 			@ <UNDEFINED> instruction: 205f5f58
    478c:	39372e31 			@ <UNDEFINED> instruction: 39372e31
    4790:	33393637 			@ <UNDEFINED> instruction: 33393637
    4794:	38343331 			@ <UNDEFINED> instruction: 38343331
    4798:	31333236 			@ <UNDEFINED> instruction: 31333236
    479c:	2b653735 			@ <UNDEFINED> instruction: 2b653735
    47a0:	46383033 			@ <UNDEFINED> instruction: 46383033
    47a4:	00783233 			@ <UNDEFINED> instruction: 00783233
    47a8:	52415355 			@ <UNDEFINED> instruction: 52415355
    47ac:	52435f54 			@ <UNDEFINED> instruction: 52435f54
    47b0:	53505f31 			@ <UNDEFINED> instruction: 53505f31
    47b4:	55312820 			@ <UNDEFINED> instruction: 55312820
    47b8:	3c3c204c 			@ <UNDEFINED> instruction: 3c3c204c
    47bc:	00293920 			@ <UNDEFINED> instruction: 00293920
    47c0:	52415f5f 			@ <UNDEFINED> instruction: 52415f5f
    47c4:	41455f4d 			@ <UNDEFINED> instruction: 41455f4d
    47c8:	5f5f4942 			@ <UNDEFINED> instruction: 5f5f4942
    47cc:	5f003120 			@ <UNDEFINED> instruction: 5f003120
    47d0:	4341555f 	movtmi	r5, #5471	@ 0x155f
    47d4:	5f4d5543 			@ <UNDEFINED> instruction: 5f4d5543
    47d8:	54494249 			@ <UNDEFINED> instruction: 54494249
    47dc:	31205f5f 			@ <UNDEFINED> instruction: 31205f5f
    47e0:	4e490036 			@ <UNDEFINED> instruction: 4e490036
    47e4:	5f363154 			@ <UNDEFINED> instruction: 5f363154
    47e8:	004e494d 			@ <UNDEFINED> instruction: 004e494d
    47ec:	4c465f5f 	mcrrmi	15, 5, r5, r6, cr15
    47f0:	53495f54 	movtpl	r5, #40788	@ 0x9f54
    47f4:	4345495f 	movtmi	r4, #22879	@ 0x595f
    47f8:	3530365f 			@ <UNDEFINED> instruction: 3530365f
    47fc:	5f5f3935 			@ <UNDEFINED> instruction: 5f5f3935
    4800:	5f003120 			@ <UNDEFINED> instruction: 5f003120
    4804:	5548545f 			@ <UNDEFINED> instruction: 5548545f
    4808:	4c45424d 	mcrrmi	2, 4, r4, r5, cr13
    480c:	31205f5f 			@ <UNDEFINED> instruction: 31205f5f
    4810:	415f5f00 			@ <UNDEFINED> instruction: 415f5f00
    4814:	465f4d52 			@ <UNDEFINED> instruction: 465f4d52
    4818:	55544145 			@ <UNDEFINED> instruction: 55544145
    481c:	445f4552 			@ <UNDEFINED> instruction: 445f4552
    4820:	31205053 	qsubcc	r5, r3, r0
    4824:	43435200 	movtmi	r5, #12800	@ 0x3200
    4828:	2052435f 			@ <UNDEFINED> instruction: 2052435f
    482c:	33474552 	movtcc	r4, #30034	@ 0x7552
    4830:	43522832 			@ <UNDEFINED> instruction: 43522832
    4834:	41425f43 			@ <UNDEFINED> instruction: 41425f43
    4838:	202c4553 			@ <UNDEFINED> instruction: 202c4553
    483c:	5f434352 			@ <UNDEFINED> instruction: 5f434352
    4840:	4f5f5243 			@ <UNDEFINED> instruction: 4f5f5243
    4844:	45534646 			@ <UNDEFINED> instruction: 45534646
    4848:	5f002954 			@ <UNDEFINED> instruction: 5f002954
    484c:	5f51515f 			@ <UNDEFINED> instruction: 5f51515f
    4850:	54494249 			@ <UNDEFINED> instruction: 54494249
    4854:	30205f5f 			@ <UNDEFINED> instruction: 30205f5f
    4858:	554e4700 			@ <UNDEFINED> instruction: 554e4700
    485c:	31314320 			@ <UNDEFINED> instruction: 31314320
    4860:	2e343120 			@ <UNDEFINED> instruction: 2e343120
    4864:	20312e33 			@ <UNDEFINED> instruction: 20312e33
    4868:	35323032 			@ <UNDEFINED> instruction: 35323032
    486c:	33323630 			@ <UNDEFINED> instruction: 33323630
    4870:	636d2d20 			@ <UNDEFINED> instruction: 636d2d20
    4874:	633d7570 			@ <UNDEFINED> instruction: 633d7570
    4878:	6574726f 			@ <UNDEFINED> instruction: 6574726f
    487c:	346d2d78 			@ <UNDEFINED> instruction: 346d2d78
    4880:	746d2d20 			@ <UNDEFINED> instruction: 746d2d20
    4884:	626d7568 			@ <UNDEFINED> instruction: 626d7568
    4888:	666d2d20 			@ <UNDEFINED> instruction: 666d2d20
    488c:	663d7570 			@ <UNDEFINED> instruction: 663d7570
    4890:	2d347670 			@ <UNDEFINED> instruction: 2d347670
    4894:	642d7073 			@ <UNDEFINED> instruction: 642d7073
    4898:	2d203631 			@ <UNDEFINED> instruction: 2d203631
    489c:	6f6c666d 			@ <UNDEFINED> instruction: 6f6c666d
    48a0:	612d7461 			@ <UNDEFINED> instruction: 612d7461
    48a4:	683d6962 			@ <UNDEFINED> instruction: 683d6962
    48a8:	20647261 			@ <UNDEFINED> instruction: 20647261
    48ac:	72616d2d 			@ <UNDEFINED> instruction: 72616d2d
    48b0:	613d6863 			@ <UNDEFINED> instruction: 613d6863
    48b4:	37766d72 			@ <UNDEFINED> instruction: 37766d72
    48b8:	2b6d2d65 			@ <UNDEFINED> instruction: 2b6d2d65
    48bc:	2d207066 			@ <UNDEFINED> instruction: 2d207066
    48c0:	2d203367 			@ <UNDEFINED> instruction: 2d203367
    48c4:	61776467 			@ <UNDEFINED> instruction: 61776467
    48c8:	342d6672 			@ <UNDEFINED> instruction: 342d6672
    48cc:	304f2d20 			@ <UNDEFINED> instruction: 304f2d20
    48d0:	74732d20 			@ <UNDEFINED> instruction: 74732d20
    48d4:	6e673d64 			@ <UNDEFINED> instruction: 6e673d64
    48d8:	20313175 			@ <UNDEFINED> instruction: 20313175
    48dc:	6164662d 			@ <UNDEFINED> instruction: 6164662d
    48e0:	732d6174 			@ <UNDEFINED> instruction: 732d6174
    48e4:	69746365 			@ <UNDEFINED> instruction: 69746365
    48e8:	20736e6f 			@ <UNDEFINED> instruction: 20736e6f
    48ec:	7566662d 			@ <UNDEFINED> instruction: 7566662d
    48f0:	6974636e 			@ <UNDEFINED> instruction: 6974636e
    48f4:	732d6e6f 			@ <UNDEFINED> instruction: 732d6e6f
    48f8:	69746365 			@ <UNDEFINED> instruction: 69746365
    48fc:	20736e6f 			@ <UNDEFINED> instruction: 20736e6f
    4900:	7266662d 			@ <UNDEFINED> instruction: 7266662d
    4904:	74736565 			@ <UNDEFINED> instruction: 74736565
    4908:	69646e61 			@ <UNDEFINED> instruction: 69646e61
    490c:	5f00676e 			@ <UNDEFINED> instruction: 5f00676e
    4910:	414c4c5f 			@ <UNDEFINED> instruction: 414c4c5f
    4914:	4d554343 			@ <UNDEFINED> instruction: 4d554343
    4918:	4942465f 			@ <UNDEFINED> instruction: 4942465f
    491c:	205f5f54 			@ <UNDEFINED> instruction: 205f5f54
    4920:	5f003133 			@ <UNDEFINED> instruction: 5f003133
    4924:	544c465f 			@ <UNDEFINED> instruction: 544c465f
    4928:	5f583233 			@ <UNDEFINED> instruction: 5f583233
    492c:	5f4e494d 			@ <UNDEFINED> instruction: 5f4e494d
    4930:	455f3031 			@ <UNDEFINED> instruction: 455f3031
    4934:	5f5f5058 			@ <UNDEFINED> instruction: 5f5f5058
    4938:	332d2820 			@ <UNDEFINED> instruction: 332d2820
    493c:	00293730 			@ <UNDEFINED> instruction: 00293730
    4940:	5f434352 			@ <UNDEFINED> instruction: 5f434352
    4944:	32425041 			@ <UNDEFINED> instruction: 32425041
    4948:	52545352 			@ <UNDEFINED> instruction: 52545352
    494c:	47455220 			@ <UNDEFINED> instruction: 47455220
    4950:	52283233 			@ <UNDEFINED> instruction: 52283233
    4954:	425f4343 			@ <UNDEFINED> instruction: 425f4343
    4958:	2c455341 	mcrrcs	3, 4, r5, r5, cr1
    495c:	43435220 	movtmi	r5, #12832	@ 0x3220
    4960:	4250415f 			@ <UNDEFINED> instruction: 4250415f
    4964:	54535232 			@ <UNDEFINED> instruction: 54535232
    4968:	464f5f52 			@ <UNDEFINED> instruction: 464f5f52
    496c:	54455346 			@ <UNDEFINED> instruction: 54455346
    4970:	5f5f0029 			@ <UNDEFINED> instruction: 5f5f0029
    4974:	43554e47 			@ <UNDEFINED> instruction: 43554e47
    4978:	4e494d5f 			@ <UNDEFINED> instruction: 4e494d5f
    497c:	5f5f524f 			@ <UNDEFINED> instruction: 5f5f524f
    4980:	55003320 			@ <UNDEFINED> instruction: 55003320
    4984:	5f545241 			@ <UNDEFINED> instruction: 5f545241
    4988:	5f525245 			@ <UNDEFINED> instruction: 5f525245
    498c:	41564e49 			@ <UNDEFINED> instruction: 41564e49
    4990:	5f44494c 			@ <UNDEFINED> instruction: 5f44494c
    4994:	44554142 			@ <UNDEFINED> instruction: 44554142
    4998:	415f5f00 			@ <UNDEFINED> instruction: 415f5f00
    499c:	465f4d52 			@ <UNDEFINED> instruction: 465f4d52
    49a0:	55544145 			@ <UNDEFINED> instruction: 55544145
    49a4:	4e5f4552 			@ <UNDEFINED> instruction: 4e5f4552
    49a8:	52454d55 			@ <UNDEFINED> instruction: 52454d55
    49ac:	4d5f4349 			@ <UNDEFINED> instruction: 4d5f4349
    49b0:	494d5841 			@ <UNDEFINED> instruction: 494d5841
    49b4:	5f5f004e 			@ <UNDEFINED> instruction: 5f5f004e
    49b8:	4d544e49 			@ <UNDEFINED> instruction: 4d544e49
    49bc:	545f5841 			@ <UNDEFINED> instruction: 545f5841
    49c0:	5f455059 			@ <UNDEFINED> instruction: 5f455059
    49c4:	6f6c205f 			@ <UNDEFINED> instruction: 6f6c205f
    49c8:	6c20676e 			@ <UNDEFINED> instruction: 6c20676e
    49cc:	20676e6f 			@ <UNDEFINED> instruction: 20676e6f
    49d0:	00746e69 			@ <UNDEFINED> instruction: 00746e69
    49d4:	43475f5f 	movtmi	r5, #32607	@ 0x7f5f
    49d8:	54415f43 			@ <UNDEFINED> instruction: 54415f43
    49dc:	43494d4f 	movtmi	r4, #40271	@ 0x9d4f
    49e0:	544e495f 			@ <UNDEFINED> instruction: 544e495f
    49e4:	434f4c5f 	movtmi	r4, #64607	@ 0xfc5f
    49e8:	52465f4b 			@ <UNDEFINED> instruction: 52465f4b
    49ec:	32204545 			@ <UNDEFINED> instruction: 32204545
    49f0:	43475f00 	movtmi	r5, #32512	@ 0x7f00
    49f4:	414d5f43 			@ <UNDEFINED> instruction: 414d5f43
    49f8:	4c415f58 	mcrrmi	15, 5, r5, r1, cr8
    49fc:	5f4e4749 			@ <UNDEFINED> instruction: 5f4e4749
    4a00:	47002054 	smlsdmi	r0, r4, r0, r2
    4a04:	5f4f4950 			@ <UNDEFINED> instruction: 5f4f4950
    4a08:	4550534f 			@ <UNDEFINED> instruction: 4550534f
    4a0c:	5f524445 			@ <UNDEFINED> instruction: 5f524445
    4a10:	48474948 			@ <UNDEFINED> instruction: 48474948
    4a14:	30783020 			@ <UNDEFINED> instruction: 30783020
    4a18:	5f005532 			@ <UNDEFINED> instruction: 5f005532
    4a1c:	4d52415f 			@ <UNDEFINED> instruction: 4d52415f
    4a20:	4145465f 			@ <UNDEFINED> instruction: 4145465f
    4a24:	45525554 			@ <UNDEFINED> instruction: 45525554
    4a28:	3150465f 			@ <UNDEFINED> instruction: 3150465f
    4a2c:	43535f36 			@ <UNDEFINED> instruction: 43535f36
    4a30:	52414c41 			@ <UNDEFINED> instruction: 52414c41
    4a34:	4952415f 			@ <UNDEFINED> instruction: 4952415f
    4a38:	454d4854 			@ <UNDEFINED> instruction: 454d4854
    4a3c:	00434954 			@ <UNDEFINED> instruction: 00434954
    4a40:	53555f5f 			@ <UNDEFINED> instruction: 53555f5f
    4a44:	55434341 			@ <UNDEFINED> instruction: 55434341
    4a48:	50455f4d 			@ <UNDEFINED> instruction: 50455f4d
    4a4c:	4f4c4953 			@ <UNDEFINED> instruction: 4f4c4953
    4a50:	205f5f4e 			@ <UNDEFINED> instruction: 205f5f4e
    4a54:	50317830 			@ <UNDEFINED> instruction: 50317830
    4a58:	4855382d 			@ <UNDEFINED> instruction: 4855382d
    4a5c:	5f5f004b 			@ <UNDEFINED> instruction: 5f5f004b
    4a60:	5f4c4244 			@ <UNDEFINED> instruction: 5f4c4244
    4a64:	5f534148 			@ <UNDEFINED> instruction: 5f534148
    4a68:	45495551 			@ <UNDEFINED> instruction: 45495551
    4a6c:	414e5f54 			@ <UNDEFINED> instruction: 414e5f54
    4a70:	205f5f4e 			@ <UNDEFINED> instruction: 205f5f4e
    4a74:	41550031 			@ <UNDEFINED> instruction: 41550031
    4a78:	485f5452 			@ <UNDEFINED> instruction: 485f5452
    4a7c:	4c465f57 	mcrrmi	15, 5, r5, r6, cr7
    4a80:	435f574f 			@ <UNDEFINED> instruction: 435f574f
    4a84:	32205354 			@ <UNDEFINED> instruction: 32205354
    4a88:	5f5f0055 			@ <UNDEFINED> instruction: 5f5f0055
    4a8c:	52464c4c 			@ <UNDEFINED> instruction: 52464c4c
    4a90:	5f544341 			@ <UNDEFINED> instruction: 5f544341
    4a94:	5f58414d 			@ <UNDEFINED> instruction: 5f58414d
    4a98:	5830205f 			@ <UNDEFINED> instruction: 5830205f
    4a9c:	46464637 			@ <UNDEFINED> instruction: 46464637
    4aa0:	46464646 			@ <UNDEFINED> instruction: 46464646
    4aa4:	46464646 			@ <UNDEFINED> instruction: 46464646
    4aa8:	46464646 			@ <UNDEFINED> instruction: 46464646
    4aac:	33362d50 			@ <UNDEFINED> instruction: 33362d50
    4ab0:	00524c4c 			@ <UNDEFINED> instruction: 00524c4c
    4ab4:	4f495047 			@ <UNDEFINED> instruction: 4f495047
    4ab8:	52444f5f 			@ <UNDEFINED> instruction: 52444f5f
    4abc:	46464f5f 			@ <UNDEFINED> instruction: 46464f5f
    4ac0:	20544553 			@ <UNDEFINED> instruction: 20544553
    4ac4:	34317830 			@ <UNDEFINED> instruction: 34317830
    4ac8:	49004c55 			@ <UNDEFINED> instruction: 49004c55
    4acc:	3436544e 			@ <UNDEFINED> instruction: 3436544e
    4ad0:	4e494d5f 			@ <UNDEFINED> instruction: 4e494d5f
    4ad4:	535f5f00 			@ <UNDEFINED> instruction: 535f5f00
    4ad8:	55434341 			@ <UNDEFINED> instruction: 55434341
    4adc:	414d5f4d 			@ <UNDEFINED> instruction: 414d5f4d
    4ae0:	205f5f58 			@ <UNDEFINED> instruction: 205f5f58
    4ae4:	46375830 			@ <UNDEFINED> instruction: 46375830
    4ae8:	2d504646 			@ <UNDEFINED> instruction: 2d504646
    4aec:	004b4837 			@ <UNDEFINED> instruction: 004b4837
    4af0:	4e495f5f 			@ <UNDEFINED> instruction: 4e495f5f
    4af4:	52545054 			@ <UNDEFINED> instruction: 52545054
    4af8:	5059545f 			@ <UNDEFINED> instruction: 5059545f
    4afc:	205f5f45 			@ <UNDEFINED> instruction: 205f5f45
    4b00:	00746e69 			@ <UNDEFINED> instruction: 00746e69
    4b04:	544e4955 			@ <UNDEFINED> instruction: 544e4955
    4b08:	00435f38 			@ <UNDEFINED> instruction: 00435f38
    4b0c:	49555f5f 			@ <UNDEFINED> instruction: 49555f5f
    4b10:	5450544e 			@ <UNDEFINED> instruction: 5450544e
    4b14:	59545f52 			@ <UNDEFINED> instruction: 59545f52
    4b18:	5f5f4550 			@ <UNDEFINED> instruction: 5f5f4550
    4b1c:	736e7520 			@ <UNDEFINED> instruction: 736e7520
    4b20:	656e6769 			@ <UNDEFINED> instruction: 656e6769
    4b24:	6e692064 			@ <UNDEFINED> instruction: 6e692064
    4b28:	49550074 			@ <UNDEFINED> instruction: 49550074
    4b2c:	3631544e 			@ <UNDEFINED> instruction: 3631544e
    4b30:	5f00435f 			@ <UNDEFINED> instruction: 5f00435f
    4b34:	4745525f 	smlsldmi	r5, r5, pc, r2	@ <UNPREDICTABLE>
    4b38:	45545349 			@ <UNDEFINED> instruction: 45545349
    4b3c:	52505f52 			@ <UNDEFINED> instruction: 52505f52
    4b40:	58494645 			@ <UNDEFINED> instruction: 58494645
    4b44:	00205f5f 			@ <UNDEFINED> instruction: 00205f5f
    4b48:	4c465f5f 	mcrrmi	15, 5, r5, r6, cr15
    4b4c:	5f323354 			@ <UNDEFINED> instruction: 5f323354
    4b50:	5f58414d 			@ <UNDEFINED> instruction: 5f58414d
    4b54:	2e33205f 			@ <UNDEFINED> instruction: 2e33205f
    4b58:	38323034 			@ <UNDEFINED> instruction: 38323034
    4b5c:	36343332 			@ <UNDEFINED> instruction: 36343332
    4b60:	35383336 			@ <UNDEFINED> instruction: 35383336
    4b64:	36383832 			@ <UNDEFINED> instruction: 36383832
    4b68:	38332b65 			@ <UNDEFINED> instruction: 38332b65
    4b6c:	00323346 			@ <UNDEFINED> instruction: 00323346
    4b70:	42445f5f 			@ <UNDEFINED> instruction: 42445f5f
    4b74:	49445f4c 			@ <UNDEFINED> instruction: 49445f4c
    4b78:	205f5f47 			@ <UNDEFINED> instruction: 205f5f47
    4b7c:	5f003531 			@ <UNDEFINED> instruction: 5f003531
    4b80:	464c555f 			@ <UNDEFINED> instruction: 464c555f
    4b84:	54434152 			@ <UNDEFINED> instruction: 54434152
    4b88:	5350455f 			@ <UNDEFINED> instruction: 5350455f
    4b8c:	4e4f4c49 			@ <UNDEFINED> instruction: 4e4f4c49
    4b90:	30205f5f 			@ <UNDEFINED> instruction: 30205f5f
    4b94:	2d503178 			@ <UNDEFINED> instruction: 2d503178
    4b98:	4c553233 	mrrcmi	2, 3, r3, r5, cr3
    4b9c:	5f5f0052 			@ <UNDEFINED> instruction: 5f5f0052
    4ba0:	5f4d5241 			@ <UNDEFINED> instruction: 5f4d5241
    4ba4:	54414546 			@ <UNDEFINED> instruction: 54414546
    4ba8:	5f455255 			@ <UNDEFINED> instruction: 5f455255
    4bac:	5f434150 			@ <UNDEFINED> instruction: 5f434150
    4bb0:	41464544 			@ <UNDEFINED> instruction: 41464544
    4bb4:	00544c55 			@ <UNDEFINED> instruction: 00544c55
    4bb8:	49535f5f 			@ <UNDEFINED> instruction: 49535f5f
    4bbc:	464f455a 			@ <UNDEFINED> instruction: 464f455a
    4bc0:	5a49535f 			@ <UNDEFINED> instruction: 5a49535f
    4bc4:	5f545f45 			@ <UNDEFINED> instruction: 5f545f45
    4bc8:	0034205f 			@ <UNDEFINED> instruction: 0034205f
    4bcc:	52415355 			@ <UNDEFINED> instruction: 52415355
    4bd0:	52435f54 			@ <UNDEFINED> instruction: 52435f54
    4bd4:	43545f31 			@ <UNDEFINED> instruction: 43545f31
    4bd8:	28204549 			@ <UNDEFINED> instruction: 28204549
    4bdc:	204c5531 			@ <UNDEFINED> instruction: 204c5531
    4be0:	36203c3c 			@ <UNDEFINED> instruction: 36203c3c
    4be4:	5f5f0029 			@ <UNDEFINED> instruction: 5f5f0029
    4be8:	544e4955 			@ <UNDEFINED> instruction: 544e4955
    4bec:	545f3436 			@ <UNDEFINED> instruction: 545f3436
    4bf0:	5f455059 			@ <UNDEFINED> instruction: 5f455059
    4bf4:	6f6c205f 			@ <UNDEFINED> instruction: 6f6c205f
    4bf8:	6c20676e 			@ <UNDEFINED> instruction: 6c20676e
    4bfc:	20676e6f 			@ <UNDEFINED> instruction: 20676e6f
    4c00:	69736e75 			@ <UNDEFINED> instruction: 69736e75
    4c04:	64656e67 			@ <UNDEFINED> instruction: 64656e67
    4c08:	746e6920 			@ <UNDEFINED> instruction: 746e6920
    4c0c:	43435200 	movtmi	r5, #12800	@ 0x3200
    4c10:	4746435f 	smlsldmi	r4, r6, pc, r3	@ <UNPREDICTABLE>
    4c14:	464f5f52 			@ <UNDEFINED> instruction: 464f5f52
    4c18:	54455346 			@ <UNDEFINED> instruction: 54455346
    4c1c:	30783020 			@ <UNDEFINED> instruction: 30783020
    4c20:	004c5538 			@ <UNDEFINED> instruction: 004c5538
    4c24:	4f495047 			@ <UNDEFINED> instruction: 4f495047
    4c28:	5252455f 			@ <UNDEFINED> instruction: 5252455f
    4c2c:	4c554e5f 	mrrcmi	14, 5, r4, r5, cr15
    4c30:	54505f4c 			@ <UNDEFINED> instruction: 54505f4c
    4c34:	43520052 			@ <UNDEFINED> instruction: 43520052
    4c38:	52435f43 			@ <UNDEFINED> instruction: 52435f43
    4c3c:	5353435f 			@ <UNDEFINED> instruction: 5353435f
    4c40:	28204e4f 			@ <UNDEFINED> instruction: 28204e4f
    4c44:	204c5531 			@ <UNDEFINED> instruction: 204c5531
    4c48:	31203c3c 			@ <UNDEFINED> instruction: 31203c3c
    4c4c:	5f002939 			@ <UNDEFINED> instruction: 5f002939
    4c50:	4e4f4c5f 			@ <UNDEFINED> instruction: 4e4f4c5f
    4c54:	414d5f47 			@ <UNDEFINED> instruction: 414d5f47
    4c58:	205f5f58 			@ <UNDEFINED> instruction: 205f5f58
    4c5c:	66377830 			@ <UNDEFINED> instruction: 66377830
    4c60:	66666666 			@ <UNDEFINED> instruction: 66666666
    4c64:	004c6666 			@ <UNDEFINED> instruction: 004c6666
    4c68:	5f434352 			@ <UNDEFINED> instruction: 5f434352
    4c6c:	434b4344 	movtmi	r4, #45892	@ 0xb344
    4c70:	32524746 			@ <UNDEFINED> instruction: 32524746
    4c74:	46464f5f 			@ <UNDEFINED> instruction: 46464f5f
    4c78:	20544553 			@ <UNDEFINED> instruction: 20544553
    4c7c:	34397830 			@ <UNDEFINED> instruction: 34397830
    4c80:	5f004c55 			@ <UNDEFINED> instruction: 5f004c55
    4c84:	4d52415f 			@ <UNDEFINED> instruction: 4d52415f
    4c88:	4145465f 			@ <UNDEFINED> instruction: 4145465f
    4c8c:	45525554 			@ <UNDEFINED> instruction: 45525554
    4c90:	4544435f 			@ <UNDEFINED> instruction: 4544435f
    4c94:	415f5f00 			@ <UNDEFINED> instruction: 415f5f00
    4c98:	4d554343 			@ <UNDEFINED> instruction: 4d554343
    4c9c:	4942495f 			@ <UNDEFINED> instruction: 4942495f
    4ca0:	205f5f54 			@ <UNDEFINED> instruction: 205f5f54
    4ca4:	70003631 			@ <UNDEFINED> instruction: 70003631
    4ca8:	006c6c75 			@ <UNDEFINED> instruction: 006c6c75
    4cac:	5f434352 			@ <UNDEFINED> instruction: 5f434352
    4cb0:	4f5f5243 			@ <UNDEFINED> instruction: 4f5f5243
    4cb4:	45534646 			@ <UNDEFINED> instruction: 45534646
    4cb8:	78302054 			@ <UNDEFINED> instruction: 78302054
    4cbc:	4c553030 	mrrcmi	0, 3, r3, r5, cr0
    4cc0:	49504700 			@ <UNDEFINED> instruction: 49504700
    4cc4:	55505f4f 			@ <UNDEFINED> instruction: 55505f4f
    4cc8:	5f524450 			@ <UNDEFINED> instruction: 5f524450
    4ccc:	454e4f4e 			@ <UNDEFINED> instruction: 454e4f4e
    4cd0:	30783020 			@ <UNDEFINED> instruction: 30783020
    4cd4:	47005530 	smladxmi	r0, r0, r5, r5
    4cd8:	5f4f4950 			@ <UNDEFINED> instruction: 5f4f4950
    4cdc:	20364641 			@ <UNDEFINED> instruction: 20364641
    4ce0:	36307830 			@ <UNDEFINED> instruction: 36307830
    4ce4:	5f5f0055 			@ <UNDEFINED> instruction: 5f5f0055
    4ce8:	544e4955 			@ <UNDEFINED> instruction: 544e4955
    4cec:	435f3631 			@ <UNDEFINED> instruction: 435f3631
    4cf0:	20296328 			@ <UNDEFINED> instruction: 20296328
    4cf4:	41550063 			@ <UNDEFINED> instruction: 41550063
    4cf8:	455f5452 			@ <UNDEFINED> instruction: 455f5452
    4cfc:	495f5252 			@ <UNDEFINED> instruction: 495f5252
    4d00:	4c41564e 	mcrrmi	6, 4, r5, r1, cr14
    4d04:	505f4449 			@ <UNDEFINED> instruction: 505f4449
    4d08:	54495241 			@ <UNDEFINED> instruction: 54495241
    4d0c:	5f5f0059 			@ <UNDEFINED> instruction: 5f5f0059
    4d10:	5f414455 			@ <UNDEFINED> instruction: 5f414455
    4d14:	54494249 			@ <UNDEFINED> instruction: 54494249
    4d18:	33205f5f 			@ <UNDEFINED> instruction: 33205f5f
    4d1c:	6f6d0032 			@ <UNDEFINED> instruction: 6f6d0032
    4d20:	5f006564 			@ <UNDEFINED> instruction: 5f006564
    4d24:	5f4f4e5f 			@ <UNDEFINED> instruction: 5f4f4e5f
    4d28:	494c4e49 			@ <UNDEFINED> instruction: 494c4e49
    4d2c:	5f5f454e 			@ <UNDEFINED> instruction: 5f5f454e
    4d30:	52003120 			@ <UNDEFINED> instruction: 52003120
    4d34:	415f4343 			@ <UNDEFINED> instruction: 415f4343
    4d38:	52324248 			@ <UNDEFINED> instruction: 52324248
    4d3c:	5f525453 			@ <UNDEFINED> instruction: 5f525453
    4d40:	5346464f 	movtpl	r4, #26191	@ 0x664f
    4d44:	30205445 			@ <UNDEFINED> instruction: 30205445
    4d48:	55343178 			@ <UNDEFINED> instruction: 55343178
    4d4c:	4955004c 			@ <UNDEFINED> instruction: 4955004c
    4d50:	4c5f544e 	mrrcmi	4, 4, r5, pc, cr14	@ <UNPREDICTABLE>
    4d54:	54534145 			@ <UNDEFINED> instruction: 54534145
    4d58:	4d5f3233 			@ <UNDEFINED> instruction: 4d5f3233
    4d5c:	5f005841 			@ <UNDEFINED> instruction: 5f005841
    4d60:	4f54415f 			@ <UNDEFINED> instruction: 4f54415f
    4d64:	5f43494d 			@ <UNDEFINED> instruction: 5f43494d
    4d68:	414c4552 			@ <UNDEFINED> instruction: 414c4552
    4d6c:	20444558 			@ <UNDEFINED> instruction: 20444558
    4d70:	5f5f0030 			@ <UNDEFINED> instruction: 5f5f0030
    4d74:	5f4d5241 			@ <UNDEFINED> instruction: 5f4d5241
    4d78:	54414546 			@ <UNDEFINED> instruction: 54414546
    4d7c:	5f455255 			@ <UNDEFINED> instruction: 5f455255
    4d80:	52504f43 			@ <UNDEFINED> instruction: 52504f43
    4d84:	4700434f 			@ <UNDEFINED> instruction: 4700434f
    4d88:	5f4f4950 			@ <UNDEFINED> instruction: 5f4f4950
    4d8c:	20394641 			@ <UNDEFINED> instruction: 20394641
    4d90:	39307830 			@ <UNDEFINED> instruction: 39307830
    4d94:	5f5f0055 			@ <UNDEFINED> instruction: 5f5f0055
    4d98:	5f4c4244 			@ <UNDEFINED> instruction: 5f4c4244
    4d9c:	5f534148 			@ <UNDEFINED> instruction: 5f534148
    4da0:	49464e49 			@ <UNDEFINED> instruction: 49464e49
    4da4:	5954494e 			@ <UNDEFINED> instruction: 5954494e
    4da8:	31205f5f 			@ <UNDEFINED> instruction: 31205f5f
    4dac:	4e495500 			@ <UNDEFINED> instruction: 4e495500
    4db0:	454c5f54 			@ <UNDEFINED> instruction: 454c5f54
    4db4:	36545341 			@ <UNDEFINED> instruction: 36545341
    4db8:	414d5f34 			@ <UNDEFINED> instruction: 414d5f34
    4dbc:	5f5f2058 			@ <UNDEFINED> instruction: 5f5f2058
    4dc0:	544e4955 			@ <UNDEFINED> instruction: 544e4955
    4dc4:	41454c5f 			@ <UNDEFINED> instruction: 41454c5f
    4dc8:	34365453 			@ <UNDEFINED> instruction: 34365453
    4dcc:	58414d5f 			@ <UNDEFINED> instruction: 58414d5f
    4dd0:	5f005f5f 			@ <UNDEFINED> instruction: 5f005f5f
    4dd4:	4749535f 	smlsldmi	r5, r9, pc, r3	@ <UNPREDICTABLE>
    4dd8:	4f54415f 			@ <UNDEFINED> instruction: 4f54415f
    4ddc:	5f43494d 			@ <UNDEFINED> instruction: 5f43494d
    4de0:	5f58414d 			@ <UNDEFINED> instruction: 5f58414d
    4de4:	7830205f 			@ <UNDEFINED> instruction: 7830205f
    4de8:	66666637 			@ <UNDEFINED> instruction: 66666637
    4dec:	66666666 			@ <UNDEFINED> instruction: 66666666
    4df0:	4e495500 			@ <UNDEFINED> instruction: 4e495500
    4df4:	454c5f54 			@ <UNDEFINED> instruction: 454c5f54
    4df8:	33545341 			@ <UNDEFINED> instruction: 33545341
    4dfc:	414d5f32 			@ <UNDEFINED> instruction: 414d5f32
    4e00:	5f5f2058 			@ <UNDEFINED> instruction: 5f5f2058
    4e04:	544e4955 			@ <UNDEFINED> instruction: 544e4955
    4e08:	41454c5f 			@ <UNDEFINED> instruction: 41454c5f
    4e0c:	32335453 			@ <UNDEFINED> instruction: 32335453
    4e10:	58414d5f 			@ <UNDEFINED> instruction: 58414d5f
    4e14:	5f005f5f 			@ <UNDEFINED> instruction: 5f005f5f
    4e18:	544c465f 			@ <UNDEFINED> instruction: 544c465f
    4e1c:	4d5f3436 			@ <UNDEFINED> instruction: 4d5f3436
    4e20:	5f544e41 			@ <UNDEFINED> instruction: 5f544e41
    4e24:	5f474944 			@ <UNDEFINED> instruction: 5f474944
    4e28:	3335205f 			@ <UNDEFINED> instruction: 3335205f
    4e2c:	41535500 			@ <UNDEFINED> instruction: 41535500
    4e30:	435f5452 			@ <UNDEFINED> instruction: 435f5452
    4e34:	535f3252 			@ <UNDEFINED> instruction: 535f3252
    4e38:	5f504f54 			@ <UNDEFINED> instruction: 5f504f54
    4e3c:	30282031 			@ <UNDEFINED> instruction: 30282031
    4e40:	4c553078 	mrrcmi	0, 7, r3, r5, cr8
    4e44:	203c3c20 			@ <UNDEFINED> instruction: 203c3c20
    4e48:	00293231 			@ <UNDEFINED> instruction: 00293231
    4e4c:	54524155 			@ <UNDEFINED> instruction: 54524155
    4e50:	6174535f 			@ <UNDEFINED> instruction: 6174535f
    4e54:	5f737574 			@ <UNDEFINED> instruction: 5f737574
    4e58:	5f5f0074 			@ <UNDEFINED> instruction: 5f5f0074
    4e5c:	53455355 	movtpl	r5, #21333	@ 0x5355
    4e60:	494e495f 			@ <UNDEFINED> instruction: 494e495f
    4e64:	4e494654 			@ <UNDEFINED> instruction: 4e494654
    4e68:	205f5f49 			@ <UNDEFINED> instruction: 205f5f49
    4e6c:	43520031 			@ <UNDEFINED> instruction: 43520031
    4e70:	46435f43 			@ <UNDEFINED> instruction: 46435f43
    4e74:	52205247 			@ <UNDEFINED> instruction: 52205247
    4e78:	32334745 			@ <UNDEFINED> instruction: 32334745
    4e7c:	43435228 	movtmi	r5, #12840	@ 0x3228
    4e80:	5341425f 	movtpl	r4, #4703	@ 0x125f
    4e84:	52202c45 			@ <UNDEFINED> instruction: 52202c45
    4e88:	435f4343 			@ <UNDEFINED> instruction: 435f4343
    4e8c:	5f524746 			@ <UNDEFINED> instruction: 5f524746
    4e90:	5346464f 	movtpl	r4, #26191	@ 0x664f
    4e94:	00295445 			@ <UNDEFINED> instruction: 00295445
    4e98:	656e5f5f 			@ <UNDEFINED> instruction: 656e5f5f
    4e9c:	705f6465 			@ <UNDEFINED> instruction: 705f6465
    4ea0:	69647274 			@ <UNDEFINED> instruction: 69647274
    4ea4:	745f6666 			@ <UNDEFINED> instruction: 745f6666
    4ea8:	445f5f00 			@ <UNDEFINED> instruction: 445f5f00
    4eac:	445f4c42 			@ <UNDEFINED> instruction: 445f4c42
    4eb0:	4d494345 			@ <UNDEFINED> instruction: 4d494345
    4eb4:	445f4c41 			@ <UNDEFINED> instruction: 445f4c41
    4eb8:	5f5f4749 			@ <UNDEFINED> instruction: 5f5f4749
    4ebc:	00373120 			@ <UNDEFINED> instruction: 00373120
    4ec0:	4f495047 			@ <UNDEFINED> instruction: 4f495047
    4ec4:	4e49505f 			@ <UNDEFINED> instruction: 4e49505f
    4ec8:	5445535f 			@ <UNDEFINED> instruction: 5445535f
    4ecc:	544e4900 			@ <UNDEFINED> instruction: 544e4900
    4ed0:	435f3631 			@ <UNDEFINED> instruction: 435f3631
    4ed4:	20296328 			@ <UNDEFINED> instruction: 20296328
    4ed8:	4e495f5f 			@ <UNDEFINED> instruction: 4e495f5f
    4edc:	5f363154 			@ <UNDEFINED> instruction: 5f363154
    4ee0:	29632843 			@ <UNDEFINED> instruction: 29632843
    4ee4:	48435700 			@ <UNDEFINED> instruction: 48435700
    4ee8:	4d5f5241 			@ <UNDEFINED> instruction: 4d5f5241
    4eec:	5f204e49 			@ <UNDEFINED> instruction: 5f204e49
    4ef0:	4843575f 			@ <UNDEFINED> instruction: 4843575f
    4ef4:	4d5f5241 			@ <UNDEFINED> instruction: 4d5f5241
    4ef8:	5f5f4e49 			@ <UNDEFINED> instruction: 5f5f4e49
    4efc:	4d545300 			@ <UNDEFINED> instruction: 4d545300
    4f00:	34463233 			@ <UNDEFINED> instruction: 34463233
    4f04:	475f5858 			@ <UNDEFINED> instruction: 475f5858
    4f08:	5f4f4950 			@ <UNDEFINED> instruction: 5f4f4950
    4f0c:	5f002048 			@ <UNDEFINED> instruction: 5f002048
    4f10:	544e495f 			@ <UNDEFINED> instruction: 544e495f
    4f14:	4d5f3631 			@ <UNDEFINED> instruction: 4d5f3631
    4f18:	5f5f5841 			@ <UNDEFINED> instruction: 5f5f5841
    4f1c:	37783020 			@ <UNDEFINED> instruction: 37783020
    4f20:	00666666 			@ <UNDEFINED> instruction: 00666666
    4f24:	43575f5f 			@ <UNDEFINED> instruction: 43575f5f
    4f28:	5f524148 			@ <UNDEFINED> instruction: 5f524148
    4f2c:	205f5f54 			@ <UNDEFINED> instruction: 205f5f54
    4f30:	495f5f00 			@ <UNDEFINED> instruction: 495f5f00
    4f34:	575f544e 			@ <UNDEFINED> instruction: 575f544e
    4f38:	48544449 			@ <UNDEFINED> instruction: 48544449
    4f3c:	33205f5f 			@ <UNDEFINED> instruction: 33205f5f
    4f40:	5f5f0032 			@ <UNDEFINED> instruction: 5f5f0032
    4f44:	5f4d5241 			@ <UNDEFINED> instruction: 5f4d5241
    4f48:	54414546 			@ <UNDEFINED> instruction: 54414546
    4f4c:	5f455255 			@ <UNDEFINED> instruction: 5f455255
    4f50:	444d4953 			@ <UNDEFINED> instruction: 444d4953
    4f54:	31203233 			@ <UNDEFINED> instruction: 31203233
    4f58:	49504700 			@ <UNDEFINED> instruction: 49504700
    4f5c:	495f414f 			@ <UNDEFINED> instruction: 495f414f
    4f60:	52205244 			@ <UNDEFINED> instruction: 52205244
    4f64:	32334745 			@ <UNDEFINED> instruction: 32334745
    4f68:	49504728 			@ <UNDEFINED> instruction: 49504728
    4f6c:	425f414f 			@ <UNDEFINED> instruction: 425f414f
    4f70:	2c455341 	mcrrcs	3, 4, r5, r5, cr1
    4f74:	49504720 			@ <UNDEFINED> instruction: 49504720
    4f78:	44495f4f 			@ <UNDEFINED> instruction: 44495f4f
    4f7c:	464f5f52 			@ <UNDEFINED> instruction: 464f5f52
    4f80:	54455346 			@ <UNDEFINED> instruction: 54455346
    4f84:	5f5f0029 			@ <UNDEFINED> instruction: 5f5f0029
    4f88:	465f5151 			@ <UNDEFINED> instruction: 465f5151
    4f8c:	5f544942 			@ <UNDEFINED> instruction: 5f544942
    4f90:	0037205f 			@ <UNDEFINED> instruction: 0037205f
    4f94:	54535953 			@ <UNDEFINED> instruction: 54535953
    4f98:	5f4b4349 			@ <UNDEFINED> instruction: 5f4b4349
    4f9c:	4c525443 	mrrcmi	4, 4, r5, r2, cr3
    4fa0:	554f435f 			@ <UNDEFINED> instruction: 554f435f
    4fa4:	4c46544e 	mcrrmi	4, 4, r5, r6, cr14
    4fa8:	28204741 			@ <UNDEFINED> instruction: 28204741
    4fac:	204c5531 			@ <UNDEFINED> instruction: 204c5531
    4fb0:	31203c3c 			@ <UNDEFINED> instruction: 31203c3c
    4fb4:	5f002936 			@ <UNDEFINED> instruction: 5f002936
    4fb8:	4749535f 	smlsldmi	r5, r9, pc, r3	@ <UNPREDICTABLE>
    4fbc:	4f54415f 			@ <UNDEFINED> instruction: 4f54415f
    4fc0:	5f43494d 			@ <UNDEFINED> instruction: 5f43494d
    4fc4:	54444957 			@ <UNDEFINED> instruction: 54444957
    4fc8:	205f5f48 			@ <UNDEFINED> instruction: 205f5f48
    4fcc:	55003233 			@ <UNDEFINED> instruction: 55003233
    4fd0:	54524153 			@ <UNDEFINED> instruction: 54524153
    4fd4:	52435f32 			@ <UNDEFINED> instruction: 52435f32
    4fd8:	45522031 			@ <UNDEFINED> instruction: 45522031
    4fdc:	28323347 			@ <UNDEFINED> instruction: 28323347
    4fe0:	52415355 			@ <UNDEFINED> instruction: 52415355
    4fe4:	425f3254 			@ <UNDEFINED> instruction: 425f3254
    4fe8:	2c455341 	mcrrcs	3, 4, r5, r5, cr1
    4fec:	41535520 			@ <UNDEFINED> instruction: 41535520
    4ff0:	435f5452 			@ <UNDEFINED> instruction: 435f5452
    4ff4:	4f5f3152 			@ <UNDEFINED> instruction: 4f5f3152
    4ff8:	45534646 			@ <UNDEFINED> instruction: 45534646
    4ffc:	5f002954 			@ <UNDEFINED> instruction: 5f002954
    5000:	4154555f 			@ <UNDEFINED> instruction: 4154555f
    5004:	4942495f 			@ <UNDEFINED> instruction: 4942495f
    5008:	205f5f54 			@ <UNDEFINED> instruction: 205f5f54
    500c:	5f003436 			@ <UNDEFINED> instruction: 5f003436
    5010:	4d52415f 			@ <UNDEFINED> instruction: 4d52415f
    5014:	4145465f 			@ <UNDEFINED> instruction: 4145465f
    5018:	45525554 			@ <UNDEFINED> instruction: 45525554
    501c:	4352435f 			@ <UNDEFINED> instruction: 4352435f
    5020:	5f003233 			@ <UNDEFINED> instruction: 5f003233
    5024:	4c4c555f 	mcrrmi	5, 5, r5, ip, cr15
    5028:	43415246 	movtmi	r5, #4678	@ 0x1246
    502c:	50455f54 			@ <UNDEFINED> instruction: 50455f54
    5030:	4f4c4953 			@ <UNDEFINED> instruction: 4f4c4953
    5034:	205f5f4e 			@ <UNDEFINED> instruction: 205f5f4e
    5038:	50317830 			@ <UNDEFINED> instruction: 50317830
    503c:	5534362d 			@ <UNDEFINED> instruction: 5534362d
    5040:	00524c4c 			@ <UNDEFINED> instruction: 00524c4c
    5044:	52415355 			@ <UNDEFINED> instruction: 52415355
    5048:	52535f54 			@ <UNDEFINED> instruction: 52535f54
    504c:	4e58525f 			@ <UNDEFINED> instruction: 4e58525f
    5050:	31282045 			@ <UNDEFINED> instruction: 31282045
    5054:	3c204c55 			@ <UNDEFINED> instruction: 3c204c55
    5058:	2935203c 			@ <UNDEFINED> instruction: 2935203c
    505c:	535f5f00 			@ <UNDEFINED> instruction: 535f5f00
    5060:	4f455a49 			@ <UNDEFINED> instruction: 4f455a49
    5064:	49575f46 			@ <UNDEFINED> instruction: 49575f46
    5068:	545f544e 			@ <UNDEFINED> instruction: 545f544e
    506c:	34205f5f 			@ <UNDEFINED> instruction: 34205f5f
    5070:	415f5f00 			@ <UNDEFINED> instruction: 415f5f00
    5074:	465f4d52 			@ <UNDEFINED> instruction: 465f4d52
    5078:	55544145 			@ <UNDEFINED> instruction: 55544145
    507c:	555f4552 			@ <UNDEFINED> instruction: 555f4552
    5080:	494c414e 			@ <UNDEFINED> instruction: 494c414e
    5084:	44454e47 			@ <UNDEFINED> instruction: 44454e47
    5088:	5f003120 			@ <UNDEFINED> instruction: 5f003120
    508c:	4454535f 			@ <UNDEFINED> instruction: 4454535f
    5090:	205f5f43 			@ <UNDEFINED> instruction: 205f5f43
    5094:	5f5f0031 			@ <UNDEFINED> instruction: 5f5f0031
    5098:	4c42444c 	mcrrmi	4, 4, r4, r2, cr12
    509c:	4345445f 	movtmi	r4, #21599	@ 0x545f
    50a0:	4c414d49 	mcrrmi	13, 4, r4, r1, cr9
    50a4:	4749445f 	smlsldmi	r4, r9, pc, r4	@ <UNPREDICTABLE>
    50a8:	31205f5f 			@ <UNDEFINED> instruction: 31205f5f
    50ac:	50470037 			@ <UNDEFINED> instruction: 50470037
    50b0:	505f4f49 			@ <UNDEFINED> instruction: 505f4f49
    50b4:	52445055 			@ <UNDEFINED> instruction: 52445055
    50b8:	53414d5f 	movtpl	r4, #7519	@ 0x1d5f
    50bc:	7830204b 			@ <UNDEFINED> instruction: 7830204b
    50c0:	00553330 			@ <UNDEFINED> instruction: 00553330
    50c4:	51485f5f 			@ <UNDEFINED> instruction: 51485f5f
    50c8:	4942465f 			@ <UNDEFINED> instruction: 4942465f
    50cc:	205f5f54 			@ <UNDEFINED> instruction: 205f5f54
    50d0:	5f003531 			@ <UNDEFINED> instruction: 5f003531
    50d4:	43414c5f 	movtmi	r4, #7263	@ 0x1c5f
    50d8:	5f4d5543 			@ <UNDEFINED> instruction: 5f4d5543
    50dc:	5f4e494d 			@ <UNDEFINED> instruction: 5f4e494d
    50e0:	2d28205f 			@ <UNDEFINED> instruction: 2d28205f
    50e4:	50315830 			@ <UNDEFINED> instruction: 50315830
    50e8:	4b4c3133 			@ <UNDEFINED> instruction: 4b4c3133
    50ec:	3158302d 			@ <UNDEFINED> instruction: 3158302d
    50f0:	4c313350 			@ <UNDEFINED> instruction: 4c313350
    50f4:	5f00294b 			@ <UNDEFINED> instruction: 5f00294b
    50f8:	544e495f 			@ <UNDEFINED> instruction: 544e495f
    50fc:	5341465f 	movtpl	r4, #5727	@ 0x165f
    5100:	4d5f3854 			@ <UNDEFINED> instruction: 4d5f3854
    5104:	5f5f5841 			@ <UNDEFINED> instruction: 5f5f5841
    5108:	37783020 			@ <UNDEFINED> instruction: 37783020
    510c:	66666666 			@ <UNDEFINED> instruction: 66666666
    5110:	00666666 			@ <UNDEFINED> instruction: 00666666
    5114:	4c465f5f 	mcrrmi	15, 5, r5, r6, cr15
    5118:	5f323354 			@ <UNDEFINED> instruction: 5f323354
    511c:	5f534148 			@ <UNDEFINED> instruction: 5f534148
    5120:	4f4e4544 			@ <UNDEFINED> instruction: 4f4e4544
    5124:	5f5f4d52 			@ <UNDEFINED> instruction: 5f5f4d52
    5128:	5f003120 			@ <UNDEFINED> instruction: 5f003120
    512c:	544c465f 			@ <UNDEFINED> instruction: 544c465f
    5130:	58414d5f 			@ <UNDEFINED> instruction: 58414d5f
    5134:	33205f5f 			@ <UNDEFINED> instruction: 33205f5f
    5138:	3230342e 			@ <UNDEFINED> instruction: 3230342e
    513c:	34333238 			@ <UNDEFINED> instruction: 34333238
    5140:	38333636 			@ <UNDEFINED> instruction: 38333636
    5144:	38383235 			@ <UNDEFINED> instruction: 38383235
    5148:	332b6536 			@ <UNDEFINED> instruction: 332b6536
    514c:	5f004638 			@ <UNDEFINED> instruction: 5f004638
    5150:	544c465f 			@ <UNDEFINED> instruction: 544c465f
    5154:	5f583233 			@ <UNDEFINED> instruction: 5f583233
    5158:	5f534148 			@ <UNDEFINED> instruction: 5f534148
    515c:	4f4e4544 			@ <UNDEFINED> instruction: 4f4e4544
    5160:	5f5f4d52 			@ <UNDEFINED> instruction: 5f5f4d52
    5164:	5f003120 			@ <UNDEFINED> instruction: 5f003120
    5168:	4c4c555f 	mcrrmi	5, 5, r5, ip, cr15
    516c:	55434341 			@ <UNDEFINED> instruction: 55434341
    5170:	494d5f4d 			@ <UNDEFINED> instruction: 494d5f4d
    5174:	205f5f4e 			@ <UNDEFINED> instruction: 205f5f4e
    5178:	55302e30 			@ <UNDEFINED> instruction: 55302e30
    517c:	004b4c4c 			@ <UNDEFINED> instruction: 004b4c4c
    5180:	4e495f5f 			@ <UNDEFINED> instruction: 4e495f5f
    5184:	41465f54 			@ <UNDEFINED> instruction: 41465f54
    5188:	32335453 			@ <UNDEFINED> instruction: 32335453
    518c:	4449575f 			@ <UNDEFINED> instruction: 4449575f
    5190:	5f5f4854 			@ <UNDEFINED> instruction: 5f5f4854
    5194:	00323320 			@ <UNDEFINED> instruction: 00323320
    5198:	695f5f5f 			@ <UNDEFINED> instruction: 695f5f5f
    519c:	775f746e 			@ <UNDEFINED> instruction: 775f746e
    51a0:	72616863 			@ <UNDEFINED> instruction: 72616863
    51a4:	685f745f 			@ <UNDEFINED> instruction: 685f745f
    51a8:	43520020 			@ <UNDEFINED> instruction: 43520020
    51ac:	46435f43 			@ <UNDEFINED> instruction: 46435f43
    51b0:	535f5247 			@ <UNDEFINED> instruction: 535f5247
    51b4:	53485f57 	movtpl	r5, #36695	@ 0x8f57
    51b8:	30282049 			@ <UNDEFINED> instruction: 30282049
    51bc:	4c553078 	mrrcmi	0, 7, r3, r5, cr8
    51c0:	5f5f0029 			@ <UNDEFINED> instruction: 5f5f0029
    51c4:	5f4d5241 			@ <UNDEFINED> instruction: 5f4d5241
    51c8:	5f4d5341 			@ <UNDEFINED> instruction: 5f4d5341
    51cc:	544e5953 			@ <UNDEFINED> instruction: 544e5953
    51d0:	555f5841 			@ <UNDEFINED> instruction: 555f5841
    51d4:	4946494e 			@ <UNDEFINED> instruction: 4946494e
    51d8:	5f5f4445 			@ <UNDEFINED> instruction: 5f5f4445
    51dc:	5f003120 			@ <UNDEFINED> instruction: 5f003120
    51e0:	455a4953 			@ <UNDEFINED> instruction: 455a4953
    51e4:	445f545f 			@ <UNDEFINED> instruction: 445f545f
    51e8:	414c4345 			@ <UNDEFINED> instruction: 414c4345
    51ec:	20444552 			@ <UNDEFINED> instruction: 20444552
    51f0:	43435200 	movtmi	r5, #12800	@ 0x3200
    51f4:	5f52435f 			@ <UNDEFINED> instruction: 5f52435f
    51f8:	4f455348 			@ <UNDEFINED> instruction: 4f455348
    51fc:	3128204e 			@ <UNDEFINED> instruction: 3128204e
    5200:	3c204c55 			@ <UNDEFINED> instruction: 3c204c55
    5204:	3631203c 			@ <UNDEFINED> instruction: 3631203c
    5208:	6e690029 			@ <UNDEFINED> instruction: 6e690029
    520c:	735f7469 			@ <UNDEFINED> instruction: 735f7469
    5210:	65746174 			@ <UNDEFINED> instruction: 65746174
    5214:	555f5f00 			@ <UNDEFINED> instruction: 555f5f00
    5218:	33544e49 			@ <UNDEFINED> instruction: 33544e49
    521c:	59545f32 			@ <UNDEFINED> instruction: 59545f32
    5220:	5f5f4550 			@ <UNDEFINED> instruction: 5f5f4550
    5224:	6e6f6c20 			@ <UNDEFINED> instruction: 6e6f6c20
    5228:	6e752067 			@ <UNDEFINED> instruction: 6e752067
    522c:	6e676973 			@ <UNDEFINED> instruction: 6e676973
    5230:	69206465 			@ <UNDEFINED> instruction: 69206465
    5234:	4900746e 			@ <UNDEFINED> instruction: 4900746e
    5238:	5450544e 			@ <UNDEFINED> instruction: 5450544e
    523c:	414d5f52 			@ <UNDEFINED> instruction: 414d5f52
    5240:	5f5f2058 			@ <UNDEFINED> instruction: 5f5f2058
    5244:	50544e49 			@ <UNDEFINED> instruction: 50544e49
    5248:	4d5f5254 			@ <UNDEFINED> instruction: 4d5f5254
    524c:	5f5f5841 			@ <UNDEFINED> instruction: 5f5f5841
    5250:	415f5f00 			@ <UNDEFINED> instruction: 415f5f00
    5254:	465f4d52 			@ <UNDEFINED> instruction: 465f4d52
    5258:	55544145 			@ <UNDEFINED> instruction: 55544145
    525c:	445f4552 			@ <UNDEFINED> instruction: 445f4552
    5260:	5250544f 			@ <UNDEFINED> instruction: 5250544f
    5264:	5200444f 			@ <UNDEFINED> instruction: 5200444f
    5268:	435f4343 			@ <UNDEFINED> instruction: 435f4343
    526c:	4f5f5253 			@ <UNDEFINED> instruction: 4f5f5253
    5270:	45534646 			@ <UNDEFINED> instruction: 45534646
    5274:	78302054 			@ <UNDEFINED> instruction: 78302054
    5278:	4c553437 	mrrcmi	4, 3, r3, r5, cr7
    527c:	415f5f00 			@ <UNDEFINED> instruction: 415f5f00
    5280:	505f4d52 			@ <UNDEFINED> instruction: 505f4d52
    5284:	565f5343 			@ <UNDEFINED> instruction: 565f5343
    5288:	31205046 			@ <UNDEFINED> instruction: 31205046
    528c:	43475f00 	movtmi	r5, #32512	@ 0x7f00
    5290:	49535f43 			@ <UNDEFINED> instruction: 49535f43
    5294:	545f455a 			@ <UNDEFINED> instruction: 545f455a
    5298:	5f5f0020 			@ <UNDEFINED> instruction: 5f5f0020
    529c:	544e4957 			@ <UNDEFINED> instruction: 544e4957
    52a0:	4449575f 			@ <UNDEFINED> instruction: 4449575f
    52a4:	5f5f4854 			@ <UNDEFINED> instruction: 5f5f4854
    52a8:	00323320 			@ <UNDEFINED> instruction: 00323320
    52ac:	4c555f5f 	mrrcmi	15, 5, r5, r5, cr15	@ <UNPREDICTABLE>
    52b0:	4152464c 			@ <UNDEFINED> instruction: 4152464c
    52b4:	4d5f5443 			@ <UNDEFINED> instruction: 4d5f5443
    52b8:	5f5f4e49 			@ <UNDEFINED> instruction: 5f5f4e49
    52bc:	302e3020 			@ <UNDEFINED> instruction: 302e3020
    52c0:	524c4c55 			@ <UNDEFINED> instruction: 524c4c55
    52c4:	52415500 			@ <UNDEFINED> instruction: 52415500
    52c8:	52455f54 			@ <UNDEFINED> instruction: 52455f54
    52cc:	4e495f52 			@ <UNDEFINED> instruction: 4e495f52
    52d0:	494c4156 			@ <UNDEFINED> instruction: 494c4156
    52d4:	54535f44 			@ <UNDEFINED> instruction: 54535f44
    52d8:	4900504f 			@ <UNDEFINED> instruction: 4900504f
    52dc:	4c5f544e 	mrrcmi	4, 4, r5, pc, cr14	@ <UNPREDICTABLE>
    52e0:	54534145 			@ <UNDEFINED> instruction: 54534145
    52e4:	4d5f3436 			@ <UNDEFINED> instruction: 4d5f3436
    52e8:	5f004e49 			@ <UNDEFINED> instruction: 5f004e49
    52ec:	4343475f 	movtmi	r4, #14175	@ 0x375f
    52f0:	4e4f435f 			@ <UNDEFINED> instruction: 4e4f435f
    52f4:	55525453 			@ <UNDEFINED> instruction: 55525453
    52f8:	56495443 			@ <UNDEFINED> instruction: 56495443
    52fc:	49535f45 			@ <UNDEFINED> instruction: 49535f45
    5300:	3620455a 			@ <UNDEFINED> instruction: 3620455a
    5304:	425f0034 			@ <UNDEFINED> instruction: 425f0034
    5308:	575f4453 			@ <UNDEFINED> instruction: 575f4453
    530c:	52414843 			@ <UNDEFINED> instruction: 52414843
    5310:	005f545f 			@ <UNDEFINED> instruction: 005f545f
    5314:	4c4c5f5f 	mcrrmi	15, 5, r5, ip, cr15
    5318:	43415246 	movtmi	r5, #4678	@ 0x1246
    531c:	42495f54 			@ <UNDEFINED> instruction: 42495f54
    5320:	5f5f5449 			@ <UNDEFINED> instruction: 5f5f5449
    5324:	47003020 			@ <UNDEFINED> instruction: 47003020
    5328:	5f4f4950 			@ <UNDEFINED> instruction: 5f4f4950
    532c:	666e6f43 			@ <UNDEFINED> instruction: 666e6f43
    5330:	745f6769 			@ <UNDEFINED> instruction: 745f6769
    5334:	49504700 			@ <UNDEFINED> instruction: 49504700
    5338:	425f414f 			@ <UNDEFINED> instruction: 425f414f
    533c:	20455341 			@ <UNDEFINED> instruction: 20455341
    5340:	30347830 			@ <UNDEFINED> instruction: 30347830
    5344:	30303230 			@ <UNDEFINED> instruction: 30303230
    5348:	4c553030 	mrrcmi	0, 3, r3, r5, cr0
    534c:	49504700 			@ <UNDEFINED> instruction: 49504700
    5350:	415f424f 			@ <UNDEFINED> instruction: 415f424f
    5354:	20485246 			@ <UNDEFINED> instruction: 20485246
    5358:	33474552 	movtcc	r4, #30034	@ 0x7552
    535c:	50472832 			@ <UNDEFINED> instruction: 50472832
    5360:	5f424f49 			@ <UNDEFINED> instruction: 5f424f49
    5364:	45534142 			@ <UNDEFINED> instruction: 45534142
    5368:	5047202c 			@ <UNDEFINED> instruction: 5047202c
    536c:	415f4f49 			@ <UNDEFINED> instruction: 415f4f49
    5370:	5f485246 			@ <UNDEFINED> instruction: 5f485246
    5374:	5346464f 	movtpl	r4, #26191	@ 0x664f
    5378:	00295445 			@ <UNDEFINED> instruction: 00295445
    537c:	746e6975 			@ <UNDEFINED> instruction: 746e6975
    5380:	745f3233 			@ <UNDEFINED> instruction: 745f3233
    5384:	52415500 			@ <UNDEFINED> instruction: 52415500
    5388:	54535f54 			@ <UNDEFINED> instruction: 54535f54
    538c:	4942504f 			@ <UNDEFINED> instruction: 4942504f
    5390:	325f5354 			@ <UNDEFINED> instruction: 325f5354
    5394:	00553120 			@ <UNDEFINED> instruction: 00553120
    5398:	5f434352 			@ <UNDEFINED> instruction: 5f434352
    539c:	485f5243 			@ <UNDEFINED> instruction: 485f5243
    53a0:	4e4f4953 			@ <UNDEFINED> instruction: 4e4f4953
    53a4:	55312820 			@ <UNDEFINED> instruction: 55312820
    53a8:	3c3c204c 			@ <UNDEFINED> instruction: 3c3c204c
    53ac:	00293020 			@ <UNDEFINED> instruction: 00293020
    53b0:	52415355 			@ <UNDEFINED> instruction: 52415355
    53b4:	52435f54 			@ <UNDEFINED> instruction: 52435f54
    53b8:	414e5f33 			@ <UNDEFINED> instruction: 414e5f33
    53bc:	28204b43 			@ <UNDEFINED> instruction: 28204b43
    53c0:	204c5531 			@ <UNDEFINED> instruction: 204c5531
    53c4:	34203c3c 			@ <UNDEFINED> instruction: 34203c3c
    53c8:	5f5f0029 			@ <UNDEFINED> instruction: 5f5f0029
    53cc:	43434153 	movtmi	r4, #12627	@ 0x3153
    53d0:	455f4d55 			@ <UNDEFINED> instruction: 455f4d55
    53d4:	4c495350 	mcrrmi	3, 5, r5, r9, cr0
    53d8:	5f5f4e4f 			@ <UNDEFINED> instruction: 5f5f4e4f
    53dc:	31783020 			@ <UNDEFINED> instruction: 31783020
    53e0:	48372d50 			@ <UNDEFINED> instruction: 48372d50
    53e4:	5f5f004b 			@ <UNDEFINED> instruction: 5f5f004b
    53e8:	5f4d5241 			@ <UNDEFINED> instruction: 5f4d5241
    53ec:	48435241 			@ <UNDEFINED> instruction: 48435241
    53f0:	4153495f 			@ <UNDEFINED> instruction: 4153495f
    53f4:	5548545f 			@ <UNDEFINED> instruction: 5548545f
    53f8:	3220424d 			@ <UNDEFINED> instruction: 3220424d
    53fc:	41535500 			@ <UNDEFINED> instruction: 41535500
    5400:	435f5452 			@ <UNDEFINED> instruction: 435f5452
    5404:	495f3352 			@ <UNDEFINED> instruction: 495f3352
    5408:	20504c52 			@ <UNDEFINED> instruction: 20504c52
    540c:	4c553128 	mrrcmi	1, 2, r3, r5, cr8
    5410:	203c3c20 			@ <UNDEFINED> instruction: 203c3c20
    5414:	55002932 			@ <UNDEFINED> instruction: 55002932
    5418:	54524153 			@ <UNDEFINED> instruction: 54524153
    541c:	3252435f 			@ <UNDEFINED> instruction: 3252435f
    5420:	43424c5f 	movtmi	r4, #11359	@ 0x2c5f
    5424:	3128204c 			@ <UNDEFINED> instruction: 3128204c
    5428:	3c204c55 			@ <UNDEFINED> instruction: 3c204c55
    542c:	2938203c 			@ <UNDEFINED> instruction: 2938203c
    5430:	415f5f00 			@ <UNDEFINED> instruction: 415f5f00
    5434:	465f4d52 			@ <UNDEFINED> instruction: 465f4d52
    5438:	00342050 			@ <UNDEFINED> instruction: 00342050
    543c:	49555f5f 			@ <UNDEFINED> instruction: 49555f5f
    5440:	465f544e 			@ <UNDEFINED> instruction: 465f544e
    5444:	31545341 			@ <UNDEFINED> instruction: 31545341
    5448:	59545f36 			@ <UNDEFINED> instruction: 59545f36
    544c:	5f5f4550 			@ <UNDEFINED> instruction: 5f5f4550
    5450:	736e7520 			@ <UNDEFINED> instruction: 736e7520
    5454:	656e6769 			@ <UNDEFINED> instruction: 656e6769
    5458:	6e692064 			@ <UNDEFINED> instruction: 6e692064
    545c:	43520074 			@ <UNDEFINED> instruction: 43520074
    5460:	50415f43 			@ <UNDEFINED> instruction: 50415f43
    5464:	53523142 			@ <UNDEFINED> instruction: 53523142
    5468:	4f5f5254 			@ <UNDEFINED> instruction: 4f5f5254
    546c:	45534646 			@ <UNDEFINED> instruction: 45534646
    5470:	78302054 			@ <UNDEFINED> instruction: 78302054
    5474:	4c553032 	mrrcmi	0, 3, r3, r5, cr2
    5478:	555f5f00 			@ <UNDEFINED> instruction: 555f5f00
    547c:	495f4148 			@ <UNDEFINED> instruction: 495f4148
    5480:	5f544942 			@ <UNDEFINED> instruction: 5f544942
    5484:	0038205f 			@ <UNDEFINED> instruction: 0038205f
    5488:	5f434352 			@ <UNDEFINED> instruction: 5f434352
    548c:	32424841 			@ <UNDEFINED> instruction: 32424841
    5490:	4e45504c 			@ <UNDEFINED> instruction: 4e45504c
    5494:	464f5f52 			@ <UNDEFINED> instruction: 464f5f52
    5498:	54455346 			@ <UNDEFINED> instruction: 54455346
    549c:	35783020 			@ <UNDEFINED> instruction: 35783020
    54a0:	004c5534 			@ <UNDEFINED> instruction: 004c5534
    54a4:	4c555f5f 	mrrcmi	15, 5, r5, r5, cr15	@ <UNPREDICTABLE>
    54a8:	55434341 			@ <UNDEFINED> instruction: 55434341
    54ac:	50455f4d 			@ <UNDEFINED> instruction: 50455f4d
    54b0:	4f4c4953 			@ <UNDEFINED> instruction: 4f4c4953
    54b4:	205f5f4e 			@ <UNDEFINED> instruction: 205f5f4e
    54b8:	50317830 			@ <UNDEFINED> instruction: 50317830
    54bc:	5532332d 			@ <UNDEFINED> instruction: 5532332d
    54c0:	5f004b4c 			@ <UNDEFINED> instruction: 5f004b4c
    54c4:	42444c5f 			@ <UNDEFINED> instruction: 42444c5f
    54c8:	49445f4c 			@ <UNDEFINED> instruction: 49445f4c
    54cc:	205f5f47 			@ <UNDEFINED> instruction: 205f5f47
    54d0:	47003531 	smladxmi	r0, r1, r5, r3
    54d4:	414f4950 			@ <UNDEFINED> instruction: 414f4950
    54d8:	50534f5f 			@ <UNDEFINED> instruction: 50534f5f
    54dc:	52444545 			@ <UNDEFINED> instruction: 52444545
    54e0:	47455220 			@ <UNDEFINED> instruction: 47455220
    54e4:	47283233 			@ <UNDEFINED> instruction: 47283233
    54e8:	414f4950 			@ <UNDEFINED> instruction: 414f4950
    54ec:	5341425f 	movtpl	r4, #4703	@ 0x125f
    54f0:	47202c45 			@ <UNDEFINED> instruction: 47202c45
    54f4:	5f4f4950 			@ <UNDEFINED> instruction: 5f4f4950
    54f8:	4550534f 			@ <UNDEFINED> instruction: 4550534f
    54fc:	5f524445 			@ <UNDEFINED> instruction: 5f524445
    5500:	5346464f 	movtpl	r4, #26191	@ 0x664f
    5504:	00295445 			@ <UNDEFINED> instruction: 00295445
    5508:	544e4955 			@ <UNDEFINED> instruction: 544e4955
    550c:	435f3436 			@ <UNDEFINED> instruction: 435f3436
    5510:	535f5f00 			@ <UNDEFINED> instruction: 535f5f00
    5514:	5f455a49 			@ <UNDEFINED> instruction: 5f455a49
    5518:	54444957 			@ <UNDEFINED> instruction: 54444957
    551c:	205f5f48 			@ <UNDEFINED> instruction: 205f5f48
    5520:	53003233 	movwpl	r3, #563	@ 0x233
    5524:	415f4749 			@ <UNDEFINED> instruction: 415f4749
    5528:	494d4f54 			@ <UNDEFINED> instruction: 494d4f54
    552c:	414d5f43 			@ <UNDEFINED> instruction: 414d5f43
    5530:	43520058 			@ <UNDEFINED> instruction: 43520058
    5534:	52435f43 			@ <UNDEFINED> instruction: 52435f43
    5538:	4c4c505f 	mcrrmi	0, 5, r5, ip, cr15
    553c:	20594452 			@ <UNDEFINED> instruction: 20594452
    5540:	4c553128 	mrrcmi	1, 2, r3, r5, cr8
    5544:	203c3c20 			@ <UNDEFINED> instruction: 203c3c20
    5548:	00293532 			@ <UNDEFINED> instruction: 00293532
    554c:	52415355 			@ <UNDEFINED> instruction: 52415355
    5550:	52425f54 			@ <UNDEFINED> instruction: 52425f54
    5554:	49445f52 			@ <UNDEFINED> instruction: 49445f52
    5558:	52465f56 			@ <UNDEFINED> instruction: 52465f56
    555c:	49544341 			@ <UNDEFINED> instruction: 49544341
    5560:	4d5f4e4f 			@ <UNDEFINED> instruction: 4d5f4e4f
    5564:	204b5341 			@ <UNDEFINED> instruction: 204b5341
    5568:	30307830 			@ <UNDEFINED> instruction: 30307830
    556c:	004c5546 			@ <UNDEFINED> instruction: 004c5546
    5570:	49575f5f 			@ <UNDEFINED> instruction: 49575f5f
    5574:	4d5f544e 			@ <UNDEFINED> instruction: 4d5f544e
    5578:	5f5f4e49 			@ <UNDEFINED> instruction: 5f5f4e49
    557c:	00553020 			@ <UNDEFINED> instruction: 00553020
    5580:	5f544e49 			@ <UNDEFINED> instruction: 5f544e49
    5584:	5341454c 	movtpl	r4, #5452	@ 0x154c
    5588:	5f363154 			@ <UNDEFINED> instruction: 5f363154
    558c:	004e494d 			@ <UNDEFINED> instruction: 004e494d
    5590:	4f495047 			@ <UNDEFINED> instruction: 4f495047
    5594:	3346415f 	movtcc	r4, #24927	@ 0x615f
    5598:	30783020 			@ <UNDEFINED> instruction: 30783020
    559c:	5f005533 			@ <UNDEFINED> instruction: 5f005533
    55a0:	544c465f 			@ <UNDEFINED> instruction: 544c465f
    55a4:	445f3436 			@ <UNDEFINED> instruction: 445f3436
    55a8:	5f5f4749 			@ <UNDEFINED> instruction: 5f5f4749
    55ac:	00353120 			@ <UNDEFINED> instruction: 00353120
    55b0:	49555f5f 			@ <UNDEFINED> instruction: 49555f5f
    55b4:	4c5f544e 	mrrcmi	4, 4, r5, pc, cr14	@ <UNPREDICTABLE>
    55b8:	54534145 			@ <UNDEFINED> instruction: 54534145
    55bc:	4d5f3631 			@ <UNDEFINED> instruction: 4d5f3631
    55c0:	5f5f5841 			@ <UNDEFINED> instruction: 5f5f5841
    55c4:	66783020 			@ <UNDEFINED> instruction: 66783020
    55c8:	00666666 			@ <UNDEFINED> instruction: 00666666
    55cc:	49575f5f 			@ <UNDEFINED> instruction: 49575f5f
    55d0:	4d5f544e 			@ <UNDEFINED> instruction: 4d5f544e
    55d4:	5f5f5841 			@ <UNDEFINED> instruction: 5f5f5841
    55d8:	66783020 			@ <UNDEFINED> instruction: 66783020
    55dc:	66666666 			@ <UNDEFINED> instruction: 66666666
    55e0:	55666666 			@ <UNDEFINED> instruction: 55666666
    55e4:	495f5f00 			@ <UNDEFINED> instruction: 495f5f00
    55e8:	4c5f544e 	mrrcmi	4, 4, r5, pc, cr14	@ <UNPREDICTABLE>
    55ec:	54534145 			@ <UNDEFINED> instruction: 54534145
    55f0:	49575f38 			@ <UNDEFINED> instruction: 49575f38
    55f4:	5f485444 			@ <UNDEFINED> instruction: 5f485444
    55f8:	0038205f 			@ <UNDEFINED> instruction: 0038205f
    55fc:	54524155 			@ <UNDEFINED> instruction: 54524155
    5600:	444f4d5f 			@ <UNDEFINED> instruction: 444f4d5f
    5604:	58525f45 			@ <UNDEFINED> instruction: 58525f45
    5608:	00553120 			@ <UNDEFINED> instruction: 00553120
    560c:	4e495f5f 			@ <UNDEFINED> instruction: 4e495f5f
    5610:	454c5f54 			@ <UNDEFINED> instruction: 454c5f54
    5614:	31545341 			@ <UNDEFINED> instruction: 31545341
    5618:	59545f36 			@ <UNDEFINED> instruction: 59545f36
    561c:	5f5f4550 			@ <UNDEFINED> instruction: 5f5f4550
    5620:	6f687320 			@ <UNDEFINED> instruction: 6f687320
    5624:	69207472 			@ <UNDEFINED> instruction: 69207472
    5628:	5f00746e 			@ <UNDEFINED> instruction: 5f00746e
    562c:	4c42445f 	mcrrmi	4, 5, r4, r2, cr15
    5630:	58414d5f 			@ <UNDEFINED> instruction: 58414d5f
    5634:	28205f5f 			@ <UNDEFINED> instruction: 28205f5f
    5638:	756f6428 			@ <UNDEFINED> instruction: 756f6428
    563c:	29656c62 			@ <UNDEFINED> instruction: 29656c62
    5640:	39372e31 			@ <UNDEFINED> instruction: 39372e31
    5644:	33393637 			@ <UNDEFINED> instruction: 33393637
    5648:	38343331 			@ <UNDEFINED> instruction: 38343331
    564c:	31333236 			@ <UNDEFINED> instruction: 31333236
    5650:	2b653735 			@ <UNDEFINED> instruction: 2b653735
    5654:	4c383033 			@ <UNDEFINED> instruction: 4c383033
    5658:	4e490029 			@ <UNDEFINED> instruction: 4e490029
    565c:	5f323354 			@ <UNDEFINED> instruction: 5f323354
    5660:	004e494d 			@ <UNDEFINED> instruction: 004e494d
    5664:	4c4c5f5f 	mcrrmi	15, 5, r5, ip, cr15
    5668:	43415246 	movtmi	r5, #4678	@ 0x1246
    566c:	42465f54 			@ <UNDEFINED> instruction: 42465f54
    5670:	5f5f5449 			@ <UNDEFINED> instruction: 5f5f5449
    5674:	00333620 			@ <UNDEFINED> instruction: 00333620
    5678:	4c465f5f 	mcrrmi	15, 5, r5, r6, cr15
    567c:	5f323354 			@ <UNDEFINED> instruction: 5f323354
    5680:	5f534148 			@ <UNDEFINED> instruction: 5f534148
    5684:	49464e49 			@ <UNDEFINED> instruction: 49464e49
    5688:	5954494e 			@ <UNDEFINED> instruction: 5954494e
    568c:	31205f5f 			@ <UNDEFINED> instruction: 31205f5f
    5690:	4e495500 			@ <UNDEFINED> instruction: 4e495500
    5694:	58414d54 			@ <UNDEFINED> instruction: 58414d54
    5698:	5500435f 			@ <UNDEFINED> instruction: 5500435f
    569c:	34545241 			@ <UNDEFINED> instruction: 34545241
    56a0:	6766435f 			@ <UNDEFINED> instruction: 6766435f
    56a4:	49504700 			@ <UNDEFINED> instruction: 49504700
    56a8:	4f4d5f4f 			@ <UNDEFINED> instruction: 4f4d5f4f
    56ac:	5f524544 			@ <UNDEFINED> instruction: 5f524544
    56b0:	55504e49 			@ <UNDEFINED> instruction: 55504e49
    56b4:	78302054 			@ <UNDEFINED> instruction: 78302054
    56b8:	00553030 			@ <UNDEFINED> instruction: 00553030
    56bc:	5f544e49 			@ <UNDEFINED> instruction: 5f544e49
    56c0:	54534146 			@ <UNDEFINED> instruction: 54534146
    56c4:	4d5f3631 			@ <UNDEFINED> instruction: 4d5f3631
    56c8:	5f205841 			@ <UNDEFINED> instruction: 5f205841
    56cc:	544e495f 			@ <UNDEFINED> instruction: 544e495f
    56d0:	5341465f 	movtpl	r4, #5727	@ 0x165f
    56d4:	5f363154 			@ <UNDEFINED> instruction: 5f363154
    56d8:	5f58414d 			@ <UNDEFINED> instruction: 5f58414d
    56dc:	5f5f005f 			@ <UNDEFINED> instruction: 5f5f005f
    56e0:	454d5241 			@ <UNDEFINED> instruction: 454d5241
    56e4:	205f5f4c 			@ <UNDEFINED> instruction: 205f5f4c
    56e8:	5f5f0031 			@ <UNDEFINED> instruction: 5f5f0031
    56ec:	5f4d5241 			@ <UNDEFINED> instruction: 5f4d5241
    56f0:	54414546 			@ <UNDEFINED> instruction: 54414546
    56f4:	5f455255 			@ <UNDEFINED> instruction: 5f455255
    56f8:	36314642 			@ <UNDEFINED> instruction: 36314642
    56fc:	4143535f 			@ <UNDEFINED> instruction: 4143535f
    5700:	5f52414c 			@ <UNDEFINED> instruction: 5f52414c
    5704:	54495241 			@ <UNDEFINED> instruction: 54495241
    5708:	54454d48 			@ <UNDEFINED> instruction: 54454d48
    570c:	55004349 			@ <UNDEFINED> instruction: 55004349
    5710:	5f545241 			@ <UNDEFINED> instruction: 5f545241
    5714:	55004b4f 			@ <UNDEFINED> instruction: 55004b4f
    5718:	5f545241 			@ <UNDEFINED> instruction: 5f545241
    571c:	5f525245 			@ <UNDEFINED> instruction: 5f525245
    5720:	545f5854 			@ <UNDEFINED> instruction: 545f5854
    5724:	4f454d49 			@ <UNDEFINED> instruction: 4f454d49
    5728:	5f005455 			@ <UNDEFINED> instruction: 5f005455
    572c:	5a49535f 			@ <UNDEFINED> instruction: 5a49535f
    5730:	414d5f45 			@ <UNDEFINED> instruction: 414d5f45
    5734:	205f5f58 			@ <UNDEFINED> instruction: 205f5f58
    5738:	66667830 			@ <UNDEFINED> instruction: 66667830
    573c:	66666666 			@ <UNDEFINED> instruction: 66666666
    5740:	00556666 			@ <UNDEFINED> instruction: 00556666
    5744:	54524155 			@ <UNDEFINED> instruction: 54524155
    5748:	444f4d5f 			@ <UNDEFINED> instruction: 444f4d5f
    574c:	58545f45 			@ <UNDEFINED> instruction: 58545f45
    5750:	2058525f 			@ <UNDEFINED> instruction: 2058525f
    5754:	47005532 	smladxmi	r0, r2, r5, r5
    5758:	5f4f4950 			@ <UNDEFINED> instruction: 5f4f4950
    575c:	4550534f 			@ <UNDEFINED> instruction: 4550534f
    5760:	5f524445 			@ <UNDEFINED> instruction: 5f524445
    5764:	4944454d 			@ <UNDEFINED> instruction: 4944454d
    5768:	30204d55 			@ <UNDEFINED> instruction: 30204d55
    576c:	55313078 			@ <UNDEFINED> instruction: 55313078
    5770:	415f5f00 			@ <UNDEFINED> instruction: 415f5f00
    5774:	415f4d52 			@ <UNDEFINED> instruction: 415f4d52
    5778:	00484352 			@ <UNDEFINED> instruction: 00484352
    577c:	45445f5f 			@ <UNDEFINED> instruction: 45445f5f
    5780:	454e4946 			@ <UNDEFINED> instruction: 454e4946
    5784:	74705f44 			@ <UNDEFINED> instruction: 74705f44
    5788:	66696472 			@ <UNDEFINED> instruction: 66696472
    578c:	20745f66 			@ <UNDEFINED> instruction: 20745f66
    5790:	66666f00 			@ <UNDEFINED> instruction: 66666f00
    5794:	6f746573 			@ <UNDEFINED> instruction: 6f746573
    5798:	49530066 			@ <UNDEFINED> instruction: 49530066
    579c:	54415f47 			@ <UNDEFINED> instruction: 54415f47
    57a0:	43494d4f 	movtmi	r4, #40271	@ 0x9d4f
    57a4:	4e494d5f 			@ <UNDEFINED> instruction: 4e494d5f
    57a8:	535f5f20 			@ <UNDEFINED> instruction: 535f5f20
    57ac:	415f4749 			@ <UNDEFINED> instruction: 415f4749
    57b0:	494d4f54 			@ <UNDEFINED> instruction: 494d4f54
    57b4:	494d5f43 			@ <UNDEFINED> instruction: 494d5f43
    57b8:	005f5f4e 			@ <UNDEFINED> instruction: 005f5f4e
    57bc:	52415f5f 			@ <UNDEFINED> instruction: 52415f5f
    57c0:	45465f4d 			@ <UNDEFINED> instruction: 45465f4d
    57c4:	52555441 			@ <UNDEFINED> instruction: 52555441
    57c8:	444c5f45 			@ <UNDEFINED> instruction: 444c5f45
    57cc:	20584552 			@ <UNDEFINED> instruction: 20584552
    57d0:	54500037 			@ <UNDEFINED> instruction: 54500037
    57d4:	46494452 			@ <UNDEFINED> instruction: 46494452
    57d8:	414d5f46 			@ <UNDEFINED> instruction: 414d5f46
    57dc:	53550058 			@ <UNDEFINED> instruction: 53550058
    57e0:	5f545241 			@ <UNDEFINED> instruction: 5f545241
    57e4:	5f325243 			@ <UNDEFINED> instruction: 5f325243
    57e8:	4944424c 			@ <UNDEFINED> instruction: 4944424c
    57ec:	31282045 			@ <UNDEFINED> instruction: 31282045
    57f0:	3c204c55 			@ <UNDEFINED> instruction: 3c204c55
    57f4:	2936203c 			@ <UNDEFINED> instruction: 2936203c
    57f8:	41535500 			@ <UNDEFINED> instruction: 41535500
    57fc:	435f5452 			@ <UNDEFINED> instruction: 435f5452
    5800:	495f3152 			@ <UNDEFINED> instruction: 495f3152
    5804:	49454c44 			@ <UNDEFINED> instruction: 49454c44
    5808:	31282045 			@ <UNDEFINED> instruction: 31282045
    580c:	3c204c55 			@ <UNDEFINED> instruction: 3c204c55
    5810:	2934203c 			@ <UNDEFINED> instruction: 2934203c
    5814:	4c5f5f00 	mrrcmi	15, 0, r5, pc, cr0	@ <UNPREDICTABLE>
    5818:	4152464c 			@ <UNDEFINED> instruction: 4152464c
    581c:	455f5443 			@ <UNDEFINED> instruction: 455f5443
    5820:	4c495350 	mcrrmi	3, 5, r5, r9, cr0
    5824:	5f5f4e4f 			@ <UNDEFINED> instruction: 5f5f4e4f
    5828:	31783020 			@ <UNDEFINED> instruction: 31783020
    582c:	33362d50 			@ <UNDEFINED> instruction: 33362d50
    5830:	00524c4c 			@ <UNDEFINED> instruction: 00524c4c
    5834:	46535f5f 	usaxmi	r5, r3, pc	@ <UNPREDICTABLE>
    5838:	54434152 			@ <UNDEFINED> instruction: 54434152
    583c:	58414d5f 			@ <UNDEFINED> instruction: 58414d5f
    5840:	30205f5f 			@ <UNDEFINED> instruction: 30205f5f
    5844:	50463758 			@ <UNDEFINED> instruction: 50463758
    5848:	5248372d 			@ <UNDEFINED> instruction: 5248372d
    584c:	465f5f00 			@ <UNDEFINED> instruction: 465f5f00
    5850:	3233544c 			@ <UNDEFINED> instruction: 3233544c
    5854:	414d5f58 			@ <UNDEFINED> instruction: 414d5f58
    5858:	445f544e 			@ <UNDEFINED> instruction: 445f544e
    585c:	5f5f4749 			@ <UNDEFINED> instruction: 5f5f4749
    5860:	00333520 			@ <UNDEFINED> instruction: 00333520
    5864:	43575f5f 			@ <UNDEFINED> instruction: 43575f5f
    5868:	5f524148 			@ <UNDEFINED> instruction: 5f524148
    586c:	54444957 			@ <UNDEFINED> instruction: 54444957
    5870:	205f5f48 			@ <UNDEFINED> instruction: 205f5f48
    5874:	47003233 	smladxmi	r0, r3, r2, r3
    5878:	424f4950 			@ <UNDEFINED> instruction: 424f4950
    587c:	59544f5f 			@ <UNDEFINED> instruction: 59544f5f
    5880:	20524550 			@ <UNDEFINED> instruction: 20524550
    5884:	33474552 	movtcc	r4, #30034	@ 0x7552
    5888:	50472832 			@ <UNDEFINED> instruction: 50472832
    588c:	5f424f49 			@ <UNDEFINED> instruction: 5f424f49
    5890:	45534142 			@ <UNDEFINED> instruction: 45534142
    5894:	5047202c 			@ <UNDEFINED> instruction: 5047202c
    5898:	4f5f4f49 			@ <UNDEFINED> instruction: 4f5f4f49
    589c:	45505954 			@ <UNDEFINED> instruction: 45505954
    58a0:	464f5f52 			@ <UNDEFINED> instruction: 464f5f52
    58a4:	54455346 			@ <UNDEFINED> instruction: 54455346
    58a8:	49570029 			@ <UNDEFINED> instruction: 49570029
    58ac:	4d5f544e 			@ <UNDEFINED> instruction: 4d5f544e
    58b0:	5f005841 			@ <UNDEFINED> instruction: 5f005841
    58b4:	544e495f 			@ <UNDEFINED> instruction: 544e495f
    58b8:	435f3631 			@ <UNDEFINED> instruction: 435f3631
    58bc:	20296328 			@ <UNDEFINED> instruction: 20296328
    58c0:	4e490063 			@ <UNDEFINED> instruction: 4e490063
    58c4:	41465f54 			@ <UNDEFINED> instruction: 41465f54
    58c8:	36315453 			@ <UNDEFINED> instruction: 36315453
    58cc:	4e494d5f 			@ <UNDEFINED> instruction: 4e494d5f
    58d0:	492d2820 			@ <UNDEFINED> instruction: 492d2820
    58d4:	465f544e 			@ <UNDEFINED> instruction: 465f544e
    58d8:	31545341 			@ <UNDEFINED> instruction: 31545341
    58dc:	414d5f36 			@ <UNDEFINED> instruction: 414d5f36
    58e0:	202d2058 			@ <UNDEFINED> instruction: 202d2058
    58e4:	5f002931 			@ <UNDEFINED> instruction: 5f002931
    58e8:	5f41445f 			@ <UNDEFINED> instruction: 5f41445f
    58ec:	54494249 			@ <UNDEFINED> instruction: 54494249
    58f0:	33205f5f 			@ <UNDEFINED> instruction: 33205f5f
    58f4:	5f5f0032 			@ <UNDEFINED> instruction: 5f5f0032
    58f8:	52465355 			@ <UNDEFINED> instruction: 52465355
    58fc:	5f544341 			@ <UNDEFINED> instruction: 5f544341
    5900:	54494249 			@ <UNDEFINED> instruction: 54494249
    5904:	30205f5f 			@ <UNDEFINED> instruction: 30205f5f
    5908:	415f5f00 			@ <UNDEFINED> instruction: 415f5f00
    590c:	465f4d52 			@ <UNDEFINED> instruction: 465f4d52
    5910:	55544145 			@ <UNDEFINED> instruction: 55544145
    5914:	535f4552 			@ <UNDEFINED> instruction: 535f4552
    5918:	00324148 			@ <UNDEFINED> instruction: 00324148
    591c:	69726170 			@ <UNDEFINED> instruction: 69726170
    5920:	5f007974 			@ <UNDEFINED> instruction: 5f007974
    5924:	4f54415f 			@ <UNDEFINED> instruction: 4f54415f
    5928:	5f43494d 			@ <UNDEFINED> instruction: 5f43494d
    592c:	5f514341 			@ <UNDEFINED> instruction: 5f514341
    5930:	204c4552 			@ <UNDEFINED> instruction: 204c4552
    5934:	5f5f0034 			@ <UNDEFINED> instruction: 5f5f0034
    5938:	495f5148 			@ <UNDEFINED> instruction: 495f5148
    593c:	5f544942 			@ <UNDEFINED> instruction: 5f544942
    5940:	0030205f 			@ <UNDEFINED> instruction: 0030205f
    5944:	42445f5f 			@ <UNDEFINED> instruction: 42445f5f
    5948:	494d5f4c 			@ <UNDEFINED> instruction: 494d5f4c
    594c:	30315f4e 			@ <UNDEFINED> instruction: 30315f4e
    5950:	5058455f 			@ <UNDEFINED> instruction: 5058455f
    5954:	28205f5f 			@ <UNDEFINED> instruction: 28205f5f
    5958:	3730332d 			@ <UNDEFINED> instruction: 3730332d
    595c:	53550029 			@ <UNDEFINED> instruction: 53550029
    5960:	5f545241 			@ <UNDEFINED> instruction: 5f545241
    5964:	4e5f5253 			@ <UNDEFINED> instruction: 4e5f5253
    5968:	31282045 			@ <UNDEFINED> instruction: 31282045
    596c:	3c204c55 			@ <UNDEFINED> instruction: 3c204c55
    5970:	2932203c 			@ <UNDEFINED> instruction: 2932203c
    5974:	465f5f00 			@ <UNDEFINED> instruction: 465f5f00
    5978:	3233544c 			@ <UNDEFINED> instruction: 3233544c
    597c:	524f4e5f 			@ <UNDEFINED> instruction: 524f4e5f
    5980:	414d5f4d 			@ <UNDEFINED> instruction: 414d5f4d
    5984:	205f5f58 			@ <UNDEFINED> instruction: 205f5f58
    5988:	30342e33 			@ <UNDEFINED> instruction: 30342e33
    598c:	33323832 			@ <UNDEFINED> instruction: 33323832
    5990:	33363634 			@ <UNDEFINED> instruction: 33363634
    5994:	38323538 			@ <UNDEFINED> instruction: 38323538
    5998:	2b653638 			@ <UNDEFINED> instruction: 2b653638
    599c:	33463833 	movtcc	r3, #26675	@ 0x6833
    59a0:	43520032 			@ <UNDEFINED> instruction: 43520032
    59a4:	50415f43 			@ <UNDEFINED> instruction: 50415f43
    59a8:	4e453142 			@ <UNDEFINED> instruction: 4e453142
    59ac:	53555f52 			@ <UNDEFINED> instruction: 53555f52
    59b0:	33545241 			@ <UNDEFINED> instruction: 33545241
    59b4:	28204e45 			@ <UNDEFINED> instruction: 28204e45
    59b8:	204c5531 			@ <UNDEFINED> instruction: 204c5531
    59bc:	31203c3c 			@ <UNDEFINED> instruction: 31203c3c
    59c0:	55002938 			@ <UNDEFINED> instruction: 55002938
    59c4:	36544e49 			@ <UNDEFINED> instruction: 36544e49
    59c8:	28435f34 			@ <UNDEFINED> instruction: 28435f34
    59cc:	5f202963 			@ <UNDEFINED> instruction: 5f202963
    59d0:	4e49555f 			@ <UNDEFINED> instruction: 4e49555f
    59d4:	5f343654 			@ <UNDEFINED> instruction: 5f343654
    59d8:	29632843 			@ <UNDEFINED> instruction: 29632843
    59dc:	555f5f00 			@ <UNDEFINED> instruction: 555f5f00
    59e0:	4d544e49 			@ <UNDEFINED> instruction: 4d544e49
    59e4:	4d5f5841 			@ <UNDEFINED> instruction: 4d5f5841
    59e8:	5f5f5841 			@ <UNDEFINED> instruction: 5f5f5841
    59ec:	66783020 			@ <UNDEFINED> instruction: 66783020
    59f0:	66666666 			@ <UNDEFINED> instruction: 66666666
    59f4:	66666666 			@ <UNDEFINED> instruction: 66666666
    59f8:	66666666 			@ <UNDEFINED> instruction: 66666666
    59fc:	55666666 			@ <UNDEFINED> instruction: 55666666
    5a00:	5f004c4c 			@ <UNDEFINED> instruction: 5f004c4c
    5a04:	4c42445f 	mcrrmi	4, 5, r4, r2, cr15
    5a08:	4e414d5f 			@ <UNDEFINED> instruction: 4e414d5f
    5a0c:	49445f54 			@ <UNDEFINED> instruction: 49445f54
    5a10:	205f5f47 			@ <UNDEFINED> instruction: 205f5f47
    5a14:	5f003335 			@ <UNDEFINED> instruction: 5f003335
    5a18:	464c555f 			@ <UNDEFINED> instruction: 464c555f
    5a1c:	54434152 			@ <UNDEFINED> instruction: 54434152
    5a20:	4942495f 			@ <UNDEFINED> instruction: 4942495f
    5a24:	205f5f54 			@ <UNDEFINED> instruction: 205f5f54
    5a28:	50470030 			@ <UNDEFINED> instruction: 50470030
    5a2c:	535f4f49 			@ <UNDEFINED> instruction: 535f4f49
    5a30:	75746174 			@ <UNDEFINED> instruction: 75746174
    5a34:	00745f73 			@ <UNDEFINED> instruction: 00745f73
    5a38:	52415355 			@ <UNDEFINED> instruction: 52415355
    5a3c:	435f3254 			@ <UNDEFINED> instruction: 435f3254
    5a40:	52203252 			@ <UNDEFINED> instruction: 52203252
    5a44:	32334745 			@ <UNDEFINED> instruction: 32334745
    5a48:	41535528 			@ <UNDEFINED> instruction: 41535528
    5a4c:	5f325452 			@ <UNDEFINED> instruction: 5f325452
    5a50:	45534142 			@ <UNDEFINED> instruction: 45534142
    5a54:	5355202c 			@ <UNDEFINED> instruction: 5355202c
    5a58:	5f545241 			@ <UNDEFINED> instruction: 5f545241
    5a5c:	5f325243 			@ <UNDEFINED> instruction: 5f325243
    5a60:	5346464f 	movtpl	r4, #26191	@ 0x664f
    5a64:	00295445 			@ <UNDEFINED> instruction: 00295445
    5a68:	4e495f5f 			@ <UNDEFINED> instruction: 4e495f5f
    5a6c:	414d5f54 			@ <UNDEFINED> instruction: 414d5f54
    5a70:	205f5f58 			@ <UNDEFINED> instruction: 205f5f58
    5a74:	66377830 			@ <UNDEFINED> instruction: 66377830
    5a78:	66666666 			@ <UNDEFINED> instruction: 66666666
    5a7c:	5f006666 			@ <UNDEFINED> instruction: 5f006666
    5a80:	544e495f 			@ <UNDEFINED> instruction: 544e495f
    5a84:	41454c5f 			@ <UNDEFINED> instruction: 41454c5f
    5a88:	34365453 			@ <UNDEFINED> instruction: 34365453
    5a8c:	5059545f 			@ <UNDEFINED> instruction: 5059545f
    5a90:	205f5f45 			@ <UNDEFINED> instruction: 205f5f45
    5a94:	676e6f6c 			@ <UNDEFINED> instruction: 676e6f6c
    5a98:	6e6f6c20 			@ <UNDEFINED> instruction: 6e6f6c20
    5a9c:	6e692067 			@ <UNDEFINED> instruction: 6e692067
    5aa0:	43520074 			@ <UNDEFINED> instruction: 43520074
    5aa4:	48415f43 			@ <UNDEFINED> instruction: 48415f43
    5aa8:	4e453142 			@ <UNDEFINED> instruction: 4e453142
    5aac:	50475f52 			@ <UNDEFINED> instruction: 50475f52
    5ab0:	45424f49 			@ <UNDEFINED> instruction: 45424f49
    5ab4:	3128204e 			@ <UNDEFINED> instruction: 3128204e
    5ab8:	3c204c55 			@ <UNDEFINED> instruction: 3c204c55
    5abc:	2931203c 			@ <UNDEFINED> instruction: 2931203c
    5ac0:	49504700 			@ <UNDEFINED> instruction: 49504700
    5ac4:	49505f4f 			@ <UNDEFINED> instruction: 49505f4f
    5ac8:	494d5f4e 			@ <UNDEFINED> instruction: 494d5f4e
    5acc:	5530204e 			@ <UNDEFINED> instruction: 5530204e
    5ad0:	415f5f00 			@ <UNDEFINED> instruction: 415f5f00
    5ad4:	465f4d52 			@ <UNDEFINED> instruction: 465f4d52
    5ad8:	55544145 			@ <UNDEFINED> instruction: 55544145
    5adc:	435f4552 			@ <UNDEFINED> instruction: 435f4552
    5ae0:	435f4544 			@ <UNDEFINED> instruction: 435f4544
    5ae4:	4f52504f 			@ <UNDEFINED> instruction: 4f52504f
    5ae8:	50470043 			@ <UNDEFINED> instruction: 50470043
    5aec:	5f414f49 			@ <UNDEFINED> instruction: 5f414f49
    5af0:	45444f4d 			@ <UNDEFINED> instruction: 45444f4d
    5af4:	45522052 			@ <UNDEFINED> instruction: 45522052
    5af8:	28323347 			@ <UNDEFINED> instruction: 28323347
    5afc:	4f495047 			@ <UNDEFINED> instruction: 4f495047
    5b00:	41425f41 			@ <UNDEFINED> instruction: 41425f41
    5b04:	202c4553 			@ <UNDEFINED> instruction: 202c4553
    5b08:	4f495047 			@ <UNDEFINED> instruction: 4f495047
    5b0c:	444f4d5f 			@ <UNDEFINED> instruction: 444f4d5f
    5b10:	4f5f5245 			@ <UNDEFINED> instruction: 4f5f5245
    5b14:	45534646 			@ <UNDEFINED> instruction: 45534646
    5b18:	55002954 			@ <UNDEFINED> instruction: 55002954
    5b1c:	33544e49 			@ <UNDEFINED> instruction: 33544e49
    5b20:	00435f32 			@ <UNDEFINED> instruction: 00435f32
    5b24:	4f495047 			@ <UNDEFINED> instruction: 4f495047
    5b28:	6e69505f 			@ <UNDEFINED> instruction: 6e69505f
    5b2c:	74617453 			@ <UNDEFINED> instruction: 74617453
    5b30:	00745f65 			@ <UNDEFINED> instruction: 00745f65
    5b34:	61636f6c 			@ <UNDEFINED> instruction: 61636f6c
    5b38:	69705f6c 			@ <UNDEFINED> instruction: 69705f6c
    5b3c:	6661006e 			@ <UNDEFINED> instruction: 6661006e
    5b40:	666f5f72 	uqsub16vs	r5, pc, r2	@ <UNPREDICTABLE>
    5b44:	74657366 			@ <UNDEFINED> instruction: 74657366
    5b48:	69687300 			@ <UNDEFINED> instruction: 69687300
    5b4c:	67007466 			@ <UNDEFINED> instruction: 67007466
    5b50:	5f6f6970 			@ <UNDEFINED> instruction: 5f6f6970
    5b54:	696c6176 			@ <UNDEFINED> instruction: 696c6176
    5b58:	65746164 			@ <UNDEFINED> instruction: 65746164
    5b5c:	6e6f635f 			@ <UNDEFINED> instruction: 6e6f635f
    5b60:	00676966 			@ <UNDEFINED> instruction: 00676966
    5b64:	64707570 			@ <UNDEFINED> instruction: 64707570
    5b68:	61760072 			@ <UNDEFINED> instruction: 61760072
    5b6c:	0065756c 			@ <UNDEFINED> instruction: 0065756c
    5b70:	65646f6d 			@ <UNDEFINED> instruction: 65646f6d
    5b74:	72730072 			@ <UNDEFINED> instruction: 72730072
    5b78:	74732f63 			@ <UNDEFINED> instruction: 74732f63
    5b7c:	6632336d 			@ <UNDEFINED> instruction: 6632336d
    5b80:	5f787834 			@ <UNDEFINED> instruction: 5f787834
    5b84:	6f697067 			@ <UNDEFINED> instruction: 6f697067
    5b88:	6f00632e 			@ <UNDEFINED> instruction: 6f00632e
    5b8c:	65657073 			@ <UNDEFINED> instruction: 65657073
    5b90:	73007264 	movwvc	r7, #612	@ 0x264
    5b94:	75746174 			@ <UNDEFINED> instruction: 75746174
    5b98:	746f0073 			@ <UNDEFINED> instruction: 746f0073
    5b9c:	72657079 			@ <UNDEFINED> instruction: 72657079
    5ba0:	6e697500 			@ <UNDEFINED> instruction: 6e697500
    5ba4:	72747074 			@ <UNDEFINED> instruction: 72747074
    5ba8:	4700745f 	smlsdmi	r0, pc, r4, r7	@ <UNPREDICTABLE>
    5bac:	5f4f4950 			@ <UNDEFINED> instruction: 5f4f4950
    5bb0:	74697257 			@ <UNDEFINED> instruction: 74697257
    5bb4:	6e695065 			@ <UNDEFINED> instruction: 6e695065
    5bb8:	73616d00 			@ <UNDEFINED> instruction: 73616d00
    5bbc:	7362006b 			@ <UNDEFINED> instruction: 7362006b
    5bc0:	47007272 	smlsdxmi	r0, r2, r2, r7
    5bc4:	5f4f4950 			@ <UNDEFINED> instruction: 5f4f4950
    5bc8:	64616552 			@ <UNDEFINED> instruction: 64616552
    5bcc:	006e6950 			@ <UNDEFINED> instruction: 006e6950
    5bd0:	6f697067 			@ <UNDEFINED> instruction: 6f697067
    5bd4:	7465735f 			@ <UNDEFINED> instruction: 7465735f
    5bd8:	0066615f 			@ <UNDEFINED> instruction: 0066615f
    5bdc:	4f495047 			@ <UNDEFINED> instruction: 4f495047
    5be0:	4965445f 			@ <UNDEFINED> instruction: 4965445f
    5be4:	0074696e 			@ <UNDEFINED> instruction: 0074696e
    5be8:	6f697067 			@ <UNDEFINED> instruction: 6f697067
    5bec:	7465735f 			@ <UNDEFINED> instruction: 7465735f
    5bf0:	6962325f 			@ <UNDEFINED> instruction: 6962325f
    5bf4:	69665f74 			@ <UNDEFINED> instruction: 69665f74
    5bf8:	00646c65 			@ <UNDEFINED> instruction: 00646c65
    5bfc:	4f495047 			@ <UNDEFINED> instruction: 4f495047
    5c00:	676f545f 			@ <UNDEFINED> instruction: 676f545f
    5c04:	50656c67 			@ <UNDEFINED> instruction: 50656c67
    5c08:	52006e69 			@ <UNDEFINED> instruction: 52006e69
    5c0c:	415f4343 			@ <UNDEFINED> instruction: 415f4343
    5c10:	43314248 			@ <UNDEFINED> instruction: 43314248
    5c14:	6b636f6c 			@ <UNDEFINED> instruction: 6b636f6c
    5c18:	61736944 			@ <UNDEFINED> instruction: 61736944
    5c1c:	00656c62 			@ <UNDEFINED> instruction: 00656c62
    5c20:	31627061 			@ <UNDEFINED> instruction: 31627061
    5c24:	7469625f 			@ <UNDEFINED> instruction: 7469625f
    5c28:	6c657200 			@ <UNDEFINED> instruction: 6c657200
    5c2c:	0064616f 			@ <UNDEFINED> instruction: 0064616f
    5c30:	5f434352 			@ <UNDEFINED> instruction: 5f434352
    5c34:	32425041 			@ <UNDEFINED> instruction: 32425041
    5c38:	636f6c43 			@ <UNDEFINED> instruction: 636f6c43
    5c3c:	7369446b 			@ <UNDEFINED> instruction: 7369446b
    5c40:	656c6261 			@ <UNDEFINED> instruction: 656c6261
    5c44:	63727300 			@ <UNDEFINED> instruction: 63727300
    5c48:	6d74732f 			@ <UNDEFINED> instruction: 6d74732f
    5c4c:	34663233 			@ <UNDEFINED> instruction: 34663233
    5c50:	725f7878 			@ <UNDEFINED> instruction: 725f7878
    5c54:	632e6363 			@ <UNDEFINED> instruction: 632e6363
    5c58:	43435200 	movtmi	r5, #12800	@ 0x3200
    5c5c:	4248415f 			@ <UNDEFINED> instruction: 4248415f
    5c60:	6f6c4331 			@ <UNDEFINED> instruction: 6f6c4331
    5c64:	6e456b63 	vmlsvs.f64	d22, d5, d19
    5c68:	656c6261 			@ <UNDEFINED> instruction: 656c6261
    5c6c:	43435200 	movtmi	r5, #12800	@ 0x3200
    5c70:	4250415f 			@ <UNDEFINED> instruction: 4250415f
    5c74:	6f6c4332 			@ <UNDEFINED> instruction: 6f6c4332
    5c78:	6e456b63 	vmlsvs.f64	d22, d5, d19
    5c7c:	656c6261 			@ <UNDEFINED> instruction: 656c6261
    5c80:	616c6500 			@ <UNDEFINED> instruction: 616c6500
    5c84:	64657370 			@ <UNDEFINED> instruction: 64657370
    5c88:	43435200 	movtmi	r5, #12800	@ 0x3200
    5c8c:	7465475f 			@ <UNDEFINED> instruction: 7465475f
    5c90:	43737953 			@ <UNDEFINED> instruction: 43737953
    5c94:	6b636f6c 			@ <UNDEFINED> instruction: 6b636f6c
    5c98:	72756f53 			@ <UNDEFINED> instruction: 72756f53
    5c9c:	52006563 			@ <UNDEFINED> instruction: 52006563
    5ca0:	535f4343 			@ <UNDEFINED> instruction: 535f4343
    5ca4:	79537465 			@ <UNDEFINED> instruction: 79537465
    5ca8:	6f6c4373 			@ <UNDEFINED> instruction: 6f6c4373
    5cac:	6f536b63 			@ <UNDEFINED> instruction: 6f536b63
    5cb0:	65637275 			@ <UNDEFINED> instruction: 65637275
    5cb4:	73795300 			@ <UNDEFINED> instruction: 73795300
    5cb8:	6b636954 			@ <UNDEFINED> instruction: 6b636954
    5cbc:	6e61485f 			@ <UNDEFINED> instruction: 6e61485f
    5cc0:	72656c64 			@ <UNDEFINED> instruction: 72656c64
    5cc4:	73777300 			@ <UNDEFINED> instruction: 73777300
    5cc8:	7078655f 			@ <UNDEFINED> instruction: 7078655f
    5ccc:	65746365 			@ <UNDEFINED> instruction: 65746365
    5cd0:	70630064 			@ <UNDEFINED> instruction: 70630064
    5cd4:	7a685f75 			@ <UNDEFINED> instruction: 7a685f75
    5cd8:	43435200 	movtmi	r5, #12800	@ 0x3200
    5cdc:	4250415f 			@ <UNDEFINED> instruction: 4250415f
    5ce0:	6f6c4331 			@ <UNDEFINED> instruction: 6f6c4331
    5ce4:	69446b63 			@ <UNDEFINED> instruction: 69446b63
    5ce8:	6c626173 			@ <UNDEFINED> instruction: 6c626173
    5cec:	70610065 			@ <UNDEFINED> instruction: 70610065
    5cf0:	625f3262 			@ <UNDEFINED> instruction: 625f3262
    5cf4:	74007469 			@ <UNDEFINED> instruction: 74007469
    5cf8:	6f656d69 			@ <UNDEFINED> instruction: 6f656d69
    5cfc:	61007475 			@ <UNDEFINED> instruction: 61007475
    5d00:	5f316268 			@ <UNDEFINED> instruction: 5f316268
    5d04:	00746962 			@ <UNDEFINED> instruction: 00746962
    5d08:	54737953 			@ <UNDEFINED> instruction: 54737953
    5d0c:	5f6b6369 			@ <UNDEFINED> instruction: 5f6b6369
    5d10:	54746547 			@ <UNDEFINED> instruction: 54746547
    5d14:	006b6369 			@ <UNDEFINED> instruction: 006b6369
    5d18:	72617473 			@ <UNDEFINED> instruction: 72617473
    5d1c:	63720074 			@ <UNDEFINED> instruction: 63720074
    5d20:	61775f63 			@ <UNDEFINED> instruction: 61775f63
    5d24:	665f7469 			@ <UNDEFINED> instruction: 665f7469
    5d28:	635f726f 			@ <UNDEFINED> instruction: 635f726f
    5d2c:	6b636f6c 			@ <UNDEFINED> instruction: 6b636f6c
    5d30:	756f735f 			@ <UNDEFINED> instruction: 756f735f
    5d34:	00656372 			@ <UNDEFINED> instruction: 00656372
    5d38:	5f434352 			@ <UNDEFINED> instruction: 5f434352
    5d3c:	534b4c43 	movtpl	r4, #48195	@ 0xbc43
    5d40:	545f4352 			@ <UNDEFINED> instruction: 545f4352
    5d44:	4f454d49 			@ <UNDEFINED> instruction: 4f454d49
    5d48:	38205455 			@ <UNDEFINED> instruction: 38205455
    5d4c:	30303030 			@ <UNDEFINED> instruction: 30303030
    5d50:	5f730055 			@ <UNDEFINED> instruction: 5f730055
    5d54:	6b636974 			@ <UNDEFINED> instruction: 6b636974
    5d58:	00736d5f 			@ <UNDEFINED> instruction: 00736d5f
    5d5c:	5f434352 			@ <UNDEFINED> instruction: 5f434352
    5d60:	31425041 			@ <UNDEFINED> instruction: 31425041
    5d64:	636f6c43 			@ <UNDEFINED> instruction: 636f6c43
    5d68:	616e456b 			@ <UNDEFINED> instruction: 616e456b
    5d6c:	00656c62 			@ <UNDEFINED> instruction: 00656c62
    5d70:	54524155 			@ <UNDEFINED> instruction: 54524155
    5d74:	6365525f 			@ <UNDEFINED> instruction: 6365525f
    5d78:	65766965 			@ <UNDEFINED> instruction: 65766965
    5d7c:	65747942 			@ <UNDEFINED> instruction: 65747942
    5d80:	52415500 			@ <UNDEFINED> instruction: 52415500
    5d84:	65445f54 			@ <UNDEFINED> instruction: 65445f54
    5d88:	74696e49 			@ <UNDEFINED> instruction: 74696e49
    5d8c:	52415500 			@ <UNDEFINED> instruction: 52415500
    5d90:	72545f54 			@ <UNDEFINED> instruction: 72545f54
    5d94:	6d736e61 			@ <UNDEFINED> instruction: 6d736e61
    5d98:	79427469 			@ <UNDEFINED> instruction: 79427469
    5d9c:	55006574 			@ <UNDEFINED> instruction: 55006574
    5da0:	5f545241 			@ <UNDEFINED> instruction: 5f545241
    5da4:	6e617254 			@ <UNDEFINED> instruction: 6e617254
    5da8:	74696d73 			@ <UNDEFINED> instruction: 74696d73
    5dac:	72617500 			@ <UNDEFINED> instruction: 72617500
    5db0:	61765f74 			@ <UNDEFINED> instruction: 61765f74
    5db4:	6164696c 			@ <UNDEFINED> instruction: 6164696c
    5db8:	635f6574 			@ <UNDEFINED> instruction: 635f6574
    5dbc:	69666e6f 			@ <UNDEFINED> instruction: 69666e6f
    5dc0:	41550067 			@ <UNDEFINED> instruction: 41550067
    5dc4:	525f5452 			@ <UNDEFINED> instruction: 525f5452
    5dc8:	69656365 			@ <UNDEFINED> instruction: 69656365
    5dcc:	73006576 	movwvc	r6, #1398	@ 0x576
    5dd0:	732f6372 			@ <UNDEFINED> instruction: 732f6372
    5dd4:	32336d74 			@ <UNDEFINED> instruction: 32336d74
    5dd8:	78783466 			@ <UNDEFINED> instruction: 78783466
    5ddc:	7261755f 			@ <UNDEFINED> instruction: 7261755f
    5de0:	00632e74 			@ <UNDEFINED> instruction: 00632e74
    5de4:	74726175 			@ <UNDEFINED> instruction: 74726175
    5de8:	6765725f 			@ <UNDEFINED> instruction: 6765725f
    5dec:	5f727300 			@ <UNDEFINED> instruction: 5f727300
    5df0:	70616e73 			@ <UNDEFINED> instruction: 70616e73
    5df4:	746f6873 			@ <UNDEFINED> instruction: 746f6873
    5df8:	52415500 			@ <UNDEFINED> instruction: 52415500
    5dfc:	4f505f54 			@ <UNDEFINED> instruction: 4f505f54
    5e00:	545f4c4c 			@ <UNDEFINED> instruction: 545f4c4c
    5e04:	4f454d49 			@ <UNDEFINED> instruction: 4f454d49
    5e08:	31205455 			@ <UNDEFINED> instruction: 31205455
    5e0c:	30303030 			@ <UNDEFINED> instruction: 30303030
    5e10:	64005530 			@ <UNDEFINED> instruction: 64005530
    5e14:	5f617461 			@ <UNDEFINED> instruction: 5f617461
    5e18:	657a6973 			@ <UNDEFINED> instruction: 657a6973
    5e1c:	73736200 			@ <UNDEFINED> instruction: 73736200
    5e20:	7a69735f 			@ <UNDEFINED> instruction: 7a69735f
    5e24:	45570065 			@ <UNDEFINED> instruction: 45570065
    5e28:	485f4b41 			@ <UNDEFINED> instruction: 485f4b41
    5e2c:	4c444e41 	mcrrmi	14, 4, r4, r4, cr1
    5e30:	6e285245 			@ <UNDEFINED> instruction: 6e285245
    5e34:	29656d61 			@ <UNDEFINED> instruction: 29656d61
    5e38:	696f7620 			@ <UNDEFINED> instruction: 696f7620
    5e3c:	616e2064 			@ <UNDEFINED> instruction: 616e2064
    5e40:	7628656d 			@ <UNDEFINED> instruction: 7628656d
    5e44:	2964696f 			@ <UNDEFINED> instruction: 2964696f
    5e48:	615f5f20 			@ <UNDEFINED> instruction: 615f5f20
    5e4c:	69727474 			@ <UNDEFINED> instruction: 69727474
    5e50:	65747562 			@ <UNDEFINED> instruction: 65747562
    5e54:	28285f5f 			@ <UNDEFINED> instruction: 28285f5f
    5e58:	6b616577 			@ <UNDEFINED> instruction: 6b616577
    5e5c:	6c61202c 			@ <UNDEFINED> instruction: 6c61202c
    5e60:	28736169 			@ <UNDEFINED> instruction: 28736169
    5e64:	66654422 			@ <UNDEFINED> instruction: 66654422
    5e68:	746c7561 			@ <UNDEFINED> instruction: 746c7561
    5e6c:	6e61485f 			@ <UNDEFINED> instruction: 6e61485f
    5e70:	72656c64 			@ <UNDEFINED> instruction: 72656c64
    5e74:	202c2922 			@ <UNDEFINED> instruction: 202c2922
    5e78:	65726f6e 			@ <UNDEFINED> instruction: 65726f6e
    5e7c:	6e727574 			@ <UNDEFINED> instruction: 6e727574
    5e80:	44002929 			@ <UNDEFINED> instruction: 44002929
    5e84:	75616665 			@ <UNDEFINED> instruction: 75616665
    5e88:	485f746c 			@ <UNDEFINED> instruction: 485f746c
    5e8c:	6c646e61 			@ <UNDEFINED> instruction: 6c646e61
    5e90:	5f007265 			@ <UNDEFINED> instruction: 5f007265
    5e94:	78657465 			@ <UNDEFINED> instruction: 78657465
    5e98:	655f0074 			@ <UNDEFINED> instruction: 655f0074
    5e9c:	63617473 			@ <UNDEFINED> instruction: 63617473
    5ea0:	655f006b 			@ <UNDEFINED> instruction: 655f006b
    5ea4:	00737362 			@ <UNDEFINED> instruction: 00737362
    5ea8:	6164655f 			@ <UNDEFINED> instruction: 6164655f
    5eac:	73006174 	movwvc	r6, #372	@ 0x174
    5eb0:	74726174 			@ <UNDEFINED> instruction: 74726174
    5eb4:	732f7075 			@ <UNDEFINED> instruction: 732f7075
    5eb8:	74726174 			@ <UNDEFINED> instruction: 74726174
    5ebc:	665f7075 			@ <UNDEFINED> instruction: 665f7075
    5ec0:	72363434 			@ <UNDEFINED> instruction: 72363434
    5ec4:	00632e65 			@ <UNDEFINED> instruction: 00632e65
    5ec8:	7362735f 			@ <UNDEFINED> instruction: 7362735f
    5ecc:	65640073 			@ <UNDEFINED> instruction: 65640073
    5ed0:	49007473 			@ <UNDEFINED> instruction: 49007473
    5ed4:	61485152 			@ <UNDEFINED> instruction: 61485152
    5ed8:	656c646e 			@ <UNDEFINED> instruction: 656c646e
    5edc:	00745f72 			@ <UNDEFINED> instruction: 00745f72
    5ee0:	6164735f 			@ <UNDEFINED> instruction: 6164735f
    5ee4:	76006174 			@ <UNDEFINED> instruction: 76006174
    5ee8:	6f746365 			@ <UNDEFINED> instruction: 6f746365
    5eec:	61745f72 			@ <UNDEFINED> instruction: 61745f72
    5ef0:	00656c62 			@ <UNDEFINED> instruction: 00656c62
    5ef4:	65736552 			@ <UNDEFINED> instruction: 65736552
    5ef8:	61485f74 			@ <UNDEFINED> instruction: 61485f74
    5efc:	656c646e 			@ <UNDEFINED> instruction: 656c646e
    5f00:	79530072 			@ <UNDEFINED> instruction: 79530072
    5f04:	6d657473 			@ <UNDEFINED> instruction: 6d657473
    5f08:	74696e49 			@ <UNDEFINED> instruction: 74696e49
	...

Disassembly of section .comment:

00000000 <.comment>:
{
   0:	3a434347 			@ <UNDEFINED> instruction: 3a434347
   4:	72412820 			@ <UNDEFINED> instruction: 72412820
    GPIO_Status_t status = gpio_validate_config(cfg);
   8:	4e47206d 			@ <UNDEFINED> instruction: 4e47206d
   c:	6f542055 			@ <UNDEFINED> instruction: 6f542055
  10:	68636c6f 			@ <UNDEFINED> instruction: 68636c6f
    if (status != GPIO_OK) {
  14:	206e6961 			@ <UNDEFINED> instruction: 206e6961
  18:	332e3431 			@ <UNDEFINED> instruction: 332e3431
        return status;
  1c:	6c65522e 			@ <UNDEFINED> instruction: 6c65522e
    volatile uint32_t *moder   =
  20:	42282031 			@ <UNDEFINED> instruction: 42282031
  24:	646c6975 			@ <UNDEFINED> instruction: 646c6975
        (volatile uint32_t *)((uintptr_t)cfg->port_base + GPIO_OTYPER_OFFSET);
  28:	6d726120 			@ <UNDEFINED> instruction: 6d726120
    volatile uint32_t *otyper  =
  2c:	2e34312d 			@ <UNDEFINED> instruction: 2e34312d
        (volatile uint32_t *)((uintptr_t)cfg->port_base + GPIO_OSPEEDR_OFFSET);
  30:	29343731 			@ <UNDEFINED> instruction: 29343731
    volatile uint32_t *ospeedr =
  34:	34312029 			@ <UNDEFINED> instruction: 34312029
        (volatile uint32_t *)((uintptr_t)cfg->port_base + GPIO_PUPDR_OFFSET);
  38:	312e332e 			@ <UNDEFINED> instruction: 312e332e
    volatile uint32_t *pupdr   =
  3c:	32303220 			@ <UNDEFINED> instruction: 32303220
    gpio_set_2bit_field(moder,   cfg->pin, GPIO_MODER_MASK,   GPIO_MODER_ANALOG);
  40:	32363035 			@ <UNDEFINED> instruction: 32363035
  44:	Address 0x44 is out of bounds.


Disassembly of section .ARM.attributes:

00000000 <.ARM.attributes>:
{
   0:	00003341 			@ <UNDEFINED> instruction: 00003341
   4:	61656100 			@ <UNDEFINED> instruction: 61656100
    GPIO_Status_t status = gpio_validate_config(cfg);
   8:	01006962 			@ <UNDEFINED> instruction: 01006962
   c:	00000029 			@ <UNDEFINED> instruction: 00000029
  10:	2d453705 			@ <UNDEFINED> instruction: 2d453705
    if (status != GPIO_OK) {
  14:	0d06004d 			@ <UNDEFINED> instruction: 0d06004d
  18:	02094d07 			@ <UNDEFINED> instruction: 02094d07
        return status;
  1c:	0412060a 			@ <UNDEFINED> instruction: 0412060a
    volatile uint32_t *moder   =
  20:	01150114 			@ <UNDEFINED> instruction: 01150114
  24:	01180317 			@ <UNDEFINED> instruction: 01180317
        (volatile uint32_t *)((uintptr_t)cfg->port_base + GPIO_OTYPER_OFFSET);
  28:	011a0119 			@ <UNDEFINED> instruction: 011a0119
    volatile uint32_t *otyper  =
  2c:	011c011b 			@ <UNDEFINED> instruction: 011c011b
        (volatile uint32_t *)((uintptr_t)cfg->port_base + GPIO_OSPEEDR_OFFSET);
  30:	0122061e 			@ <UNDEFINED> instruction: 0122061e

Disassembly of section .debug_frame:

00000000 <.debug_frame>:
{
   0:	0000000c 			@ <UNDEFINED> instruction: 0000000c
   4:	ffffffff 			@ <UNDEFINED> instruction: ffffffff
    GPIO_Status_t status = gpio_validate_config(cfg);
   8:	7c020001 			@ <UNDEFINED> instruction: 7c020001
   c:	000d0c0e 			@ <UNDEFINED> instruction: 000d0c0e
  10:	00000014 			@ <UNDEFINED> instruction: 00000014
    if (status != GPIO_OK) {
  14:	00000000 			@ <UNDEFINED> instruction: 00000000
  18:	080001c4 			@ <UNDEFINED> instruction: 080001c4
        return status;
  1c:	00000008 			@ <UNDEFINED> instruction: 00000008
    volatile uint32_t *moder   =
  20:	87040e41 			@ <UNDEFINED> instruction: 87040e41
  24:	070d4101 			@ <UNDEFINED> instruction: 070d4101
        (volatile uint32_t *)((uintptr_t)cfg->port_base + GPIO_OTYPER_OFFSET);
  28:	00000018 			@ <UNDEFINED> instruction: 00000018
    volatile uint32_t *otyper  =
  2c:	00000000 			@ <UNDEFINED> instruction: 00000000
        (volatile uint32_t *)((uintptr_t)cfg->port_base + GPIO_OSPEEDR_OFFSET);
  30:	080001cc 			@ <UNDEFINED> instruction: 080001cc
    volatile uint32_t *ospeedr =
  34:	0000009c 			@ <UNDEFINED> instruction: 0000009c
        (volatile uint32_t *)((uintptr_t)cfg->port_base + GPIO_PUPDR_OFFSET);
  38:	87080e41 			@ <UNDEFINED> instruction: 87080e41
    volatile uint32_t *pupdr   =
  3c:	41018e02 			@ <UNDEFINED> instruction: 41018e02
    gpio_set_2bit_field(moder,   cfg->pin, GPIO_MODER_MASK,   GPIO_MODER_ANALOG);
  40:	0000070d 			@ <UNDEFINED> instruction: 0000070d
  44:	0000000c 			@ <UNDEFINED> instruction: 0000000c
  48:	ffffffff 			@ <UNDEFINED> instruction: ffffffff
    gpio_set_2bit_field(ospeedr, cfg->pin, GPIO_OSPEEDR_MASK, GPIO_OSPEEDR_LOW);
  4c:	7c020001 			@ <UNDEFINED> instruction: 7c020001
  50:	000d0c0e 			@ <UNDEFINED> instruction: 000d0c0e
  54:	00000024 			@ <UNDEFINED> instruction: 00000024
  58:	00000044 			@ <UNDEFINED> instruction: 00000044
    gpio_set_2bit_field(pupdr,   cfg->pin, GPIO_PUPDR_MASK,   GPIO_PUPDR_NONE);
  5c:	08000268 			@ <UNDEFINED> instruction: 08000268
  60:	00000074 			@ <UNDEFINED> instruction: 00000074
  64:	87040e41 			@ <UNDEFINED> instruction: 87040e41
    *otyper &= ~(1UL << cfg->pin);
  68:	100e4101 			@ <UNDEFINED> instruction: 100e4101
  6c:	73070d41 	movwvc	r0, #32065	@ 0x7d41
  70:	0d41040e 			@ <UNDEFINED> instruction: 0d41040e
  74:	0ec7420d 			@ <UNDEFINED> instruction: 0ec7420d
  78:	00000000 			@ <UNDEFINED> instruction: 00000000
  7c:	00000024 			@ <UNDEFINED> instruction: 00000024
}
  80:	00000044 			@ <UNDEFINED> instruction: 00000044
  84:	080002dc 			@ <UNDEFINED> instruction: 080002dc
        return UART_ERR_OVERRUN;
  88:	00000044 			@ <UNDEFINED> instruction: 00000044
  8c:	87040e41 			@ <UNDEFINED> instruction: 87040e41
    if (sr_snapshot & USART_SR_FE) {
  90:	200e4101 			@ <UNDEFINED> instruction: 200e4101
  94:	5b070d41 			@ <UNDEFINED> instruction: 5b070d41
        return UART_ERR_FRAMING;
  98:	0d41040e 			@ <UNDEFINED> instruction: 0d41040e
  9c:	0ec7420d 			@ <UNDEFINED> instruction: 0ec7420d
}
  a0:	00000000 			@ <UNDEFINED> instruction: 00000000
  a4:	00000024 			@ <UNDEFINED> instruction: 00000024
  a8:	00000044 			@ <UNDEFINED> instruction: 00000044
  ac:	08000320 			@ <UNDEFINED> instruction: 08000320
  b0:	00000062 			@ <UNDEFINED> instruction: 00000062
  b4:	87040e41 			@ <UNDEFINED> instruction: 87040e41
  b8:	200e4101 			@ <UNDEFINED> instruction: 200e4101
  bc:	6a070d41 			@ <UNDEFINED> instruction: 6a070d41
  c0:	0d41040e 			@ <UNDEFINED> instruction: 0d41040e
  c4:	0ec7420d 			@ <UNDEFINED> instruction: 0ec7420d
  c8:	00000000 			@ <UNDEFINED> instruction: 00000000
  cc:	00000020 			@ <UNDEFINED> instruction: 00000020
  d0:	00000044 			@ <UNDEFINED> instruction: 00000044
  d4:	08000384 			@ <UNDEFINED> instruction: 08000384
  d8:	00000114 			@ <UNDEFINED> instruction: 00000114
  dc:	87080e41 			@ <UNDEFINED> instruction: 87080e41
  e0:	41018e02 			@ <UNDEFINED> instruction: 41018e02
  e4:	0d41280e 			@ <UNDEFINED> instruction: 0d41280e
  e8:	0e830207 			@ <UNDEFINED> instruction: 0e830207
  ec:	0d0d4108 			@ <UNDEFINED> instruction: 0d0d4108
  f0:	00000020 			@ <UNDEFINED> instruction: 00000020
  f4:	00000044 			@ <UNDEFINED> instruction: 00000044
  f8:	00000000 			@ <UNDEFINED> instruction: 00000000
  fc:	0000005c 			@ <UNDEFINED> instruction: 0000005c
 100:	87080e41 			@ <UNDEFINED> instruction: 87080e41
 104:	41018e02 			@ <UNDEFINED> instruction: 41018e02
 108:	0d41180e 			@ <UNDEFINED> instruction: 0d41180e
 10c:	080e6907 			@ <UNDEFINED> instruction: 080e6907
 110:	000d0d41 			@ <UNDEFINED> instruction: 000d0d41
 114:	00000020 			@ <UNDEFINED> instruction: 00000020
 118:	00000044 			@ <UNDEFINED> instruction: 00000044
 11c:	00000000 			@ <UNDEFINED> instruction: 00000000
 120:	0000005e 			@ <UNDEFINED> instruction: 0000005e
 124:	87080e41 			@ <UNDEFINED> instruction: 87080e41
 128:	41018e02 			@ <UNDEFINED> instruction: 41018e02
 12c:	0d41180e 			@ <UNDEFINED> instruction: 0d41180e
 130:	080e6a07 			@ <UNDEFINED> instruction: 080e6a07
 134:	000d0d41 			@ <UNDEFINED> instruction: 000d0d41
 138:	00000020 			@ <UNDEFINED> instruction: 00000020
 13c:	00000044 			@ <UNDEFINED> instruction: 00000044
 140:	00000000 			@ <UNDEFINED> instruction: 00000000
 144:	0000006c 			@ <UNDEFINED> instruction: 0000006c
 148:	87080e41 			@ <UNDEFINED> instruction: 87080e41
 14c:	41018e02 			@ <UNDEFINED> instruction: 41018e02
 150:	0d41200e 			@ <UNDEFINED> instruction: 0d41200e
 154:	080e7107 			@ <UNDEFINED> instruction: 080e7107
 158:	000d0d41 			@ <UNDEFINED> instruction: 000d0d41
 15c:	00000020 			@ <UNDEFINED> instruction: 00000020
 160:	00000044 			@ <UNDEFINED> instruction: 00000044
 164:	00000000 			@ <UNDEFINED> instruction: 00000000
 168:	00000088 			@ <UNDEFINED> instruction: 00000088
 16c:	87080e41 			@ <UNDEFINED> instruction: 87080e41
 170:	41018e02 			@ <UNDEFINED> instruction: 41018e02
 174:	0d41280e 			@ <UNDEFINED> instruction: 0d41280e
 178:	080e7f07 			@ <UNDEFINED> instruction: 080e7f07
 17c:	000d0d41 			@ <UNDEFINED> instruction: 000d0d41
 180:	0000000c 			@ <UNDEFINED> instruction: 0000000c
 184:	ffffffff 			@ <UNDEFINED> instruction: ffffffff
 188:	7c020001 			@ <UNDEFINED> instruction: 7c020001
 18c:	000d0c0e 			@ <UNDEFINED> instruction: 000d0c0e
 190:	00000024 			@ <UNDEFINED> instruction: 00000024
 194:	00000180 			@ <UNDEFINED> instruction: 00000180
 198:	00000000 			@ <UNDEFINED> instruction: 00000000
 19c:	00000044 			@ <UNDEFINED> instruction: 00000044
 1a0:	87040e41 			@ <UNDEFINED> instruction: 87040e41
 1a4:	180e4101 			@ <UNDEFINED> instruction: 180e4101
 1a8:	56070d41 			@ <UNDEFINED> instruction: 56070d41
 1ac:	0d41040e 			@ <UNDEFINED> instruction: 0d41040e
 1b0:	0ec7420d 			@ <UNDEFINED> instruction: 0ec7420d
 1b4:	00000000 			@ <UNDEFINED> instruction: 00000000
 1b8:	00000024 			@ <UNDEFINED> instruction: 00000024
 1bc:	00000180 			@ <UNDEFINED> instruction: 00000180
 1c0:	00000000 			@ <UNDEFINED> instruction: 00000000
 1c4:	0000002c 			@ <UNDEFINED> instruction: 0000002c
 1c8:	87040e41 			@ <UNDEFINED> instruction: 87040e41
 1cc:	100e4101 			@ <UNDEFINED> instruction: 100e4101
 1d0:	4d070d41 			@ <UNDEFINED> instruction: 4d070d41
 1d4:	0d41040e 			@ <UNDEFINED> instruction: 0d41040e
 1d8:	0ec7420d 			@ <UNDEFINED> instruction: 0ec7420d
 1dc:	00000000 			@ <UNDEFINED> instruction: 00000000
 1e0:	00000024 			@ <UNDEFINED> instruction: 00000024
 1e4:	00000180 			@ <UNDEFINED> instruction: 00000180
 1e8:	00000000 			@ <UNDEFINED> instruction: 00000000
 1ec:	00000028 			@ <UNDEFINED> instruction: 00000028
 1f0:	87040e41 			@ <UNDEFINED> instruction: 87040e41
 1f4:	100e4101 			@ <UNDEFINED> instruction: 100e4101
 1f8:	4a070d41 			@ <UNDEFINED> instruction: 4a070d41
 1fc:	0d41040e 			@ <UNDEFINED> instruction: 0d41040e
 200:	0ec7420d 			@ <UNDEFINED> instruction: 0ec7420d
 204:	00000000 			@ <UNDEFINED> instruction: 00000000
 208:	00000024 			@ <UNDEFINED> instruction: 00000024
 20c:	00000180 			@ <UNDEFINED> instruction: 00000180
 210:	00000000 			@ <UNDEFINED> instruction: 00000000
 214:	0000002c 			@ <UNDEFINED> instruction: 0000002c
 218:	87040e41 			@ <UNDEFINED> instruction: 87040e41
 21c:	100e4101 			@ <UNDEFINED> instruction: 100e4101
 220:	4d070d41 			@ <UNDEFINED> instruction: 4d070d41
 224:	0d41040e 			@ <UNDEFINED> instruction: 0d41040e
 228:	0ec7420d 			@ <UNDEFINED> instruction: 0ec7420d
 22c:	00000000 			@ <UNDEFINED> instruction: 00000000
 230:	00000024 			@ <UNDEFINED> instruction: 00000024
 234:	00000180 			@ <UNDEFINED> instruction: 00000180
 238:	00000000 			@ <UNDEFINED> instruction: 00000000
 23c:	00000028 			@ <UNDEFINED> instruction: 00000028
 240:	87040e41 			@ <UNDEFINED> instruction: 87040e41
 244:	100e4101 			@ <UNDEFINED> instruction: 100e4101
 248:	4a070d41 			@ <UNDEFINED> instruction: 4a070d41
 24c:	0d41040e 			@ <UNDEFINED> instruction: 0d41040e
 250:	0ec7420d 			@ <UNDEFINED> instruction: 0ec7420d
 254:	00000000 			@ <UNDEFINED> instruction: 00000000
 258:	00000024 			@ <UNDEFINED> instruction: 00000024
 25c:	00000180 			@ <UNDEFINED> instruction: 00000180
 260:	00000000 			@ <UNDEFINED> instruction: 00000000
 264:	0000002c 			@ <UNDEFINED> instruction: 0000002c
 268:	87040e41 			@ <UNDEFINED> instruction: 87040e41
 26c:	100e4101 			@ <UNDEFINED> instruction: 100e4101
 270:	4d070d41 			@ <UNDEFINED> instruction: 4d070d41
 274:	0d41040e 			@ <UNDEFINED> instruction: 0d41040e
 278:	0ec7420d 			@ <UNDEFINED> instruction: 0ec7420d
 27c:	00000000 			@ <UNDEFINED> instruction: 00000000
 280:	00000024 			@ <UNDEFINED> instruction: 00000024
 284:	00000180 			@ <UNDEFINED> instruction: 00000180
 288:	00000000 			@ <UNDEFINED> instruction: 00000000
 28c:	00000028 			@ <UNDEFINED> instruction: 00000028
 290:	87040e41 			@ <UNDEFINED> instruction: 87040e41
 294:	100e4101 			@ <UNDEFINED> instruction: 100e4101
 298:	4a070d41 			@ <UNDEFINED> instruction: 4a070d41
 29c:	0d41040e 			@ <UNDEFINED> instruction: 0d41040e
 2a0:	0ec7420d 			@ <UNDEFINED> instruction: 0ec7420d
 2a4:	00000000 			@ <UNDEFINED> instruction: 00000000
 2a8:	00000020 			@ <UNDEFINED> instruction: 00000020
 2ac:	00000180 			@ <UNDEFINED> instruction: 00000180
 2b0:	00000000 			@ <UNDEFINED> instruction: 00000000
 2b4:	00000040 			@ <UNDEFINED> instruction: 00000040
 2b8:	87080e41 			@ <UNDEFINED> instruction: 87080e41
 2bc:	41018e02 			@ <UNDEFINED> instruction: 41018e02
 2c0:	0d41180e 			@ <UNDEFINED> instruction: 0d41180e
 2c4:	080e5907 			@ <UNDEFINED> instruction: 080e5907
 2c8:	000d0d41 			@ <UNDEFINED> instruction: 000d0d41
 2cc:	0000001c 			@ <UNDEFINED> instruction: 0000001c
 2d0:	00000180 			@ <UNDEFINED> instruction: 00000180
 2d4:	00000000 			@ <UNDEFINED> instruction: 00000000
 2d8:	0000001c 			@ <UNDEFINED> instruction: 0000001c
 2dc:	87040e41 			@ <UNDEFINED> instruction: 87040e41
 2e0:	070d4101 			@ <UNDEFINED> instruction: 070d4101
 2e4:	420d0d47 			@ <UNDEFINED> instruction: 420d0d47
 2e8:	00000ec7 			@ <UNDEFINED> instruction: 00000ec7
 2ec:	00000024 			@ <UNDEFINED> instruction: 00000024
 2f0:	00000180 			@ <UNDEFINED> instruction: 00000180
 2f4:	08000498 			@ <UNDEFINED> instruction: 08000498
 2f8:	00000050 			@ <UNDEFINED> instruction: 00000050
 2fc:	87040e41 			@ <UNDEFINED> instruction: 87040e41
 300:	180e4101 			@ <UNDEFINED> instruction: 180e4101
 304:	58070d41 			@ <UNDEFINED> instruction: 58070d41
 308:	0d41040e 			@ <UNDEFINED> instruction: 0d41040e
 30c:	0ec7420d 			@ <UNDEFINED> instruction: 0ec7420d
 310:	00000000 			@ <UNDEFINED> instruction: 00000000
 314:	00000024 			@ <UNDEFINED> instruction: 00000024
 318:	00000180 			@ <UNDEFINED> instruction: 00000180
 31c:	080004e8 			@ <UNDEFINED> instruction: 080004e8
 320:	00000034 			@ <UNDEFINED> instruction: 00000034
 324:	87040e41 			@ <UNDEFINED> instruction: 87040e41
 328:	180e4101 			@ <UNDEFINED> instruction: 180e4101
 32c:	50070d41 			@ <UNDEFINED> instruction: 50070d41
 330:	0d41040e 			@ <UNDEFINED> instruction: 0d41040e
 334:	0ec7420d 			@ <UNDEFINED> instruction: 0ec7420d
 338:	00000000 			@ <UNDEFINED> instruction: 00000000
 33c:	0000001c 			@ <UNDEFINED> instruction: 0000001c
 340:	00000180 			@ <UNDEFINED> instruction: 00000180
 344:	00000000 			@ <UNDEFINED> instruction: 00000000
 348:	00000018 			@ <UNDEFINED> instruction: 00000018
 34c:	87040e41 			@ <UNDEFINED> instruction: 87040e41
 350:	070d4101 			@ <UNDEFINED> instruction: 070d4101
 354:	420d0d44 			@ <UNDEFINED> instruction: 420d0d44
 358:	00000ec7 			@ <UNDEFINED> instruction: 00000ec7
 35c:	0000001c 			@ <UNDEFINED> instruction: 0000001c
 360:	00000180 			@ <UNDEFINED> instruction: 00000180
 364:	0800051c 			@ <UNDEFINED> instruction: 0800051c
 368:	0000001c 			@ <UNDEFINED> instruction: 0000001c
 36c:	87040e41 			@ <UNDEFINED> instruction: 87040e41
 370:	070d4101 			@ <UNDEFINED> instruction: 070d4101
 374:	420d0d47 			@ <UNDEFINED> instruction: 420d0d47
 378:	00000ec7 			@ <UNDEFINED> instruction: 00000ec7
 37c:	0000000c 			@ <UNDEFINED> instruction: 0000000c
 380:	ffffffff 			@ <UNDEFINED> instruction: ffffffff
 384:	7c020001 			@ <UNDEFINED> instruction: 7c020001
 388:	000d0c0e 			@ <UNDEFINED> instruction: 000d0c0e
 38c:	00000024 			@ <UNDEFINED> instruction: 00000024
 390:	0000037c 			@ <UNDEFINED> instruction: 0000037c
 394:	08000538 			@ <UNDEFINED> instruction: 08000538
 398:	00000078 			@ <UNDEFINED> instruction: 00000078
 39c:	87040e41 			@ <UNDEFINED> instruction: 87040e41
 3a0:	100e4101 			@ <UNDEFINED> instruction: 100e4101
 3a4:	75070d41 			@ <UNDEFINED> instruction: 75070d41
 3a8:	0d41040e 			@ <UNDEFINED> instruction: 0d41040e
 3ac:	0ec7420d 			@ <UNDEFINED> instruction: 0ec7420d
 3b0:	00000000 			@ <UNDEFINED> instruction: 00000000
 3b4:	00000024 			@ <UNDEFINED> instruction: 00000024
 3b8:	0000037c 			@ <UNDEFINED> instruction: 0000037c
 3bc:	080005b0 			@ <UNDEFINED> instruction: 080005b0
 3c0:	0000001c 			@ <UNDEFINED> instruction: 0000001c
 3c4:	87040e41 			@ <UNDEFINED> instruction: 87040e41
 3c8:	100e4101 			@ <UNDEFINED> instruction: 100e4101
 3cc:	47070d41 			@ <UNDEFINED> instruction: 47070d41
 3d0:	0d41040e 			@ <UNDEFINED> instruction: 0d41040e
 3d4:	0ec7420d 			@ <UNDEFINED> instruction: 0ec7420d
 3d8:	00000000 			@ <UNDEFINED> instruction: 00000000
 3dc:	00000024 			@ <UNDEFINED> instruction: 00000024
 3e0:	0000037c 			@ <UNDEFINED> instruction: 0000037c
 3e4:	080005cc 			@ <UNDEFINED> instruction: 080005cc
 3e8:	0000019a 			@ <UNDEFINED> instruction: 0000019a
 3ec:	84100e41 			@ <UNDEFINED> instruction: 84100e41
 3f0:	87038504 			@ <UNDEFINED> instruction: 87038504
 3f4:	41018e02 			@ <UNDEFINED> instruction: 41018e02
 3f8:	0d41280e 			@ <UNDEFINED> instruction: 0d41280e
 3fc:	0ec80207 			@ <UNDEFINED> instruction: 0ec80207
 400:	0d0d4110 			@ <UNDEFINED> instruction: 0d0d4110
 404:	00000020 			@ <UNDEFINED> instruction: 00000020
 408:	0000037c 			@ <UNDEFINED> instruction: 0000037c
 40c:	08000768 			@ <UNDEFINED> instruction: 08000768
 410:	00000078 			@ <UNDEFINED> instruction: 00000078
 414:	87080e41 			@ <UNDEFINED> instruction: 87080e41
 418:	41018e02 			@ <UNDEFINED> instruction: 41018e02
 41c:	0d41200e 			@ <UNDEFINED> instruction: 0d41200e
 420:	080e7507 			@ <UNDEFINED> instruction: 080e7507
 424:	000d0d41 			@ <UNDEFINED> instruction: 000d0d41
 428:	00000020 			@ <UNDEFINED> instruction: 00000020
 42c:	0000037c 			@ <UNDEFINED> instruction: 0000037c
 430:	00000000 			@ <UNDEFINED> instruction: 00000000
 434:	00000058 			@ <UNDEFINED> instruction: 00000058
 438:	87080e41 			@ <UNDEFINED> instruction: 87080e41
 43c:	41018e02 			@ <UNDEFINED> instruction: 41018e02
 440:	0d41200e 			@ <UNDEFINED> instruction: 0d41200e
 444:	080e6707 			@ <UNDEFINED> instruction: 080e6707
 448:	000d0d41 			@ <UNDEFINED> instruction: 000d0d41
 44c:	00000020 			@ <UNDEFINED> instruction: 00000020
 450:	0000037c 			@ <UNDEFINED> instruction: 0000037c
 454:	00000000 			@ <UNDEFINED> instruction: 00000000
 458:	000000ac 			@ <UNDEFINED> instruction: 000000ac
 45c:	87080e41 			@ <UNDEFINED> instruction: 87080e41
 460:	41018e02 			@ <UNDEFINED> instruction: 41018e02
 464:	0d41280e 			@ <UNDEFINED> instruction: 0d41280e
 468:	0e4f0207 			@ <UNDEFINED> instruction: 0e4f0207
 46c:	0d0d4108 			@ <UNDEFINED> instruction: 0d0d4108
 470:	00000020 			@ <UNDEFINED> instruction: 00000020
 474:	0000037c 			@ <UNDEFINED> instruction: 0000037c
 478:	00000000 			@ <UNDEFINED> instruction: 00000000
 47c:	00000056 			@ <UNDEFINED> instruction: 00000056
 480:	87080e41 			@ <UNDEFINED> instruction: 87080e41
 484:	41018e02 			@ <UNDEFINED> instruction: 41018e02
 488:	0d41200e 			@ <UNDEFINED> instruction: 0d41200e
 48c:	080e6607 			@ <UNDEFINED> instruction: 080e6607
 490:	000d0d41 			@ <UNDEFINED> instruction: 000d0d41
 494:	00000020 			@ <UNDEFINED> instruction: 00000020
 498:	0000037c 			@ <UNDEFINED> instruction: 0000037c
 49c:	080007e0 			@ <UNDEFINED> instruction: 080007e0
 4a0:	0000004c 			@ <UNDEFINED> instruction: 0000004c
 4a4:	87080e41 			@ <UNDEFINED> instruction: 87080e41
 4a8:	41018e02 			@ <UNDEFINED> instruction: 41018e02
 4ac:	0d41180e 			@ <UNDEFINED> instruction: 0d41180e
 4b0:	080e6107 			@ <UNDEFINED> instruction: 080e6107
 4b4:	000d0d41 			@ <UNDEFINED> instruction: 000d0d41
 4b8:	00000020 			@ <UNDEFINED> instruction: 00000020
 4bc:	0000037c 			@ <UNDEFINED> instruction: 0000037c
 4c0:	00000000 			@ <UNDEFINED> instruction: 00000000
 4c4:	0000008e 			@ <UNDEFINED> instruction: 0000008e
 4c8:	87080e41 			@ <UNDEFINED> instruction: 87080e41
 4cc:	41018e02 			@ <UNDEFINED> instruction: 41018e02
 4d0:	0d41180e 			@ <UNDEFINED> instruction: 0d41180e
 4d4:	0e420207 			@ <UNDEFINED> instruction: 0e420207
 4d8:	0d0d4108 			@ <UNDEFINED> instruction: 0d0d4108
 4dc:	0000000c 			@ <UNDEFINED> instruction: 0000000c
 4e0:	ffffffff 			@ <UNDEFINED> instruction: ffffffff
 4e4:	7c020001 			@ <UNDEFINED> instruction: 7c020001
 4e8:	000d0c0e 			@ <UNDEFINED> instruction: 000d0c0e
 4ec:	0000001c 			@ <UNDEFINED> instruction: 0000001c
 4f0:	000004dc 	ldrdeq	r0, [r0], -ip
 4f4:	0800082c 			@ <UNDEFINED> instruction: 0800082c
 4f8:	0000000e 			@ <UNDEFINED> instruction: 0000000e
 4fc:	87040e41 			@ <UNDEFINED> instruction: 87040e41
 500:	070d4101 			@ <UNDEFINED> instruction: 070d4101
 504:	420d0d42 			@ <UNDEFINED> instruction: 420d0d42
 508:	00000ec7 			@ <UNDEFINED> instruction: 00000ec7
 50c:	0000001c 			@ <UNDEFINED> instruction: 0000001c
 510:	000004dc 	ldrdeq	r0, [r0], -ip
 514:	0800083c 			@ <UNDEFINED> instruction: 0800083c
 518:	00000084 			@ <UNDEFINED> instruction: 00000084
 51c:	87080e41 			@ <UNDEFINED> instruction: 87080e41
 520:	41018e02 			@ <UNDEFINED> instruction: 41018e02
 524:	0d41280e 			@ <UNDEFINED> instruction: 0d41280e
 528:	00000007 			@ <UNDEFINED> instruction: 00000007
 52c:	00000014 			@ <UNDEFINED> instruction: 00000014
 530:	000004dc 	ldrdeq	r0, [r0], -ip
 534:	080008c0 			@ <UNDEFINED> instruction: 080008c0
 538:	00000008 			@ <UNDEFINED> instruction: 00000008
 53c:	87040e41 			@ <UNDEFINED> instruction: 87040e41
 540:	070d4101 			@ <UNDEFINED> instruction: 070d4101
